
Simple_Calculator.elf:     file format elf32-avr

Sections:
Idx Name          Size      VMA       LMA       File off  Algn
  0 .text         000059f6  00000000  00000000  00000094  2**1
                  CONTENTS, ALLOC, LOAD, READONLY, CODE
  1 .data         00000166  00800060  000059f6  00005a8a  2**0
                  CONTENTS, ALLOC, LOAD, DATA
  2 .bss          000001fd  008001c6  008001c6  00005bf0  2**0
                  ALLOC
  3 .stab         000023d0  00000000  00000000  00005bf0  2**2
                  CONTENTS, READONLY, DEBUGGING
  4 .stabstr      000017d8  00000000  00000000  00007fc0  2**0
                  CONTENTS, READONLY, DEBUGGING
  5 .debug_aranges 000001a0  00000000  00000000  00009798  2**0
                  CONTENTS, READONLY, DEBUGGING
  6 .debug_pubnames 000001ee  00000000  00000000  00009938  2**0
                  CONTENTS, READONLY, DEBUGGING
  7 .debug_info   000027cd  00000000  00000000  00009b26  2**0
                  CONTENTS, READONLY, DEBUGGING
  8 .debug_abbrev 000012d2  00000000  00000000  0000c2f3  2**0
                  CONTENTS, READONLY, DEBUGGING
  9 .debug_line   000011d7  00000000  00000000  0000d5c5  2**0
                  CONTENTS, READONLY, DEBUGGING
 10 .debug_frame  000001c0  00000000  00000000  0000e79c  2**2
                  CONTENTS, READONLY, DEBUGGING
 11 .debug_str    0000033e  00000000  00000000  0000e95c  2**0
                  CONTENTS, READONLY, DEBUGGING
 12 .debug_loc    00001803  00000000  00000000  0000ec9a  2**0
                  CONTENTS, READONLY, DEBUGGING
 13 .debug_ranges 00000068  00000000  00000000  0001049d  2**0
                  CONTENTS, READONLY, DEBUGGING

Disassembly of section .text:

00000000 <__vectors>:
       0:	0c 94 2a 00 	jmp	0x54	; 0x54 <__ctors_end>
       4:	0c 94 47 00 	jmp	0x8e	; 0x8e <__bad_interrupt>
       8:	0c 94 47 00 	jmp	0x8e	; 0x8e <__bad_interrupt>
       c:	0c 94 47 00 	jmp	0x8e	; 0x8e <__bad_interrupt>
      10:	0c 94 47 00 	jmp	0x8e	; 0x8e <__bad_interrupt>
      14:	0c 94 47 00 	jmp	0x8e	; 0x8e <__bad_interrupt>
      18:	0c 94 47 00 	jmp	0x8e	; 0x8e <__bad_interrupt>
      1c:	0c 94 47 00 	jmp	0x8e	; 0x8e <__bad_interrupt>
      20:	0c 94 47 00 	jmp	0x8e	; 0x8e <__bad_interrupt>
      24:	0c 94 47 00 	jmp	0x8e	; 0x8e <__bad_interrupt>
      28:	0c 94 47 00 	jmp	0x8e	; 0x8e <__bad_interrupt>
      2c:	0c 94 47 00 	jmp	0x8e	; 0x8e <__bad_interrupt>
      30:	0c 94 47 00 	jmp	0x8e	; 0x8e <__bad_interrupt>
      34:	0c 94 47 00 	jmp	0x8e	; 0x8e <__bad_interrupt>
      38:	0c 94 47 00 	jmp	0x8e	; 0x8e <__bad_interrupt>
      3c:	0c 94 47 00 	jmp	0x8e	; 0x8e <__bad_interrupt>
      40:	0c 94 47 00 	jmp	0x8e	; 0x8e <__bad_interrupt>
      44:	0c 94 47 00 	jmp	0x8e	; 0x8e <__bad_interrupt>
      48:	0c 94 47 00 	jmp	0x8e	; 0x8e <__bad_interrupt>
      4c:	0c 94 47 00 	jmp	0x8e	; 0x8e <__bad_interrupt>
      50:	0c 94 47 00 	jmp	0x8e	; 0x8e <__bad_interrupt>

00000054 <__ctors_end>:
      54:	11 24       	eor	r1, r1
      56:	1f be       	out	0x3f, r1	; 63
      58:	cf e5       	ldi	r28, 0x5F	; 95
      5a:	d8 e0       	ldi	r29, 0x08	; 8
      5c:	de bf       	out	0x3e, r29	; 62
      5e:	cd bf       	out	0x3d, r28	; 61

00000060 <__do_copy_data>:
      60:	11 e0       	ldi	r17, 0x01	; 1
      62:	a0 e6       	ldi	r26, 0x60	; 96
      64:	b0 e0       	ldi	r27, 0x00	; 0
      66:	e6 ef       	ldi	r30, 0xF6	; 246
      68:	f9 e5       	ldi	r31, 0x59	; 89
      6a:	02 c0       	rjmp	.+4      	; 0x70 <.do_copy_data_start>

0000006c <.do_copy_data_loop>:
      6c:	05 90       	lpm	r0, Z+
      6e:	0d 92       	st	X+, r0

00000070 <.do_copy_data_start>:
      70:	a6 3c       	cpi	r26, 0xC6	; 198
      72:	b1 07       	cpc	r27, r17
      74:	d9 f7       	brne	.-10     	; 0x6c <.do_copy_data_loop>

00000076 <__do_clear_bss>:
      76:	13 e0       	ldi	r17, 0x03	; 3
      78:	a6 ec       	ldi	r26, 0xC6	; 198
      7a:	b1 e0       	ldi	r27, 0x01	; 1
      7c:	01 c0       	rjmp	.+2      	; 0x80 <.do_clear_bss_start>

0000007e <.do_clear_bss_loop>:
      7e:	1d 92       	st	X+, r1

00000080 <.do_clear_bss_start>:
      80:	a3 3c       	cpi	r26, 0xC3	; 195
      82:	b1 07       	cpc	r27, r17
      84:	e1 f7       	brne	.-8      	; 0x7e <.do_clear_bss_loop>
      86:	0e 94 cc 29 	call	0x5398	; 0x5398 <main>
      8a:	0c 94 f9 2c 	jmp	0x59f2	; 0x59f2 <_exit>

0000008e <__bad_interrupt>:
      8e:	0c 94 00 00 	jmp	0	; 0x0 <__vectors>

00000092 <__muldi3>:
      92:	a0 e3       	ldi	r26, 0x30	; 48
      94:	b0 e0       	ldi	r27, 0x00	; 0
      96:	ef e4       	ldi	r30, 0x4F	; 79
      98:	f0 e0       	ldi	r31, 0x00	; 0
      9a:	0c 94 1a 2a 	jmp	0x5434	; 0x5434 <__prologue_saves__>
      9e:	a8 e0       	ldi	r26, 0x08	; 8
      a0:	4e 01       	movw	r8, r28
      a2:	08 94       	sec
      a4:	81 1c       	adc	r8, r1
      a6:	91 1c       	adc	r9, r1
      a8:	f4 01       	movw	r30, r8
      aa:	ba 2f       	mov	r27, r26
      ac:	11 92       	st	Z+, r1
      ae:	ba 95       	dec	r27
      b0:	e9 f7       	brne	.-6      	; 0xac <__muldi3+0x1a>
      b2:	29 83       	std	Y+1, r18	; 0x01
      b4:	3a 83       	std	Y+2, r19	; 0x02
      b6:	4b 83       	std	Y+3, r20	; 0x03
      b8:	5c 83       	std	Y+4, r21	; 0x04
      ba:	6d 83       	std	Y+5, r22	; 0x05
      bc:	7e 83       	std	Y+6, r23	; 0x06
      be:	8f 83       	std	Y+7, r24	; 0x07
      c0:	98 87       	std	Y+8, r25	; 0x08
      c2:	ce 01       	movw	r24, r28
      c4:	09 96       	adiw	r24, 0x09	; 9
      c6:	fc 01       	movw	r30, r24
      c8:	11 92       	st	Z+, r1
      ca:	aa 95       	dec	r26
      cc:	e9 f7       	brne	.-6      	; 0xc8 <__muldi3+0x36>
      ce:	a9 86       	std	Y+9, r10	; 0x09
      d0:	ba 86       	std	Y+10, r11	; 0x0a
      d2:	cb 86       	std	Y+11, r12	; 0x0b
      d4:	dc 86       	std	Y+12, r13	; 0x0c
      d6:	ed 86       	std	Y+13, r14	; 0x0d
      d8:	fe 86       	std	Y+14, r15	; 0x0e
      da:	0f 87       	std	Y+15, r16	; 0x0f
      dc:	18 8b       	std	Y+16, r17	; 0x10
      de:	29 81       	ldd	r18, Y+1	; 0x01
      e0:	3a 81       	ldd	r19, Y+2	; 0x02
      e2:	4b 81       	ldd	r20, Y+3	; 0x03
      e4:	5c 81       	ldd	r21, Y+4	; 0x04
      e6:	2d a7       	std	Y+45, r18	; 0x2d
      e8:	3e a7       	std	Y+46, r19	; 0x2e
      ea:	4f a7       	std	Y+47, r20	; 0x2f
      ec:	58 ab       	std	Y+48, r21	; 0x30
      ee:	79 01       	movw	r14, r18
      f0:	8a 01       	movw	r16, r20
      f2:	8f ef       	ldi	r24, 0xFF	; 255
      f4:	9f ef       	ldi	r25, 0xFF	; 255
      f6:	a0 e0       	ldi	r26, 0x00	; 0
      f8:	b0 e0       	ldi	r27, 0x00	; 0
      fa:	e8 22       	and	r14, r24
      fc:	f9 22       	and	r15, r25
      fe:	0a 23       	and	r16, r26
     100:	1b 23       	and	r17, r27
     102:	1a 01       	movw	r2, r20
     104:	44 24       	eor	r4, r4
     106:	55 24       	eor	r5, r5
     108:	29 85       	ldd	r18, Y+9	; 0x09
     10a:	3a 85       	ldd	r19, Y+10	; 0x0a
     10c:	4b 85       	ldd	r20, Y+11	; 0x0b
     10e:	5c 85       	ldd	r21, Y+12	; 0x0c
     110:	29 a7       	std	Y+41, r18	; 0x29
     112:	3a a7       	std	Y+42, r19	; 0x2a
     114:	4b a7       	std	Y+43, r20	; 0x2b
     116:	5c a7       	std	Y+44, r21	; 0x2c
     118:	59 01       	movw	r10, r18
     11a:	6a 01       	movw	r12, r20
     11c:	a8 22       	and	r10, r24
     11e:	b9 22       	and	r11, r25
     120:	ca 22       	and	r12, r26
     122:	db 22       	and	r13, r27
     124:	3a 01       	movw	r6, r20
     126:	88 24       	eor	r8, r8
     128:	99 24       	eor	r9, r9
     12a:	c6 01       	movw	r24, r12
     12c:	b5 01       	movw	r22, r10
     12e:	a8 01       	movw	r20, r16
     130:	97 01       	movw	r18, r14
     132:	0e 94 d9 29 	call	0x53b2	; 0x53b2 <__mulsi3>
     136:	6d a3       	std	Y+37, r22	; 0x25
     138:	7e a3       	std	Y+38, r23	; 0x26
     13a:	8f a3       	std	Y+39, r24	; 0x27
     13c:	98 a7       	std	Y+40, r25	; 0x28
     13e:	c4 01       	movw	r24, r8
     140:	b3 01       	movw	r22, r6
     142:	0e 94 d9 29 	call	0x53b2	; 0x53b2 <__mulsi3>
     146:	69 a3       	std	Y+33, r22	; 0x21
     148:	7a a3       	std	Y+34, r23	; 0x22
     14a:	8b a3       	std	Y+35, r24	; 0x23
     14c:	9c a3       	std	Y+36, r25	; 0x24
     14e:	c6 01       	movw	r24, r12
     150:	b5 01       	movw	r22, r10
     152:	a2 01       	movw	r20, r4
     154:	91 01       	movw	r18, r2
     156:	0e 94 d9 29 	call	0x53b2	; 0x53b2 <__mulsi3>
     15a:	7b 01       	movw	r14, r22
     15c:	8c 01       	movw	r16, r24
     15e:	c4 01       	movw	r24, r8
     160:	b3 01       	movw	r22, r6
     162:	0e 94 d9 29 	call	0x53b2	; 0x53b2 <__mulsi3>
     166:	5b 01       	movw	r10, r22
     168:	6c 01       	movw	r12, r24
     16a:	89 a1       	ldd	r24, Y+33	; 0x21
     16c:	9a a1       	ldd	r25, Y+34	; 0x22
     16e:	ab a1       	ldd	r26, Y+35	; 0x23
     170:	bc a1       	ldd	r27, Y+36	; 0x24
     172:	8e 0d       	add	r24, r14
     174:	9f 1d       	adc	r25, r15
     176:	a0 1f       	adc	r26, r16
     178:	b1 1f       	adc	r27, r17
     17a:	89 a3       	std	Y+33, r24	; 0x21
     17c:	9a a3       	std	Y+34, r25	; 0x22
     17e:	ab a3       	std	Y+35, r26	; 0x23
     180:	bc a3       	std	Y+36, r27	; 0x24
     182:	2d a1       	ldd	r18, Y+37	; 0x25
     184:	3e a1       	ldd	r19, Y+38	; 0x26
     186:	4f a1       	ldd	r20, Y+39	; 0x27
     188:	58 a5       	ldd	r21, Y+40	; 0x28
     18a:	ca 01       	movw	r24, r20
     18c:	aa 27       	eor	r26, r26
     18e:	bb 27       	eor	r27, r27
     190:	29 a1       	ldd	r18, Y+33	; 0x21
     192:	3a a1       	ldd	r19, Y+34	; 0x22
     194:	4b a1       	ldd	r20, Y+35	; 0x23
     196:	5c a1       	ldd	r21, Y+36	; 0x24
     198:	28 0f       	add	r18, r24
     19a:	39 1f       	adc	r19, r25
     19c:	4a 1f       	adc	r20, r26
     19e:	5b 1f       	adc	r21, r27
     1a0:	29 a3       	std	Y+33, r18	; 0x21
     1a2:	3a a3       	std	Y+34, r19	; 0x22
     1a4:	4b a3       	std	Y+35, r20	; 0x23
     1a6:	5c a3       	std	Y+36, r21	; 0x24
     1a8:	2e 15       	cp	r18, r14
     1aa:	3f 05       	cpc	r19, r15
     1ac:	40 07       	cpc	r20, r16
     1ae:	51 07       	cpc	r21, r17
     1b0:	40 f4       	brcc	.+16     	; 0x1c2 <__muldi3+0x130>
     1b2:	80 e0       	ldi	r24, 0x00	; 0
     1b4:	90 e0       	ldi	r25, 0x00	; 0
     1b6:	a1 e0       	ldi	r26, 0x01	; 1
     1b8:	b0 e0       	ldi	r27, 0x00	; 0
     1ba:	a8 0e       	add	r10, r24
     1bc:	b9 1e       	adc	r11, r25
     1be:	ca 1e       	adc	r12, r26
     1c0:	db 1e       	adc	r13, r27
     1c2:	89 a1       	ldd	r24, Y+33	; 0x21
     1c4:	9a a1       	ldd	r25, Y+34	; 0x22
     1c6:	ab a1       	ldd	r26, Y+35	; 0x23
     1c8:	bc a1       	ldd	r27, Y+36	; 0x24
     1ca:	9d 01       	movw	r18, r26
     1cc:	44 27       	eor	r20, r20
     1ce:	55 27       	eor	r21, r21
     1d0:	2a 0d       	add	r18, r10
     1d2:	3b 1d       	adc	r19, r11
     1d4:	4c 1d       	adc	r20, r12
     1d6:	5d 1d       	adc	r21, r13
     1d8:	2d 8f       	std	Y+29, r18	; 0x1d
     1da:	3e 8f       	std	Y+30, r19	; 0x1e
     1dc:	4f 8f       	std	Y+31, r20	; 0x1f
     1de:	58 a3       	std	Y+32, r21	; 0x20
     1e0:	6c 01       	movw	r12, r24
     1e2:	bb 24       	eor	r11, r11
     1e4:	aa 24       	eor	r10, r10
     1e6:	8d a1       	ldd	r24, Y+37	; 0x25
     1e8:	9e a1       	ldd	r25, Y+38	; 0x26
     1ea:	af a1       	ldd	r26, Y+39	; 0x27
     1ec:	b8 a5       	ldd	r27, Y+40	; 0x28
     1ee:	a0 70       	andi	r26, 0x00	; 0
     1f0:	b0 70       	andi	r27, 0x00	; 0
     1f2:	a8 0e       	add	r10, r24
     1f4:	b9 1e       	adc	r11, r25
     1f6:	ca 1e       	adc	r12, r26
     1f8:	db 1e       	adc	r13, r27
     1fa:	a9 8e       	std	Y+25, r10	; 0x19
     1fc:	ba 8e       	std	Y+26, r11	; 0x1a
     1fe:	cb 8e       	std	Y+27, r12	; 0x1b
     200:	dc 8e       	std	Y+28, r13	; 0x1c
     202:	9a 8c       	ldd	r9, Y+26	; 0x1a
     204:	8b 8c       	ldd	r8, Y+27	; 0x1b
     206:	7c 8c       	ldd	r7, Y+28	; 0x1c
     208:	9e 8d       	ldd	r25, Y+30	; 0x1e
     20a:	6f 8d       	ldd	r22, Y+31	; 0x1f
     20c:	78 a1       	ldd	r23, Y+32	; 0x20
     20e:	fe 01       	movw	r30, r28
     210:	71 96       	adiw	r30, 0x11	; 17
     212:	88 e0       	ldi	r24, 0x08	; 8
     214:	df 01       	movw	r26, r30
     216:	1d 92       	st	X+, r1
     218:	8a 95       	dec	r24
     21a:	e9 f7       	brne	.-6      	; 0x216 <__muldi3+0x184>
     21c:	2d 8b       	std	Y+21, r18	; 0x15
     21e:	9e 8b       	std	Y+22, r25	; 0x16
     220:	6f 8b       	std	Y+23, r22	; 0x17
     222:	78 8f       	std	Y+24, r23	; 0x18
     224:	2d 85       	ldd	r18, Y+13	; 0x0d
     226:	3e 85       	ldd	r19, Y+14	; 0x0e
     228:	4f 85       	ldd	r20, Y+15	; 0x0f
     22a:	58 89       	ldd	r21, Y+16	; 0x10
     22c:	6d a5       	ldd	r22, Y+45	; 0x2d
     22e:	7e a5       	ldd	r23, Y+46	; 0x2e
     230:	8f a5       	ldd	r24, Y+47	; 0x2f
     232:	98 a9       	ldd	r25, Y+48	; 0x30
     234:	0e 94 d9 29 	call	0x53b2	; 0x53b2 <__mulsi3>
     238:	7b 01       	movw	r14, r22
     23a:	8c 01       	movw	r16, r24
     23c:	2d 81       	ldd	r18, Y+5	; 0x05
     23e:	3e 81       	ldd	r19, Y+6	; 0x06
     240:	4f 81       	ldd	r20, Y+7	; 0x07
     242:	58 85       	ldd	r21, Y+8	; 0x08
     244:	69 a5       	ldd	r22, Y+41	; 0x29
     246:	7a a5       	ldd	r23, Y+42	; 0x2a
     248:	8b a5       	ldd	r24, Y+43	; 0x2b
     24a:	9c a5       	ldd	r25, Y+44	; 0x2c
     24c:	0e 94 d9 29 	call	0x53b2	; 0x53b2 <__mulsi3>
     250:	e6 0e       	add	r14, r22
     252:	f7 1e       	adc	r15, r23
     254:	08 1f       	adc	r16, r24
     256:	19 1f       	adc	r17, r25
     258:	6d 89       	ldd	r22, Y+21	; 0x15
     25a:	7e 89       	ldd	r23, Y+22	; 0x16
     25c:	8f 89       	ldd	r24, Y+23	; 0x17
     25e:	98 8d       	ldd	r25, Y+24	; 0x18
     260:	6e 0d       	add	r22, r14
     262:	7f 1d       	adc	r23, r15
     264:	80 1f       	adc	r24, r16
     266:	91 1f       	adc	r25, r17
     268:	6d 8b       	std	Y+21, r22	; 0x15
     26a:	7e 8b       	std	Y+22, r23	; 0x16
     26c:	8f 8b       	std	Y+23, r24	; 0x17
     26e:	98 8f       	std	Y+24, r25	; 0x18
     270:	ee 89       	ldd	r30, Y+22	; 0x16
     272:	2a 2d       	mov	r18, r10
     274:	39 2d       	mov	r19, r9
     276:	48 2d       	mov	r20, r8
     278:	57 2d       	mov	r21, r7
     27a:	7e 2f       	mov	r23, r30
     27c:	8f 89       	ldd	r24, Y+23	; 0x17
     27e:	98 8d       	ldd	r25, Y+24	; 0x18
     280:	e0 96       	adiw	r28, 0x30	; 48
     282:	e2 e1       	ldi	r30, 0x12	; 18
     284:	0c 94 36 2a 	jmp	0x546c	; 0x546c <__epilogue_restores__>

00000288 <__ashldi3>:
     288:	ef 92       	push	r14
     28a:	ff 92       	push	r15
     28c:	0f 93       	push	r16
     28e:	df 93       	push	r29
     290:	cf 93       	push	r28
     292:	cd b7       	in	r28, 0x3d	; 61
     294:	de b7       	in	r29, 0x3e	; 62
     296:	60 97       	sbiw	r28, 0x10	; 16
     298:	0f b6       	in	r0, 0x3f	; 63
     29a:	f8 94       	cli
     29c:	de bf       	out	0x3e, r29	; 62
     29e:	0f be       	out	0x3f, r0	; 63
     2a0:	cd bf       	out	0x3d, r28	; 61
     2a2:	a8 2f       	mov	r26, r24
     2a4:	00 23       	and	r16, r16
     2a6:	09 f4       	brne	.+2      	; 0x2aa <__ashldi3+0x22>
     2a8:	61 c0       	rjmp	.+194    	; 0x36c <__ashldi3+0xe4>
     2aa:	7e 01       	movw	r14, r28
     2ac:	08 94       	sec
     2ae:	e1 1c       	adc	r14, r1
     2b0:	f1 1c       	adc	r15, r1
     2b2:	88 e0       	ldi	r24, 0x08	; 8
     2b4:	f7 01       	movw	r30, r14
     2b6:	11 92       	st	Z+, r1
     2b8:	8a 95       	dec	r24
     2ba:	e9 f7       	brne	.-6      	; 0x2b6 <__ashldi3+0x2e>
     2bc:	29 83       	std	Y+1, r18	; 0x01
     2be:	3a 83       	std	Y+2, r19	; 0x02
     2c0:	4b 83       	std	Y+3, r20	; 0x03
     2c2:	5c 83       	std	Y+4, r21	; 0x04
     2c4:	6d 83       	std	Y+5, r22	; 0x05
     2c6:	7e 83       	std	Y+6, r23	; 0x06
     2c8:	af 83       	std	Y+7, r26	; 0x07
     2ca:	98 87       	std	Y+8, r25	; 0x08
     2cc:	80 e2       	ldi	r24, 0x20	; 32
     2ce:	80 1b       	sub	r24, r16
     2d0:	e8 2f       	mov	r30, r24
     2d2:	ff 27       	eor	r31, r31
     2d4:	e7 fd       	sbrc	r30, 7
     2d6:	f0 95       	com	r31
     2d8:	49 81       	ldd	r20, Y+1	; 0x01
     2da:	5a 81       	ldd	r21, Y+2	; 0x02
     2dc:	6b 81       	ldd	r22, Y+3	; 0x03
     2de:	7c 81       	ldd	r23, Y+4	; 0x04
     2e0:	18 16       	cp	r1, r24
     2e2:	84 f0       	brlt	.+32     	; 0x304 <__ashldi3+0x7c>
     2e4:	19 86       	std	Y+9, r1	; 0x09
     2e6:	1a 86       	std	Y+10, r1	; 0x0a
     2e8:	1b 86       	std	Y+11, r1	; 0x0b
     2ea:	1c 86       	std	Y+12, r1	; 0x0c
     2ec:	88 27       	eor	r24, r24
     2ee:	99 27       	eor	r25, r25
     2f0:	8e 1b       	sub	r24, r30
     2f2:	9f 0b       	sbc	r25, r31
     2f4:	04 c0       	rjmp	.+8      	; 0x2fe <__ashldi3+0x76>
     2f6:	44 0f       	add	r20, r20
     2f8:	55 1f       	adc	r21, r21
     2fa:	66 1f       	adc	r22, r22
     2fc:	77 1f       	adc	r23, r23
     2fe:	8a 95       	dec	r24
     300:	d2 f7       	brpl	.-12     	; 0x2f6 <__ashldi3+0x6e>
     302:	28 c0       	rjmp	.+80     	; 0x354 <__ashldi3+0xcc>
     304:	20 2f       	mov	r18, r16
     306:	33 27       	eor	r19, r19
     308:	27 fd       	sbrc	r18, 7
     30a:	30 95       	com	r19
     30c:	db 01       	movw	r26, r22
     30e:	ca 01       	movw	r24, r20
     310:	02 2e       	mov	r0, r18
     312:	04 c0       	rjmp	.+8      	; 0x31c <__ashldi3+0x94>
     314:	88 0f       	add	r24, r24
     316:	99 1f       	adc	r25, r25
     318:	aa 1f       	adc	r26, r26
     31a:	bb 1f       	adc	r27, r27
     31c:	0a 94       	dec	r0
     31e:	d2 f7       	brpl	.-12     	; 0x314 <__ashldi3+0x8c>
     320:	89 87       	std	Y+9, r24	; 0x09
     322:	9a 87       	std	Y+10, r25	; 0x0a
     324:	ab 87       	std	Y+11, r26	; 0x0b
     326:	bc 87       	std	Y+12, r27	; 0x0c
     328:	04 c0       	rjmp	.+8      	; 0x332 <__ashldi3+0xaa>
     32a:	76 95       	lsr	r23
     32c:	67 95       	ror	r22
     32e:	57 95       	ror	r21
     330:	47 95       	ror	r20
     332:	ea 95       	dec	r30
     334:	d2 f7       	brpl	.-12     	; 0x32a <__ashldi3+0xa2>
     336:	8d 81       	ldd	r24, Y+5	; 0x05
     338:	9e 81       	ldd	r25, Y+6	; 0x06
     33a:	af 81       	ldd	r26, Y+7	; 0x07
     33c:	b8 85       	ldd	r27, Y+8	; 0x08
     33e:	04 c0       	rjmp	.+8      	; 0x348 <__ashldi3+0xc0>
     340:	88 0f       	add	r24, r24
     342:	99 1f       	adc	r25, r25
     344:	aa 1f       	adc	r26, r26
     346:	bb 1f       	adc	r27, r27
     348:	2a 95       	dec	r18
     34a:	d2 f7       	brpl	.-12     	; 0x340 <__ashldi3+0xb8>
     34c:	48 2b       	or	r20, r24
     34e:	59 2b       	or	r21, r25
     350:	6a 2b       	or	r22, r26
     352:	7b 2b       	or	r23, r27
     354:	4d 87       	std	Y+13, r20	; 0x0d
     356:	5e 87       	std	Y+14, r21	; 0x0e
     358:	6f 87       	std	Y+15, r22	; 0x0f
     35a:	78 8b       	std	Y+16, r23	; 0x10
     35c:	29 85       	ldd	r18, Y+9	; 0x09
     35e:	3a 85       	ldd	r19, Y+10	; 0x0a
     360:	4b 85       	ldd	r20, Y+11	; 0x0b
     362:	5c 85       	ldd	r21, Y+12	; 0x0c
     364:	6d 85       	ldd	r22, Y+13	; 0x0d
     366:	7e 85       	ldd	r23, Y+14	; 0x0e
     368:	af 85       	ldd	r26, Y+15	; 0x0f
     36a:	98 89       	ldd	r25, Y+16	; 0x10
     36c:	8a 2f       	mov	r24, r26
     36e:	60 96       	adiw	r28, 0x10	; 16
     370:	0f b6       	in	r0, 0x3f	; 63
     372:	f8 94       	cli
     374:	de bf       	out	0x3e, r29	; 62
     376:	0f be       	out	0x3f, r0	; 63
     378:	cd bf       	out	0x3d, r28	; 61
     37a:	cf 91       	pop	r28
     37c:	df 91       	pop	r29
     37e:	0f 91       	pop	r16
     380:	ff 90       	pop	r15
     382:	ef 90       	pop	r14
     384:	08 95       	ret

00000386 <__fixunssfsi>:
     386:	ef 92       	push	r14
     388:	ff 92       	push	r15
     38a:	0f 93       	push	r16
     38c:	1f 93       	push	r17
     38e:	7b 01       	movw	r14, r22
     390:	8c 01       	movw	r16, r24
     392:	20 e0       	ldi	r18, 0x00	; 0
     394:	30 e0       	ldi	r19, 0x00	; 0
     396:	40 e0       	ldi	r20, 0x00	; 0
     398:	5f e4       	ldi	r21, 0x4F	; 79
     39a:	0e 94 eb 0c 	call	0x19d6	; 0x19d6 <__gesf2>
     39e:	88 23       	and	r24, r24
     3a0:	8c f0       	brlt	.+34     	; 0x3c4 <__fixunssfsi+0x3e>
     3a2:	c8 01       	movw	r24, r16
     3a4:	b7 01       	movw	r22, r14
     3a6:	20 e0       	ldi	r18, 0x00	; 0
     3a8:	30 e0       	ldi	r19, 0x00	; 0
     3aa:	40 e0       	ldi	r20, 0x00	; 0
     3ac:	5f e4       	ldi	r21, 0x4F	; 79
     3ae:	0e 94 63 0b 	call	0x16c6	; 0x16c6 <__subsf3>
     3b2:	0e 94 4b 0d 	call	0x1a96	; 0x1a96 <__fixsfsi>
     3b6:	9b 01       	movw	r18, r22
     3b8:	ac 01       	movw	r20, r24
     3ba:	20 50       	subi	r18, 0x00	; 0
     3bc:	30 40       	sbci	r19, 0x00	; 0
     3be:	40 40       	sbci	r20, 0x00	; 0
     3c0:	50 48       	sbci	r21, 0x80	; 128
     3c2:	06 c0       	rjmp	.+12     	; 0x3d0 <__fixunssfsi+0x4a>
     3c4:	c8 01       	movw	r24, r16
     3c6:	b7 01       	movw	r22, r14
     3c8:	0e 94 4b 0d 	call	0x1a96	; 0x1a96 <__fixsfsi>
     3cc:	9b 01       	movw	r18, r22
     3ce:	ac 01       	movw	r20, r24
     3d0:	b9 01       	movw	r22, r18
     3d2:	ca 01       	movw	r24, r20
     3d4:	1f 91       	pop	r17
     3d6:	0f 91       	pop	r16
     3d8:	ff 90       	pop	r15
     3da:	ef 90       	pop	r14
     3dc:	08 95       	ret

000003de <__divdi3>:
     3de:	a2 e7       	ldi	r26, 0x72	; 114
     3e0:	b0 e0       	ldi	r27, 0x00	; 0
     3e2:	e5 ef       	ldi	r30, 0xF5	; 245
     3e4:	f1 e0       	ldi	r31, 0x01	; 1
     3e6:	0c 94 1a 2a 	jmp	0x5434	; 0x5434 <__prologue_saves__>
     3ea:	98 2e       	mov	r9, r24
     3ec:	89 2e       	mov	r8, r25
     3ee:	71 2e       	mov	r7, r17
     3f0:	88 e0       	ldi	r24, 0x08	; 8
     3f2:	fe 01       	movw	r30, r28
     3f4:	31 96       	adiw	r30, 0x01	; 1
     3f6:	df 01       	movw	r26, r30
     3f8:	68 2e       	mov	r6, r24
     3fa:	1d 92       	st	X+, r1
     3fc:	6a 94       	dec	r6
     3fe:	e9 f7       	brne	.-6      	; 0x3fa <__divdi3+0x1c>
     400:	29 83       	std	Y+1, r18	; 0x01
     402:	3a 83       	std	Y+2, r19	; 0x02
     404:	4b 83       	std	Y+3, r20	; 0x03
     406:	5c 83       	std	Y+4, r21	; 0x04
     408:	6d 83       	std	Y+5, r22	; 0x05
     40a:	7e 83       	std	Y+6, r23	; 0x06
     40c:	9f 82       	std	Y+7, r9	; 0x07
     40e:	98 87       	std	Y+8, r25	; 0x08
     410:	fe 01       	movw	r30, r28
     412:	39 96       	adiw	r30, 0x09	; 9
     414:	df 01       	movw	r26, r30
     416:	1d 92       	st	X+, r1
     418:	8a 95       	dec	r24
     41a:	e9 f7       	brne	.-6      	; 0x416 <__divdi3+0x38>
     41c:	a9 86       	std	Y+9, r10	; 0x09
     41e:	ba 86       	std	Y+10, r11	; 0x0a
     420:	cb 86       	std	Y+11, r12	; 0x0b
     422:	dc 86       	std	Y+12, r13	; 0x0c
     424:	ed 86       	std	Y+13, r14	; 0x0d
     426:	fe 86       	std	Y+14, r15	; 0x0e
     428:	0f 87       	std	Y+15, r16	; 0x0f
     42a:	18 8b       	std	Y+16, r17	; 0x10
     42c:	8d 81       	ldd	r24, Y+5	; 0x05
     42e:	9e 81       	ldd	r25, Y+6	; 0x06
     430:	af 81       	ldd	r26, Y+7	; 0x07
     432:	b8 85       	ldd	r27, Y+8	; 0x08
     434:	b7 fd       	sbrc	r27, 7
     436:	07 c0       	rjmp	.+14     	; 0x446 <__divdi3+0x68>
     438:	e1 96       	adiw	r28, 0x31	; 49
     43a:	1c ae       	std	Y+60, r1	; 0x3c
     43c:	1d ae       	std	Y+61, r1	; 0x3d
     43e:	1e ae       	std	Y+62, r1	; 0x3e
     440:	1f ae       	std	Y+63, r1	; 0x3f
     442:	e1 97       	sbiw	r28, 0x31	; 49
     444:	64 c0       	rjmp	.+200    	; 0x50e <__divdi3+0x130>
     446:	21 95       	neg	r18
     448:	81 e0       	ldi	r24, 0x01	; 1
     44a:	12 16       	cp	r1, r18
     44c:	08 f0       	brcs	.+2      	; 0x450 <__divdi3+0x72>
     44e:	80 e0       	ldi	r24, 0x00	; 0
     450:	31 95       	neg	r19
     452:	91 e0       	ldi	r25, 0x01	; 1
     454:	13 16       	cp	r1, r19
     456:	08 f0       	brcs	.+2      	; 0x45a <__divdi3+0x7c>
     458:	90 e0       	ldi	r25, 0x00	; 0
     45a:	b3 2f       	mov	r27, r19
     45c:	b8 1b       	sub	r27, r24
     45e:	81 e0       	ldi	r24, 0x01	; 1
     460:	3b 17       	cp	r19, r27
     462:	08 f0       	brcs	.+2      	; 0x466 <__divdi3+0x88>
     464:	80 e0       	ldi	r24, 0x00	; 0
     466:	98 2b       	or	r25, r24
     468:	41 95       	neg	r20
     46a:	31 e0       	ldi	r19, 0x01	; 1
     46c:	14 16       	cp	r1, r20
     46e:	08 f0       	brcs	.+2      	; 0x472 <__divdi3+0x94>
     470:	30 e0       	ldi	r19, 0x00	; 0
     472:	a4 2f       	mov	r26, r20
     474:	a9 1b       	sub	r26, r25
     476:	81 e0       	ldi	r24, 0x01	; 1
     478:	4a 17       	cp	r20, r26
     47a:	08 f0       	brcs	.+2      	; 0x47e <__divdi3+0xa0>
     47c:	80 e0       	ldi	r24, 0x00	; 0
     47e:	38 2b       	or	r19, r24
     480:	51 95       	neg	r21
     482:	91 e0       	ldi	r25, 0x01	; 1
     484:	15 16       	cp	r1, r21
     486:	08 f0       	brcs	.+2      	; 0x48a <__divdi3+0xac>
     488:	90 e0       	ldi	r25, 0x00	; 0
     48a:	f5 2f       	mov	r31, r21
     48c:	f3 1b       	sub	r31, r19
     48e:	81 e0       	ldi	r24, 0x01	; 1
     490:	5f 17       	cp	r21, r31
     492:	08 f0       	brcs	.+2      	; 0x496 <__divdi3+0xb8>
     494:	80 e0       	ldi	r24, 0x00	; 0
     496:	98 2b       	or	r25, r24
     498:	61 95       	neg	r22
     49a:	31 e0       	ldi	r19, 0x01	; 1
     49c:	16 16       	cp	r1, r22
     49e:	08 f0       	brcs	.+2      	; 0x4a2 <__divdi3+0xc4>
     4a0:	30 e0       	ldi	r19, 0x00	; 0
     4a2:	e6 2f       	mov	r30, r22
     4a4:	e9 1b       	sub	r30, r25
     4a6:	81 e0       	ldi	r24, 0x01	; 1
     4a8:	6e 17       	cp	r22, r30
     4aa:	08 f0       	brcs	.+2      	; 0x4ae <__divdi3+0xd0>
     4ac:	80 e0       	ldi	r24, 0x00	; 0
     4ae:	38 2b       	or	r19, r24
     4b0:	71 95       	neg	r23
     4b2:	41 e0       	ldi	r20, 0x01	; 1
     4b4:	17 16       	cp	r1, r23
     4b6:	08 f0       	brcs	.+2      	; 0x4ba <__divdi3+0xdc>
     4b8:	40 e0       	ldi	r20, 0x00	; 0
     4ba:	57 2f       	mov	r21, r23
     4bc:	53 1b       	sub	r21, r19
     4be:	81 e0       	ldi	r24, 0x01	; 1
     4c0:	75 17       	cp	r23, r21
     4c2:	08 f0       	brcs	.+2      	; 0x4c6 <__divdi3+0xe8>
     4c4:	80 e0       	ldi	r24, 0x00	; 0
     4c6:	48 2b       	or	r20, r24
     4c8:	89 2d       	mov	r24, r9
     4ca:	81 95       	neg	r24
     4cc:	91 e0       	ldi	r25, 0x01	; 1
     4ce:	18 16       	cp	r1, r24
     4d0:	08 f0       	brcs	.+2      	; 0x4d4 <__divdi3+0xf6>
     4d2:	90 e0       	ldi	r25, 0x00	; 0
     4d4:	68 2e       	mov	r6, r24
     4d6:	64 1a       	sub	r6, r20
     4d8:	46 2d       	mov	r20, r6
     4da:	31 e0       	ldi	r19, 0x01	; 1
     4dc:	86 15       	cp	r24, r6
     4de:	08 f0       	brcs	.+2      	; 0x4e2 <__divdi3+0x104>
     4e0:	30 e0       	ldi	r19, 0x00	; 0
     4e2:	93 2b       	or	r25, r19
     4e4:	88 2d       	mov	r24, r8
     4e6:	81 95       	neg	r24
     4e8:	89 1b       	sub	r24, r25
     4ea:	29 83       	std	Y+1, r18	; 0x01
     4ec:	ba 83       	std	Y+2, r27	; 0x02
     4ee:	ab 83       	std	Y+3, r26	; 0x03
     4f0:	fc 83       	std	Y+4, r31	; 0x04
     4f2:	ed 83       	std	Y+5, r30	; 0x05
     4f4:	5e 83       	std	Y+6, r21	; 0x06
     4f6:	4f 83       	std	Y+7, r20	; 0x07
     4f8:	88 87       	std	Y+8, r24	; 0x08
     4fa:	2f ef       	ldi	r18, 0xFF	; 255
     4fc:	3f ef       	ldi	r19, 0xFF	; 255
     4fe:	4f ef       	ldi	r20, 0xFF	; 255
     500:	5f ef       	ldi	r21, 0xFF	; 255
     502:	e1 96       	adiw	r28, 0x31	; 49
     504:	2c af       	std	Y+60, r18	; 0x3c
     506:	3d af       	std	Y+61, r19	; 0x3d
     508:	4e af       	std	Y+62, r20	; 0x3e
     50a:	5f af       	std	Y+63, r21	; 0x3f
     50c:	e1 97       	sbiw	r28, 0x31	; 49
     50e:	8d 85       	ldd	r24, Y+13	; 0x0d
     510:	9e 85       	ldd	r25, Y+14	; 0x0e
     512:	af 85       	ldd	r26, Y+15	; 0x0f
     514:	b8 89       	ldd	r27, Y+16	; 0x10
     516:	b7 ff       	sbrs	r27, 7
     518:	6a c0       	rjmp	.+212    	; 0x5ee <__divdi3+0x210>
     51a:	e1 96       	adiw	r28, 0x31	; 49
     51c:	4c ad       	ldd	r20, Y+60	; 0x3c
     51e:	5d ad       	ldd	r21, Y+61	; 0x3d
     520:	6e ad       	ldd	r22, Y+62	; 0x3e
     522:	7f ad       	ldd	r23, Y+63	; 0x3f
     524:	e1 97       	sbiw	r28, 0x31	; 49
     526:	40 95       	com	r20
     528:	50 95       	com	r21
     52a:	60 95       	com	r22
     52c:	70 95       	com	r23
     52e:	e1 96       	adiw	r28, 0x31	; 49
     530:	4c af       	std	Y+60, r20	; 0x3c
     532:	5d af       	std	Y+61, r21	; 0x3d
     534:	6e af       	std	Y+62, r22	; 0x3e
     536:	7f af       	std	Y+63, r23	; 0x3f
     538:	e1 97       	sbiw	r28, 0x31	; 49
     53a:	a1 94       	neg	r10
     53c:	81 e0       	ldi	r24, 0x01	; 1
     53e:	1a 14       	cp	r1, r10
     540:	08 f0       	brcs	.+2      	; 0x544 <__divdi3+0x166>
     542:	80 e0       	ldi	r24, 0x00	; 0
     544:	b1 94       	neg	r11
     546:	91 e0       	ldi	r25, 0x01	; 1
     548:	1b 14       	cp	r1, r11
     54a:	08 f0       	brcs	.+2      	; 0x54e <__divdi3+0x170>
     54c:	90 e0       	ldi	r25, 0x00	; 0
     54e:	6b 2d       	mov	r22, r11
     550:	68 1b       	sub	r22, r24
     552:	81 e0       	ldi	r24, 0x01	; 1
     554:	b6 16       	cp	r11, r22
     556:	08 f0       	brcs	.+2      	; 0x55a <__divdi3+0x17c>
     558:	80 e0       	ldi	r24, 0x00	; 0
     55a:	98 2b       	or	r25, r24
     55c:	c1 94       	neg	r12
     55e:	21 e0       	ldi	r18, 0x01	; 1
     560:	1c 14       	cp	r1, r12
     562:	08 f0       	brcs	.+2      	; 0x566 <__divdi3+0x188>
     564:	20 e0       	ldi	r18, 0x00	; 0
     566:	5c 2d       	mov	r21, r12
     568:	59 1b       	sub	r21, r25
     56a:	81 e0       	ldi	r24, 0x01	; 1
     56c:	c5 16       	cp	r12, r21
     56e:	08 f0       	brcs	.+2      	; 0x572 <__divdi3+0x194>
     570:	80 e0       	ldi	r24, 0x00	; 0
     572:	28 2b       	or	r18, r24
     574:	d1 94       	neg	r13
     576:	91 e0       	ldi	r25, 0x01	; 1
     578:	1d 14       	cp	r1, r13
     57a:	08 f0       	brcs	.+2      	; 0x57e <__divdi3+0x1a0>
     57c:	90 e0       	ldi	r25, 0x00	; 0
     57e:	4d 2d       	mov	r20, r13
     580:	42 1b       	sub	r20, r18
     582:	81 e0       	ldi	r24, 0x01	; 1
     584:	d4 16       	cp	r13, r20
     586:	08 f0       	brcs	.+2      	; 0x58a <__divdi3+0x1ac>
     588:	80 e0       	ldi	r24, 0x00	; 0
     58a:	98 2b       	or	r25, r24
     58c:	e1 94       	neg	r14
     58e:	21 e0       	ldi	r18, 0x01	; 1
     590:	1e 14       	cp	r1, r14
     592:	08 f0       	brcs	.+2      	; 0x596 <__divdi3+0x1b8>
     594:	20 e0       	ldi	r18, 0x00	; 0
     596:	3e 2d       	mov	r19, r14
     598:	39 1b       	sub	r19, r25
     59a:	81 e0       	ldi	r24, 0x01	; 1
     59c:	e3 16       	cp	r14, r19
     59e:	08 f0       	brcs	.+2      	; 0x5a2 <__divdi3+0x1c4>
     5a0:	80 e0       	ldi	r24, 0x00	; 0
     5a2:	28 2b       	or	r18, r24
     5a4:	f1 94       	neg	r15
     5a6:	91 e0       	ldi	r25, 0x01	; 1
     5a8:	1f 14       	cp	r1, r15
     5aa:	08 f0       	brcs	.+2      	; 0x5ae <__divdi3+0x1d0>
     5ac:	90 e0       	ldi	r25, 0x00	; 0
     5ae:	7f 2d       	mov	r23, r15
     5b0:	72 1b       	sub	r23, r18
     5b2:	27 2f       	mov	r18, r23
     5b4:	81 e0       	ldi	r24, 0x01	; 1
     5b6:	f7 16       	cp	r15, r23
     5b8:	08 f0       	brcs	.+2      	; 0x5bc <__divdi3+0x1de>
     5ba:	80 e0       	ldi	r24, 0x00	; 0
     5bc:	98 2b       	or	r25, r24
     5be:	01 95       	neg	r16
     5c0:	11 e0       	ldi	r17, 0x01	; 1
     5c2:	10 16       	cp	r1, r16
     5c4:	08 f0       	brcs	.+2      	; 0x5c8 <__divdi3+0x1ea>
     5c6:	10 e0       	ldi	r17, 0x00	; 0
     5c8:	80 2f       	mov	r24, r16
     5ca:	89 1b       	sub	r24, r25
     5cc:	98 2f       	mov	r25, r24
     5ce:	81 e0       	ldi	r24, 0x01	; 1
     5d0:	09 17       	cp	r16, r25
     5d2:	08 f0       	brcs	.+2      	; 0x5d6 <__divdi3+0x1f8>
     5d4:	80 e0       	ldi	r24, 0x00	; 0
     5d6:	18 2b       	or	r17, r24
     5d8:	87 2d       	mov	r24, r7
     5da:	81 95       	neg	r24
     5dc:	81 1b       	sub	r24, r17
     5de:	a9 86       	std	Y+9, r10	; 0x09
     5e0:	6a 87       	std	Y+10, r22	; 0x0a
     5e2:	5b 87       	std	Y+11, r21	; 0x0b
     5e4:	4c 87       	std	Y+12, r20	; 0x0c
     5e6:	3d 87       	std	Y+13, r19	; 0x0d
     5e8:	2e 87       	std	Y+14, r18	; 0x0e
     5ea:	9f 87       	std	Y+15, r25	; 0x0f
     5ec:	88 8b       	std	Y+16, r24	; 0x10
     5ee:	99 81       	ldd	r25, Y+1	; 0x01
     5f0:	2a 81       	ldd	r18, Y+2	; 0x02
     5f2:	3b 81       	ldd	r19, Y+3	; 0x03
     5f4:	4c 81       	ldd	r20, Y+4	; 0x04
     5f6:	5d 81       	ldd	r21, Y+5	; 0x05
     5f8:	6e 81       	ldd	r22, Y+6	; 0x06
     5fa:	7f 81       	ldd	r23, Y+7	; 0x07
     5fc:	a8 85       	ldd	r26, Y+8	; 0x08
     5fe:	b9 85       	ldd	r27, Y+9	; 0x09
     600:	1a 85       	ldd	r17, Y+10	; 0x0a
     602:	0b 85       	ldd	r16, Y+11	; 0x0b
     604:	fc 84       	ldd	r15, Y+12	; 0x0c
     606:	ed 84       	ldd	r14, Y+13	; 0x0d
     608:	de 84       	ldd	r13, Y+14	; 0x0e
     60a:	cf 84       	ldd	r12, Y+15	; 0x0f
     60c:	b8 88       	ldd	r11, Y+16	; 0x10
     60e:	88 e0       	ldi	r24, 0x08	; 8
     610:	e1 e1       	ldi	r30, 0x11	; 17
     612:	8e 2e       	mov	r8, r30
     614:	91 2c       	mov	r9, r1
     616:	8c 0e       	add	r8, r28
     618:	9d 1e       	adc	r9, r29
     61a:	f4 01       	movw	r30, r8
     61c:	68 2e       	mov	r6, r24
     61e:	11 92       	st	Z+, r1
     620:	6a 94       	dec	r6
     622:	e9 f7       	brne	.-6      	; 0x61e <__divdi3+0x240>
     624:	99 8b       	std	Y+17, r25	; 0x11
     626:	2a 8b       	std	Y+18, r18	; 0x12
     628:	3b 8b       	std	Y+19, r19	; 0x13
     62a:	4c 8b       	std	Y+20, r20	; 0x14
     62c:	5d 8b       	std	Y+21, r21	; 0x15
     62e:	6e 8b       	std	Y+22, r22	; 0x16
     630:	7f 8b       	std	Y+23, r23	; 0x17
     632:	a8 8f       	std	Y+24, r26	; 0x18
     634:	9e 01       	movw	r18, r28
     636:	27 5e       	subi	r18, 0xE7	; 231
     638:	3f 4f       	sbci	r19, 0xFF	; 255
     63a:	f9 01       	movw	r30, r18
     63c:	11 92       	st	Z+, r1
     63e:	8a 95       	dec	r24
     640:	e9 f7       	brne	.-6      	; 0x63c <__divdi3+0x25e>
     642:	b9 8f       	std	Y+25, r27	; 0x19
     644:	1a 8f       	std	Y+26, r17	; 0x1a
     646:	0b 8f       	std	Y+27, r16	; 0x1b
     648:	fc 8e       	std	Y+28, r15	; 0x1c
     64a:	ed 8e       	std	Y+29, r14	; 0x1d
     64c:	de 8e       	std	Y+30, r13	; 0x1e
     64e:	cf 8e       	std	Y+31, r12	; 0x1f
     650:	b8 a2       	std	Y+32, r11	; 0x20
     652:	29 8c       	ldd	r2, Y+25	; 0x19
     654:	3a 8c       	ldd	r3, Y+26	; 0x1a
     656:	4b 8c       	ldd	r4, Y+27	; 0x1b
     658:	5c 8c       	ldd	r5, Y+28	; 0x1c
     65a:	ed 8c       	ldd	r14, Y+29	; 0x1d
     65c:	fe 8c       	ldd	r15, Y+30	; 0x1e
     65e:	0f 8d       	ldd	r16, Y+31	; 0x1f
     660:	18 a1       	ldd	r17, Y+32	; 0x20
     662:	69 88       	ldd	r6, Y+17	; 0x11
     664:	7a 88       	ldd	r7, Y+18	; 0x12
     666:	8b 88       	ldd	r8, Y+19	; 0x13
     668:	9c 88       	ldd	r9, Y+20	; 0x14
     66a:	21 96       	adiw	r28, 0x01	; 1
     66c:	6c ae       	std	Y+60, r6	; 0x3c
     66e:	7d ae       	std	Y+61, r7	; 0x3d
     670:	8e ae       	std	Y+62, r8	; 0x3e
     672:	9f ae       	std	Y+63, r9	; 0x3f
     674:	21 97       	sbiw	r28, 0x01	; 1
     676:	6d 88       	ldd	r6, Y+21	; 0x15
     678:	7e 88       	ldd	r7, Y+22	; 0x16
     67a:	8f 88       	ldd	r8, Y+23	; 0x17
     67c:	98 8c       	ldd	r9, Y+24	; 0x18
     67e:	e1 14       	cp	r14, r1
     680:	f1 04       	cpc	r15, r1
     682:	01 05       	cpc	r16, r1
     684:	11 05       	cpc	r17, r1
     686:	09 f0       	breq	.+2      	; 0x68a <__divdi3+0x2ac>
     688:	d9 c3       	rjmp	.+1970   	; 0xe3c <__stack+0x5dd>
     68a:	62 14       	cp	r6, r2
     68c:	73 04       	cpc	r7, r3
     68e:	84 04       	cpc	r8, r4
     690:	95 04       	cpc	r9, r5
     692:	08 f0       	brcs	.+2      	; 0x696 <__divdi3+0x2b8>
     694:	57 c1       	rjmp	.+686    	; 0x944 <__stack+0xe5>
     696:	00 e0       	ldi	r16, 0x00	; 0
     698:	20 16       	cp	r2, r16
     69a:	00 e0       	ldi	r16, 0x00	; 0
     69c:	30 06       	cpc	r3, r16
     69e:	01 e0       	ldi	r16, 0x01	; 1
     6a0:	40 06       	cpc	r4, r16
     6a2:	00 e0       	ldi	r16, 0x00	; 0
     6a4:	50 06       	cpc	r5, r16
     6a6:	88 f4       	brcc	.+34     	; 0x6ca <__divdi3+0x2ec>
     6a8:	1f ef       	ldi	r17, 0xFF	; 255
     6aa:	21 16       	cp	r2, r17
     6ac:	31 04       	cpc	r3, r1
     6ae:	41 04       	cpc	r4, r1
     6b0:	51 04       	cpc	r5, r1
     6b2:	39 f0       	breq	.+14     	; 0x6c2 <__divdi3+0x2e4>
     6b4:	30 f0       	brcs	.+12     	; 0x6c2 <__divdi3+0x2e4>
     6b6:	48 e0       	ldi	r20, 0x08	; 8
     6b8:	e4 2e       	mov	r14, r20
     6ba:	f1 2c       	mov	r15, r1
     6bc:	01 2d       	mov	r16, r1
     6be:	11 2d       	mov	r17, r1
     6c0:	18 c0       	rjmp	.+48     	; 0x6f2 <__divdi3+0x314>
     6c2:	ee 24       	eor	r14, r14
     6c4:	ff 24       	eor	r15, r15
     6c6:	87 01       	movw	r16, r14
     6c8:	14 c0       	rjmp	.+40     	; 0x6f2 <__divdi3+0x314>
     6ca:	20 e0       	ldi	r18, 0x00	; 0
     6cc:	22 16       	cp	r2, r18
     6ce:	20 e0       	ldi	r18, 0x00	; 0
     6d0:	32 06       	cpc	r3, r18
     6d2:	20 e0       	ldi	r18, 0x00	; 0
     6d4:	42 06       	cpc	r4, r18
     6d6:	21 e0       	ldi	r18, 0x01	; 1
     6d8:	52 06       	cpc	r5, r18
     6da:	30 f0       	brcs	.+12     	; 0x6e8 <__divdi3+0x30a>
     6dc:	38 e1       	ldi	r19, 0x18	; 24
     6de:	e3 2e       	mov	r14, r19
     6e0:	f1 2c       	mov	r15, r1
     6e2:	01 2d       	mov	r16, r1
     6e4:	11 2d       	mov	r17, r1
     6e6:	05 c0       	rjmp	.+10     	; 0x6f2 <__divdi3+0x314>
     6e8:	20 e1       	ldi	r18, 0x10	; 16
     6ea:	e2 2e       	mov	r14, r18
     6ec:	f1 2c       	mov	r15, r1
     6ee:	01 2d       	mov	r16, r1
     6f0:	11 2d       	mov	r17, r1
     6f2:	d2 01       	movw	r26, r4
     6f4:	c1 01       	movw	r24, r2
     6f6:	0e 2c       	mov	r0, r14
     6f8:	04 c0       	rjmp	.+8      	; 0x702 <__divdi3+0x324>
     6fa:	b6 95       	lsr	r27
     6fc:	a7 95       	ror	r26
     6fe:	97 95       	ror	r25
     700:	87 95       	ror	r24
     702:	0a 94       	dec	r0
     704:	d2 f7       	brpl	.-12     	; 0x6fa <__divdi3+0x31c>
     706:	8a 54       	subi	r24, 0x4A	; 74
     708:	9f 4f       	sbci	r25, 0xFF	; 255
     70a:	dc 01       	movw	r26, r24
     70c:	2c 91       	ld	r18, X
     70e:	80 e2       	ldi	r24, 0x20	; 32
     710:	90 e0       	ldi	r25, 0x00	; 0
     712:	a0 e0       	ldi	r26, 0x00	; 0
     714:	b0 e0       	ldi	r27, 0x00	; 0
     716:	8e 19       	sub	r24, r14
     718:	9f 09       	sbc	r25, r15
     71a:	a0 0b       	sbc	r26, r16
     71c:	b1 0b       	sbc	r27, r17
     71e:	7c 01       	movw	r14, r24
     720:	8d 01       	movw	r16, r26
     722:	e2 1a       	sub	r14, r18
     724:	f1 08       	sbc	r15, r1
     726:	01 09       	sbc	r16, r1
     728:	11 09       	sbc	r17, r1
     72a:	e1 14       	cp	r14, r1
     72c:	f1 04       	cpc	r15, r1
     72e:	01 05       	cpc	r16, r1
     730:	11 05       	cpc	r17, r1
     732:	d1 f1       	breq	.+116    	; 0x7a8 <__divdi3+0x3ca>
     734:	0e 2c       	mov	r0, r14
     736:	04 c0       	rjmp	.+8      	; 0x740 <__divdi3+0x362>
     738:	22 0c       	add	r2, r2
     73a:	33 1c       	adc	r3, r3
     73c:	44 1c       	adc	r4, r4
     73e:	55 1c       	adc	r5, r5
     740:	0a 94       	dec	r0
     742:	d2 f7       	brpl	.-12     	; 0x738 <__divdi3+0x35a>
     744:	a4 01       	movw	r20, r8
     746:	93 01       	movw	r18, r6
     748:	0e 2c       	mov	r0, r14
     74a:	04 c0       	rjmp	.+8      	; 0x754 <__divdi3+0x376>
     74c:	22 0f       	add	r18, r18
     74e:	33 1f       	adc	r19, r19
     750:	44 1f       	adc	r20, r20
     752:	55 1f       	adc	r21, r21
     754:	0a 94       	dec	r0
     756:	d2 f7       	brpl	.-12     	; 0x74c <__divdi3+0x36e>
     758:	80 e2       	ldi	r24, 0x20	; 32
     75a:	90 e0       	ldi	r25, 0x00	; 0
     75c:	8e 19       	sub	r24, r14
     75e:	9f 09       	sbc	r25, r15
     760:	21 96       	adiw	r28, 0x01	; 1
     762:	6c ac       	ldd	r6, Y+60	; 0x3c
     764:	7d ac       	ldd	r7, Y+61	; 0x3d
     766:	8e ac       	ldd	r8, Y+62	; 0x3e
     768:	9f ac       	ldd	r9, Y+63	; 0x3f
     76a:	21 97       	sbiw	r28, 0x01	; 1
     76c:	04 c0       	rjmp	.+8      	; 0x776 <__divdi3+0x398>
     76e:	96 94       	lsr	r9
     770:	87 94       	ror	r8
     772:	77 94       	ror	r7
     774:	67 94       	ror	r6
     776:	8a 95       	dec	r24
     778:	d2 f7       	brpl	.-12     	; 0x76e <__divdi3+0x390>
     77a:	62 2a       	or	r6, r18
     77c:	73 2a       	or	r7, r19
     77e:	84 2a       	or	r8, r20
     780:	95 2a       	or	r9, r21
     782:	21 96       	adiw	r28, 0x01	; 1
     784:	ac ac       	ldd	r10, Y+60	; 0x3c
     786:	bd ac       	ldd	r11, Y+61	; 0x3d
     788:	ce ac       	ldd	r12, Y+62	; 0x3e
     78a:	df ac       	ldd	r13, Y+63	; 0x3f
     78c:	21 97       	sbiw	r28, 0x01	; 1
     78e:	04 c0       	rjmp	.+8      	; 0x798 <__divdi3+0x3ba>
     790:	aa 0c       	add	r10, r10
     792:	bb 1c       	adc	r11, r11
     794:	cc 1c       	adc	r12, r12
     796:	dd 1c       	adc	r13, r13
     798:	ea 94       	dec	r14
     79a:	d2 f7       	brpl	.-12     	; 0x790 <__divdi3+0x3b2>
     79c:	21 96       	adiw	r28, 0x01	; 1
     79e:	ac ae       	std	Y+60, r10	; 0x3c
     7a0:	bd ae       	std	Y+61, r11	; 0x3d
     7a2:	ce ae       	std	Y+62, r12	; 0x3e
     7a4:	df ae       	std	Y+63, r13	; 0x3f
     7a6:	21 97       	sbiw	r28, 0x01	; 1
     7a8:	62 01       	movw	r12, r4
     7aa:	ee 24       	eor	r14, r14
     7ac:	ff 24       	eor	r15, r15
     7ae:	29 96       	adiw	r28, 0x09	; 9
     7b0:	cc ae       	std	Y+60, r12	; 0x3c
     7b2:	dd ae       	std	Y+61, r13	; 0x3d
     7b4:	ee ae       	std	Y+62, r14	; 0x3e
     7b6:	ff ae       	std	Y+63, r15	; 0x3f
     7b8:	29 97       	sbiw	r28, 0x09	; 9
     7ba:	92 01       	movw	r18, r4
     7bc:	81 01       	movw	r16, r2
     7be:	20 70       	andi	r18, 0x00	; 0
     7c0:	30 70       	andi	r19, 0x00	; 0
     7c2:	2d 96       	adiw	r28, 0x0d	; 13
     7c4:	0c af       	std	Y+60, r16	; 0x3c
     7c6:	1d af       	std	Y+61, r17	; 0x3d
     7c8:	2e af       	std	Y+62, r18	; 0x3e
     7ca:	3f af       	std	Y+63, r19	; 0x3f
     7cc:	2d 97       	sbiw	r28, 0x0d	; 13
     7ce:	c4 01       	movw	r24, r8
     7d0:	b3 01       	movw	r22, r6
     7d2:	a7 01       	movw	r20, r14
     7d4:	96 01       	movw	r18, r12
     7d6:	0e 94 f8 29 	call	0x53f0	; 0x53f0 <__udivmodsi4>
     7da:	7b 01       	movw	r14, r22
     7dc:	8c 01       	movw	r16, r24
     7de:	c4 01       	movw	r24, r8
     7e0:	b3 01       	movw	r22, r6
     7e2:	29 96       	adiw	r28, 0x09	; 9
     7e4:	2c ad       	ldd	r18, Y+60	; 0x3c
     7e6:	3d ad       	ldd	r19, Y+61	; 0x3d
     7e8:	4e ad       	ldd	r20, Y+62	; 0x3e
     7ea:	5f ad       	ldd	r21, Y+63	; 0x3f
     7ec:	29 97       	sbiw	r28, 0x09	; 9
     7ee:	0e 94 f8 29 	call	0x53f0	; 0x53f0 <__udivmodsi4>
     7f2:	c9 01       	movw	r24, r18
     7f4:	da 01       	movw	r26, r20
     7f6:	3c 01       	movw	r6, r24
     7f8:	4d 01       	movw	r8, r26
     7fa:	c4 01       	movw	r24, r8
     7fc:	b3 01       	movw	r22, r6
     7fe:	2d 96       	adiw	r28, 0x0d	; 13
     800:	2c ad       	ldd	r18, Y+60	; 0x3c
     802:	3d ad       	ldd	r19, Y+61	; 0x3d
     804:	4e ad       	ldd	r20, Y+62	; 0x3e
     806:	5f ad       	ldd	r21, Y+63	; 0x3f
     808:	2d 97       	sbiw	r28, 0x0d	; 13
     80a:	0e 94 d9 29 	call	0x53b2	; 0x53b2 <__mulsi3>
     80e:	9b 01       	movw	r18, r22
     810:	ac 01       	movw	r20, r24
     812:	87 01       	movw	r16, r14
     814:	ff 24       	eor	r15, r15
     816:	ee 24       	eor	r14, r14
     818:	21 96       	adiw	r28, 0x01	; 1
     81a:	ac ac       	ldd	r10, Y+60	; 0x3c
     81c:	bd ac       	ldd	r11, Y+61	; 0x3d
     81e:	ce ac       	ldd	r12, Y+62	; 0x3e
     820:	df ac       	ldd	r13, Y+63	; 0x3f
     822:	21 97       	sbiw	r28, 0x01	; 1
     824:	c6 01       	movw	r24, r12
     826:	aa 27       	eor	r26, r26
     828:	bb 27       	eor	r27, r27
     82a:	57 01       	movw	r10, r14
     82c:	68 01       	movw	r12, r16
     82e:	a8 2a       	or	r10, r24
     830:	b9 2a       	or	r11, r25
     832:	ca 2a       	or	r12, r26
     834:	db 2a       	or	r13, r27
     836:	a2 16       	cp	r10, r18
     838:	b3 06       	cpc	r11, r19
     83a:	c4 06       	cpc	r12, r20
     83c:	d5 06       	cpc	r13, r21
     83e:	e0 f4       	brcc	.+56     	; 0x878 <__stack+0x19>
     840:	08 94       	sec
     842:	61 08       	sbc	r6, r1
     844:	71 08       	sbc	r7, r1
     846:	81 08       	sbc	r8, r1
     848:	91 08       	sbc	r9, r1
     84a:	a2 0c       	add	r10, r2
     84c:	b3 1c       	adc	r11, r3
     84e:	c4 1c       	adc	r12, r4
     850:	d5 1c       	adc	r13, r5
     852:	a2 14       	cp	r10, r2
     854:	b3 04       	cpc	r11, r3
     856:	c4 04       	cpc	r12, r4
     858:	d5 04       	cpc	r13, r5
     85a:	70 f0       	brcs	.+28     	; 0x878 <__stack+0x19>
     85c:	a2 16       	cp	r10, r18
     85e:	b3 06       	cpc	r11, r19
     860:	c4 06       	cpc	r12, r20
     862:	d5 06       	cpc	r13, r21
     864:	48 f4       	brcc	.+18     	; 0x878 <__stack+0x19>
     866:	08 94       	sec
     868:	61 08       	sbc	r6, r1
     86a:	71 08       	sbc	r7, r1
     86c:	81 08       	sbc	r8, r1
     86e:	91 08       	sbc	r9, r1
     870:	a2 0c       	add	r10, r2
     872:	b3 1c       	adc	r11, r3
     874:	c4 1c       	adc	r12, r4
     876:	d5 1c       	adc	r13, r5
     878:	a2 1a       	sub	r10, r18
     87a:	b3 0a       	sbc	r11, r19
     87c:	c4 0a       	sbc	r12, r20
     87e:	d5 0a       	sbc	r13, r21
     880:	c6 01       	movw	r24, r12
     882:	b5 01       	movw	r22, r10
     884:	29 96       	adiw	r28, 0x09	; 9
     886:	2c ad       	ldd	r18, Y+60	; 0x3c
     888:	3d ad       	ldd	r19, Y+61	; 0x3d
     88a:	4e ad       	ldd	r20, Y+62	; 0x3e
     88c:	5f ad       	ldd	r21, Y+63	; 0x3f
     88e:	29 97       	sbiw	r28, 0x09	; 9
     890:	0e 94 f8 29 	call	0x53f0	; 0x53f0 <__udivmodsi4>
     894:	7b 01       	movw	r14, r22
     896:	8c 01       	movw	r16, r24
     898:	c6 01       	movw	r24, r12
     89a:	b5 01       	movw	r22, r10
     89c:	29 96       	adiw	r28, 0x09	; 9
     89e:	2c ad       	ldd	r18, Y+60	; 0x3c
     8a0:	3d ad       	ldd	r19, Y+61	; 0x3d
     8a2:	4e ad       	ldd	r20, Y+62	; 0x3e
     8a4:	5f ad       	ldd	r21, Y+63	; 0x3f
     8a6:	29 97       	sbiw	r28, 0x09	; 9
     8a8:	0e 94 f8 29 	call	0x53f0	; 0x53f0 <__udivmodsi4>
     8ac:	c9 01       	movw	r24, r18
     8ae:	da 01       	movw	r26, r20
     8b0:	5c 01       	movw	r10, r24
     8b2:	6d 01       	movw	r12, r26
     8b4:	c6 01       	movw	r24, r12
     8b6:	b5 01       	movw	r22, r10
     8b8:	2d 96       	adiw	r28, 0x0d	; 13
     8ba:	2c ad       	ldd	r18, Y+60	; 0x3c
     8bc:	3d ad       	ldd	r19, Y+61	; 0x3d
     8be:	4e ad       	ldd	r20, Y+62	; 0x3e
     8c0:	5f ad       	ldd	r21, Y+63	; 0x3f
     8c2:	2d 97       	sbiw	r28, 0x0d	; 13
     8c4:	0e 94 d9 29 	call	0x53b2	; 0x53b2 <__mulsi3>
     8c8:	9b 01       	movw	r18, r22
     8ca:	ac 01       	movw	r20, r24
     8cc:	87 01       	movw	r16, r14
     8ce:	ff 24       	eor	r15, r15
     8d0:	ee 24       	eor	r14, r14
     8d2:	21 96       	adiw	r28, 0x01	; 1
     8d4:	8c ad       	ldd	r24, Y+60	; 0x3c
     8d6:	9d ad       	ldd	r25, Y+61	; 0x3d
     8d8:	ae ad       	ldd	r26, Y+62	; 0x3e
     8da:	bf ad       	ldd	r27, Y+63	; 0x3f
     8dc:	21 97       	sbiw	r28, 0x01	; 1
     8de:	a0 70       	andi	r26, 0x00	; 0
     8e0:	b0 70       	andi	r27, 0x00	; 0
     8e2:	e8 2a       	or	r14, r24
     8e4:	f9 2a       	or	r15, r25
     8e6:	0a 2b       	or	r16, r26
     8e8:	1b 2b       	or	r17, r27
     8ea:	e2 16       	cp	r14, r18
     8ec:	f3 06       	cpc	r15, r19
     8ee:	04 07       	cpc	r16, r20
     8f0:	15 07       	cpc	r17, r21
     8f2:	c0 f4       	brcc	.+48     	; 0x924 <__stack+0xc5>
     8f4:	08 94       	sec
     8f6:	a1 08       	sbc	r10, r1
     8f8:	b1 08       	sbc	r11, r1
     8fa:	c1 08       	sbc	r12, r1
     8fc:	d1 08       	sbc	r13, r1
     8fe:	e2 0c       	add	r14, r2
     900:	f3 1c       	adc	r15, r3
     902:	04 1d       	adc	r16, r4
     904:	15 1d       	adc	r17, r5
     906:	e2 14       	cp	r14, r2
     908:	f3 04       	cpc	r15, r3
     90a:	04 05       	cpc	r16, r4
     90c:	15 05       	cpc	r17, r5
     90e:	50 f0       	brcs	.+20     	; 0x924 <__stack+0xc5>
     910:	e2 16       	cp	r14, r18
     912:	f3 06       	cpc	r15, r19
     914:	04 07       	cpc	r16, r20
     916:	15 07       	cpc	r17, r21
     918:	28 f4       	brcc	.+10     	; 0x924 <__stack+0xc5>
     91a:	08 94       	sec
     91c:	a1 08       	sbc	r10, r1
     91e:	b1 08       	sbc	r11, r1
     920:	c1 08       	sbc	r12, r1
     922:	d1 08       	sbc	r13, r1
     924:	d3 01       	movw	r26, r6
     926:	99 27       	eor	r25, r25
     928:	88 27       	eor	r24, r24
     92a:	86 01       	movw	r16, r12
     92c:	75 01       	movw	r14, r10
     92e:	e8 2a       	or	r14, r24
     930:	f9 2a       	or	r15, r25
     932:	0a 2b       	or	r16, r26
     934:	1b 2b       	or	r17, r27
     936:	25 96       	adiw	r28, 0x05	; 5
     938:	ec ae       	std	Y+60, r14	; 0x3c
     93a:	fd ae       	std	Y+61, r15	; 0x3d
     93c:	0e af       	std	Y+62, r16	; 0x3e
     93e:	1f af       	std	Y+63, r17	; 0x3f
     940:	25 97       	sbiw	r28, 0x05	; 5
     942:	eb c4       	rjmp	.+2518   	; 0x131a <__stack+0xabb>
     944:	21 14       	cp	r2, r1
     946:	31 04       	cpc	r3, r1
     948:	41 04       	cpc	r4, r1
     94a:	51 04       	cpc	r5, r1
     94c:	71 f4       	brne	.+28     	; 0x96a <__stack+0x10b>
     94e:	61 e0       	ldi	r22, 0x01	; 1
     950:	70 e0       	ldi	r23, 0x00	; 0
     952:	80 e0       	ldi	r24, 0x00	; 0
     954:	90 e0       	ldi	r25, 0x00	; 0
     956:	20 e0       	ldi	r18, 0x00	; 0
     958:	30 e0       	ldi	r19, 0x00	; 0
     95a:	40 e0       	ldi	r20, 0x00	; 0
     95c:	50 e0       	ldi	r21, 0x00	; 0
     95e:	0e 94 f8 29 	call	0x53f0	; 0x53f0 <__udivmodsi4>
     962:	c9 01       	movw	r24, r18
     964:	da 01       	movw	r26, r20
     966:	1c 01       	movw	r2, r24
     968:	2d 01       	movw	r4, r26
     96a:	00 e0       	ldi	r16, 0x00	; 0
     96c:	20 16       	cp	r2, r16
     96e:	00 e0       	ldi	r16, 0x00	; 0
     970:	30 06       	cpc	r3, r16
     972:	01 e0       	ldi	r16, 0x01	; 1
     974:	40 06       	cpc	r4, r16
     976:	00 e0       	ldi	r16, 0x00	; 0
     978:	50 06       	cpc	r5, r16
     97a:	88 f4       	brcc	.+34     	; 0x99e <__stack+0x13f>
     97c:	1f ef       	ldi	r17, 0xFF	; 255
     97e:	21 16       	cp	r2, r17
     980:	31 04       	cpc	r3, r1
     982:	41 04       	cpc	r4, r1
     984:	51 04       	cpc	r5, r1
     986:	31 f0       	breq	.+12     	; 0x994 <__stack+0x135>
     988:	28 f0       	brcs	.+10     	; 0x994 <__stack+0x135>
     98a:	48 e0       	ldi	r20, 0x08	; 8
     98c:	50 e0       	ldi	r21, 0x00	; 0
     98e:	60 e0       	ldi	r22, 0x00	; 0
     990:	70 e0       	ldi	r23, 0x00	; 0
     992:	17 c0       	rjmp	.+46     	; 0x9c2 <__stack+0x163>
     994:	40 e0       	ldi	r20, 0x00	; 0
     996:	50 e0       	ldi	r21, 0x00	; 0
     998:	60 e0       	ldi	r22, 0x00	; 0
     99a:	70 e0       	ldi	r23, 0x00	; 0
     99c:	12 c0       	rjmp	.+36     	; 0x9c2 <__stack+0x163>
     99e:	20 e0       	ldi	r18, 0x00	; 0
     9a0:	22 16       	cp	r2, r18
     9a2:	20 e0       	ldi	r18, 0x00	; 0
     9a4:	32 06       	cpc	r3, r18
     9a6:	20 e0       	ldi	r18, 0x00	; 0
     9a8:	42 06       	cpc	r4, r18
     9aa:	21 e0       	ldi	r18, 0x01	; 1
     9ac:	52 06       	cpc	r5, r18
     9ae:	28 f0       	brcs	.+10     	; 0x9ba <__stack+0x15b>
     9b0:	48 e1       	ldi	r20, 0x18	; 24
     9b2:	50 e0       	ldi	r21, 0x00	; 0
     9b4:	60 e0       	ldi	r22, 0x00	; 0
     9b6:	70 e0       	ldi	r23, 0x00	; 0
     9b8:	04 c0       	rjmp	.+8      	; 0x9c2 <__stack+0x163>
     9ba:	40 e1       	ldi	r20, 0x10	; 16
     9bc:	50 e0       	ldi	r21, 0x00	; 0
     9be:	60 e0       	ldi	r22, 0x00	; 0
     9c0:	70 e0       	ldi	r23, 0x00	; 0
     9c2:	d2 01       	movw	r26, r4
     9c4:	c1 01       	movw	r24, r2
     9c6:	04 2e       	mov	r0, r20
     9c8:	04 c0       	rjmp	.+8      	; 0x9d2 <__stack+0x173>
     9ca:	b6 95       	lsr	r27
     9cc:	a7 95       	ror	r26
     9ce:	97 95       	ror	r25
     9d0:	87 95       	ror	r24
     9d2:	0a 94       	dec	r0
     9d4:	d2 f7       	brpl	.-12     	; 0x9ca <__stack+0x16b>
     9d6:	8a 54       	subi	r24, 0x4A	; 74
     9d8:	9f 4f       	sbci	r25, 0xFF	; 255
     9da:	dc 01       	movw	r26, r24
     9dc:	2c 91       	ld	r18, X
     9de:	e0 e2       	ldi	r30, 0x20	; 32
     9e0:	ee 2e       	mov	r14, r30
     9e2:	f1 2c       	mov	r15, r1
     9e4:	01 2d       	mov	r16, r1
     9e6:	11 2d       	mov	r17, r1
     9e8:	d8 01       	movw	r26, r16
     9ea:	c7 01       	movw	r24, r14
     9ec:	84 1b       	sub	r24, r20
     9ee:	95 0b       	sbc	r25, r21
     9f0:	a6 0b       	sbc	r26, r22
     9f2:	b7 0b       	sbc	r27, r23
     9f4:	82 1b       	sub	r24, r18
     9f6:	91 09       	sbc	r25, r1
     9f8:	a1 09       	sbc	r26, r1
     9fa:	b1 09       	sbc	r27, r1
     9fc:	00 97       	sbiw	r24, 0x00	; 0
     9fe:	a1 05       	cpc	r26, r1
     a00:	b1 05       	cpc	r27, r1
     a02:	61 f4       	brne	.+24     	; 0xa1c <__stack+0x1bd>
     a04:	64 01       	movw	r12, r8
     a06:	53 01       	movw	r10, r6
     a08:	a2 18       	sub	r10, r2
     a0a:	b3 08       	sbc	r11, r3
     a0c:	c4 08       	sbc	r12, r4
     a0e:	d5 08       	sbc	r13, r5
     a10:	31 e0       	ldi	r19, 0x01	; 1
     a12:	63 2e       	mov	r6, r19
     a14:	71 2c       	mov	r7, r1
     a16:	81 2c       	mov	r8, r1
     a18:	91 2c       	mov	r9, r1
     a1a:	24 c1       	rjmp	.+584    	; 0xc64 <__stack+0x405>
     a1c:	e3 96       	adiw	r28, 0x33	; 51
     a1e:	8f af       	std	Y+63, r24	; 0x3f
     a20:	e3 97       	sbiw	r28, 0x33	; 51
     a22:	08 2e       	mov	r0, r24
     a24:	04 c0       	rjmp	.+8      	; 0xa2e <__stack+0x1cf>
     a26:	22 0c       	add	r2, r2
     a28:	33 1c       	adc	r3, r3
     a2a:	44 1c       	adc	r4, r4
     a2c:	55 1c       	adc	r5, r5
     a2e:	0a 94       	dec	r0
     a30:	d2 f7       	brpl	.-12     	; 0xa26 <__stack+0x1c7>
     a32:	ee 2d       	mov	r30, r14
     a34:	e8 1b       	sub	r30, r24
     a36:	64 01       	movw	r12, r8
     a38:	53 01       	movw	r10, r6
     a3a:	0e 2e       	mov	r0, r30
     a3c:	04 c0       	rjmp	.+8      	; 0xa46 <__stack+0x1e7>
     a3e:	d6 94       	lsr	r13
     a40:	c7 94       	ror	r12
     a42:	b7 94       	ror	r11
     a44:	a7 94       	ror	r10
     a46:	0a 94       	dec	r0
     a48:	d2 f7       	brpl	.-12     	; 0xa3e <__stack+0x1df>
     a4a:	a4 01       	movw	r20, r8
     a4c:	93 01       	movw	r18, r6
     a4e:	e3 96       	adiw	r28, 0x33	; 51
     a50:	0f ac       	ldd	r0, Y+63	; 0x3f
     a52:	e3 97       	sbiw	r28, 0x33	; 51
     a54:	04 c0       	rjmp	.+8      	; 0xa5e <__stack+0x1ff>
     a56:	22 0f       	add	r18, r18
     a58:	33 1f       	adc	r19, r19
     a5a:	44 1f       	adc	r20, r20
     a5c:	55 1f       	adc	r21, r21
     a5e:	0a 94       	dec	r0
     a60:	d2 f7       	brpl	.-12     	; 0xa56 <__stack+0x1f7>
     a62:	21 96       	adiw	r28, 0x01	; 1
     a64:	6c ac       	ldd	r6, Y+60	; 0x3c
     a66:	7d ac       	ldd	r7, Y+61	; 0x3d
     a68:	8e ac       	ldd	r8, Y+62	; 0x3e
     a6a:	9f ac       	ldd	r9, Y+63	; 0x3f
     a6c:	21 97       	sbiw	r28, 0x01	; 1
     a6e:	0e 2e       	mov	r0, r30
     a70:	04 c0       	rjmp	.+8      	; 0xa7a <__stack+0x21b>
     a72:	96 94       	lsr	r9
     a74:	87 94       	ror	r8
     a76:	77 94       	ror	r7
     a78:	67 94       	ror	r6
     a7a:	0a 94       	dec	r0
     a7c:	d2 f7       	brpl	.-12     	; 0xa72 <__stack+0x213>
     a7e:	84 01       	movw	r16, r8
     a80:	73 01       	movw	r14, r6
     a82:	e2 2a       	or	r14, r18
     a84:	f3 2a       	or	r15, r19
     a86:	04 2b       	or	r16, r20
     a88:	15 2b       	or	r17, r21
     a8a:	e9 ae       	std	Y+57, r14	; 0x39
     a8c:	fa ae       	std	Y+58, r15	; 0x3a
     a8e:	0b af       	std	Y+59, r16	; 0x3b
     a90:	1c af       	std	Y+60, r17	; 0x3c
     a92:	32 01       	movw	r6, r4
     a94:	88 24       	eor	r8, r8
     a96:	99 24       	eor	r9, r9
     a98:	92 01       	movw	r18, r4
     a9a:	81 01       	movw	r16, r2
     a9c:	20 70       	andi	r18, 0x00	; 0
     a9e:	30 70       	andi	r19, 0x00	; 0
     aa0:	61 96       	adiw	r28, 0x11	; 17
     aa2:	0c af       	std	Y+60, r16	; 0x3c
     aa4:	1d af       	std	Y+61, r17	; 0x3d
     aa6:	2e af       	std	Y+62, r18	; 0x3e
     aa8:	3f af       	std	Y+63, r19	; 0x3f
     aaa:	61 97       	sbiw	r28, 0x11	; 17
     aac:	c6 01       	movw	r24, r12
     aae:	b5 01       	movw	r22, r10
     ab0:	a4 01       	movw	r20, r8
     ab2:	93 01       	movw	r18, r6
     ab4:	0e 94 f8 29 	call	0x53f0	; 0x53f0 <__udivmodsi4>
     ab8:	7b 01       	movw	r14, r22
     aba:	8c 01       	movw	r16, r24
     abc:	c6 01       	movw	r24, r12
     abe:	b5 01       	movw	r22, r10
     ac0:	a4 01       	movw	r20, r8
     ac2:	93 01       	movw	r18, r6
     ac4:	0e 94 f8 29 	call	0x53f0	; 0x53f0 <__udivmodsi4>
     ac8:	c9 01       	movw	r24, r18
     aca:	da 01       	movw	r26, r20
     acc:	65 96       	adiw	r28, 0x15	; 21
     ace:	8c af       	std	Y+60, r24	; 0x3c
     ad0:	9d af       	std	Y+61, r25	; 0x3d
     ad2:	ae af       	std	Y+62, r26	; 0x3e
     ad4:	bf af       	std	Y+63, r27	; 0x3f
     ad6:	65 97       	sbiw	r28, 0x15	; 21
     ad8:	bc 01       	movw	r22, r24
     ada:	cd 01       	movw	r24, r26
     adc:	61 96       	adiw	r28, 0x11	; 17
     ade:	2c ad       	ldd	r18, Y+60	; 0x3c
     ae0:	3d ad       	ldd	r19, Y+61	; 0x3d
     ae2:	4e ad       	ldd	r20, Y+62	; 0x3e
     ae4:	5f ad       	ldd	r21, Y+63	; 0x3f
     ae6:	61 97       	sbiw	r28, 0x11	; 17
     ae8:	0e 94 d9 29 	call	0x53b2	; 0x53b2 <__mulsi3>
     aec:	9b 01       	movw	r18, r22
     aee:	ac 01       	movw	r20, r24
     af0:	87 01       	movw	r16, r14
     af2:	ff 24       	eor	r15, r15
     af4:	ee 24       	eor	r14, r14
     af6:	a9 ac       	ldd	r10, Y+57	; 0x39
     af8:	ba ac       	ldd	r11, Y+58	; 0x3a
     afa:	cb ac       	ldd	r12, Y+59	; 0x3b
     afc:	dc ac       	ldd	r13, Y+60	; 0x3c
     afe:	c6 01       	movw	r24, r12
     b00:	aa 27       	eor	r26, r26
     b02:	bb 27       	eor	r27, r27
     b04:	5c 01       	movw	r10, r24
     b06:	6d 01       	movw	r12, r26
     b08:	ae 28       	or	r10, r14
     b0a:	bf 28       	or	r11, r15
     b0c:	c0 2a       	or	r12, r16
     b0e:	d1 2a       	or	r13, r17
     b10:	a2 16       	cp	r10, r18
     b12:	b3 06       	cpc	r11, r19
     b14:	c4 06       	cpc	r12, r20
     b16:	d5 06       	cpc	r13, r21
     b18:	60 f5       	brcc	.+88     	; 0xb72 <__stack+0x313>
     b1a:	65 96       	adiw	r28, 0x15	; 21
     b1c:	6c ad       	ldd	r22, Y+60	; 0x3c
     b1e:	7d ad       	ldd	r23, Y+61	; 0x3d
     b20:	8e ad       	ldd	r24, Y+62	; 0x3e
     b22:	9f ad       	ldd	r25, Y+63	; 0x3f
     b24:	65 97       	sbiw	r28, 0x15	; 21
     b26:	61 50       	subi	r22, 0x01	; 1
     b28:	70 40       	sbci	r23, 0x00	; 0
     b2a:	80 40       	sbci	r24, 0x00	; 0
     b2c:	90 40       	sbci	r25, 0x00	; 0
     b2e:	65 96       	adiw	r28, 0x15	; 21
     b30:	6c af       	std	Y+60, r22	; 0x3c
     b32:	7d af       	std	Y+61, r23	; 0x3d
     b34:	8e af       	std	Y+62, r24	; 0x3e
     b36:	9f af       	std	Y+63, r25	; 0x3f
     b38:	65 97       	sbiw	r28, 0x15	; 21
     b3a:	a2 0c       	add	r10, r2
     b3c:	b3 1c       	adc	r11, r3
     b3e:	c4 1c       	adc	r12, r4
     b40:	d5 1c       	adc	r13, r5
     b42:	a2 14       	cp	r10, r2
     b44:	b3 04       	cpc	r11, r3
     b46:	c4 04       	cpc	r12, r4
     b48:	d5 04       	cpc	r13, r5
     b4a:	98 f0       	brcs	.+38     	; 0xb72 <__stack+0x313>
     b4c:	a2 16       	cp	r10, r18
     b4e:	b3 06       	cpc	r11, r19
     b50:	c4 06       	cpc	r12, r20
     b52:	d5 06       	cpc	r13, r21
     b54:	70 f4       	brcc	.+28     	; 0xb72 <__stack+0x313>
     b56:	61 50       	subi	r22, 0x01	; 1
     b58:	70 40       	sbci	r23, 0x00	; 0
     b5a:	80 40       	sbci	r24, 0x00	; 0
     b5c:	90 40       	sbci	r25, 0x00	; 0
     b5e:	65 96       	adiw	r28, 0x15	; 21
     b60:	6c af       	std	Y+60, r22	; 0x3c
     b62:	7d af       	std	Y+61, r23	; 0x3d
     b64:	8e af       	std	Y+62, r24	; 0x3e
     b66:	9f af       	std	Y+63, r25	; 0x3f
     b68:	65 97       	sbiw	r28, 0x15	; 21
     b6a:	a2 0c       	add	r10, r2
     b6c:	b3 1c       	adc	r11, r3
     b6e:	c4 1c       	adc	r12, r4
     b70:	d5 1c       	adc	r13, r5
     b72:	a2 1a       	sub	r10, r18
     b74:	b3 0a       	sbc	r11, r19
     b76:	c4 0a       	sbc	r12, r20
     b78:	d5 0a       	sbc	r13, r21
     b7a:	c6 01       	movw	r24, r12
     b7c:	b5 01       	movw	r22, r10
     b7e:	a4 01       	movw	r20, r8
     b80:	93 01       	movw	r18, r6
     b82:	0e 94 f8 29 	call	0x53f0	; 0x53f0 <__udivmodsi4>
     b86:	7b 01       	movw	r14, r22
     b88:	8c 01       	movw	r16, r24
     b8a:	c6 01       	movw	r24, r12
     b8c:	b5 01       	movw	r22, r10
     b8e:	a4 01       	movw	r20, r8
     b90:	93 01       	movw	r18, r6
     b92:	0e 94 f8 29 	call	0x53f0	; 0x53f0 <__udivmodsi4>
     b96:	c9 01       	movw	r24, r18
     b98:	da 01       	movw	r26, r20
     b9a:	3c 01       	movw	r6, r24
     b9c:	4d 01       	movw	r8, r26
     b9e:	c4 01       	movw	r24, r8
     ba0:	b3 01       	movw	r22, r6
     ba2:	61 96       	adiw	r28, 0x11	; 17
     ba4:	2c ad       	ldd	r18, Y+60	; 0x3c
     ba6:	3d ad       	ldd	r19, Y+61	; 0x3d
     ba8:	4e ad       	ldd	r20, Y+62	; 0x3e
     baa:	5f ad       	ldd	r21, Y+63	; 0x3f
     bac:	61 97       	sbiw	r28, 0x11	; 17
     bae:	0e 94 d9 29 	call	0x53b2	; 0x53b2 <__mulsi3>
     bb2:	9b 01       	movw	r18, r22
     bb4:	ac 01       	movw	r20, r24
     bb6:	87 01       	movw	r16, r14
     bb8:	ff 24       	eor	r15, r15
     bba:	ee 24       	eor	r14, r14
     bbc:	89 ad       	ldd	r24, Y+57	; 0x39
     bbe:	9a ad       	ldd	r25, Y+58	; 0x3a
     bc0:	ab ad       	ldd	r26, Y+59	; 0x3b
     bc2:	bc ad       	ldd	r27, Y+60	; 0x3c
     bc4:	a0 70       	andi	r26, 0x00	; 0
     bc6:	b0 70       	andi	r27, 0x00	; 0
     bc8:	57 01       	movw	r10, r14
     bca:	68 01       	movw	r12, r16
     bcc:	a8 2a       	or	r10, r24
     bce:	b9 2a       	or	r11, r25
     bd0:	ca 2a       	or	r12, r26
     bd2:	db 2a       	or	r13, r27
     bd4:	a2 16       	cp	r10, r18
     bd6:	b3 06       	cpc	r11, r19
     bd8:	c4 06       	cpc	r12, r20
     bda:	d5 06       	cpc	r13, r21
     bdc:	e0 f4       	brcc	.+56     	; 0xc16 <__stack+0x3b7>
     bde:	08 94       	sec
     be0:	61 08       	sbc	r6, r1
     be2:	71 08       	sbc	r7, r1
     be4:	81 08       	sbc	r8, r1
     be6:	91 08       	sbc	r9, r1
     be8:	a2 0c       	add	r10, r2
     bea:	b3 1c       	adc	r11, r3
     bec:	c4 1c       	adc	r12, r4
     bee:	d5 1c       	adc	r13, r5
     bf0:	a2 14       	cp	r10, r2
     bf2:	b3 04       	cpc	r11, r3
     bf4:	c4 04       	cpc	r12, r4
     bf6:	d5 04       	cpc	r13, r5
     bf8:	70 f0       	brcs	.+28     	; 0xc16 <__stack+0x3b7>
     bfa:	a2 16       	cp	r10, r18
     bfc:	b3 06       	cpc	r11, r19
     bfe:	c4 06       	cpc	r12, r20
     c00:	d5 06       	cpc	r13, r21
     c02:	48 f4       	brcc	.+18     	; 0xc16 <__stack+0x3b7>
     c04:	08 94       	sec
     c06:	61 08       	sbc	r6, r1
     c08:	71 08       	sbc	r7, r1
     c0a:	81 08       	sbc	r8, r1
     c0c:	91 08       	sbc	r9, r1
     c0e:	a2 0c       	add	r10, r2
     c10:	b3 1c       	adc	r11, r3
     c12:	c4 1c       	adc	r12, r4
     c14:	d5 1c       	adc	r13, r5
     c16:	21 96       	adiw	r28, 0x01	; 1
     c18:	8c ad       	ldd	r24, Y+60	; 0x3c
     c1a:	9d ad       	ldd	r25, Y+61	; 0x3d
     c1c:	ae ad       	ldd	r26, Y+62	; 0x3e
     c1e:	bf ad       	ldd	r27, Y+63	; 0x3f
     c20:	21 97       	sbiw	r28, 0x01	; 1
     c22:	e3 96       	adiw	r28, 0x33	; 51
     c24:	0f ac       	ldd	r0, Y+63	; 0x3f
     c26:	e3 97       	sbiw	r28, 0x33	; 51
     c28:	04 c0       	rjmp	.+8      	; 0xc32 <__stack+0x3d3>
     c2a:	88 0f       	add	r24, r24
     c2c:	99 1f       	adc	r25, r25
     c2e:	aa 1f       	adc	r26, r26
     c30:	bb 1f       	adc	r27, r27
     c32:	0a 94       	dec	r0
     c34:	d2 f7       	brpl	.-12     	; 0xc2a <__stack+0x3cb>
     c36:	21 96       	adiw	r28, 0x01	; 1
     c38:	8c af       	std	Y+60, r24	; 0x3c
     c3a:	9d af       	std	Y+61, r25	; 0x3d
     c3c:	ae af       	std	Y+62, r26	; 0x3e
     c3e:	bf af       	std	Y+63, r27	; 0x3f
     c40:	21 97       	sbiw	r28, 0x01	; 1
     c42:	a2 1a       	sub	r10, r18
     c44:	b3 0a       	sbc	r11, r19
     c46:	c4 0a       	sbc	r12, r20
     c48:	d5 0a       	sbc	r13, r21
     c4a:	65 96       	adiw	r28, 0x15	; 21
     c4c:	ec ac       	ldd	r14, Y+60	; 0x3c
     c4e:	fd ac       	ldd	r15, Y+61	; 0x3d
     c50:	0e ad       	ldd	r16, Y+62	; 0x3e
     c52:	1f ad       	ldd	r17, Y+63	; 0x3f
     c54:	65 97       	sbiw	r28, 0x15	; 21
     c56:	d7 01       	movw	r26, r14
     c58:	99 27       	eor	r25, r25
     c5a:	88 27       	eor	r24, r24
     c5c:	68 2a       	or	r6, r24
     c5e:	79 2a       	or	r7, r25
     c60:	8a 2a       	or	r8, r26
     c62:	9b 2a       	or	r9, r27
     c64:	82 01       	movw	r16, r4
     c66:	22 27       	eor	r18, r18
     c68:	33 27       	eor	r19, r19
     c6a:	69 96       	adiw	r28, 0x19	; 25
     c6c:	0c af       	std	Y+60, r16	; 0x3c
     c6e:	1d af       	std	Y+61, r17	; 0x3d
     c70:	2e af       	std	Y+62, r18	; 0x3e
     c72:	3f af       	std	Y+63, r19	; 0x3f
     c74:	69 97       	sbiw	r28, 0x19	; 25
     c76:	a2 01       	movw	r20, r4
     c78:	91 01       	movw	r18, r2
     c7a:	40 70       	andi	r20, 0x00	; 0
     c7c:	50 70       	andi	r21, 0x00	; 0
     c7e:	6d 96       	adiw	r28, 0x1d	; 29
     c80:	2c af       	std	Y+60, r18	; 0x3c
     c82:	3d af       	std	Y+61, r19	; 0x3d
     c84:	4e af       	std	Y+62, r20	; 0x3e
     c86:	5f af       	std	Y+63, r21	; 0x3f
     c88:	6d 97       	sbiw	r28, 0x1d	; 29
     c8a:	c6 01       	movw	r24, r12
     c8c:	b5 01       	movw	r22, r10
     c8e:	69 96       	adiw	r28, 0x19	; 25
     c90:	2c ad       	ldd	r18, Y+60	; 0x3c
     c92:	3d ad       	ldd	r19, Y+61	; 0x3d
     c94:	4e ad       	ldd	r20, Y+62	; 0x3e
     c96:	5f ad       	ldd	r21, Y+63	; 0x3f
     c98:	69 97       	sbiw	r28, 0x19	; 25
     c9a:	0e 94 f8 29 	call	0x53f0	; 0x53f0 <__udivmodsi4>
     c9e:	7b 01       	movw	r14, r22
     ca0:	8c 01       	movw	r16, r24
     ca2:	c6 01       	movw	r24, r12
     ca4:	b5 01       	movw	r22, r10
     ca6:	69 96       	adiw	r28, 0x19	; 25
     ca8:	2c ad       	ldd	r18, Y+60	; 0x3c
     caa:	3d ad       	ldd	r19, Y+61	; 0x3d
     cac:	4e ad       	ldd	r20, Y+62	; 0x3e
     cae:	5f ad       	ldd	r21, Y+63	; 0x3f
     cb0:	69 97       	sbiw	r28, 0x19	; 25
     cb2:	0e 94 f8 29 	call	0x53f0	; 0x53f0 <__udivmodsi4>
     cb6:	c9 01       	movw	r24, r18
     cb8:	da 01       	movw	r26, r20
     cba:	a1 96       	adiw	r28, 0x21	; 33
     cbc:	8c af       	std	Y+60, r24	; 0x3c
     cbe:	9d af       	std	Y+61, r25	; 0x3d
     cc0:	ae af       	std	Y+62, r26	; 0x3e
     cc2:	bf af       	std	Y+63, r27	; 0x3f
     cc4:	a1 97       	sbiw	r28, 0x21	; 33
     cc6:	bc 01       	movw	r22, r24
     cc8:	cd 01       	movw	r24, r26
     cca:	6d 96       	adiw	r28, 0x1d	; 29
     ccc:	2c ad       	ldd	r18, Y+60	; 0x3c
     cce:	3d ad       	ldd	r19, Y+61	; 0x3d
     cd0:	4e ad       	ldd	r20, Y+62	; 0x3e
     cd2:	5f ad       	ldd	r21, Y+63	; 0x3f
     cd4:	6d 97       	sbiw	r28, 0x1d	; 29
     cd6:	0e 94 d9 29 	call	0x53b2	; 0x53b2 <__mulsi3>
     cda:	9b 01       	movw	r18, r22
     cdc:	ac 01       	movw	r20, r24
     cde:	87 01       	movw	r16, r14
     ce0:	ff 24       	eor	r15, r15
     ce2:	ee 24       	eor	r14, r14
     ce4:	21 96       	adiw	r28, 0x01	; 1
     ce6:	ac ac       	ldd	r10, Y+60	; 0x3c
     ce8:	bd ac       	ldd	r11, Y+61	; 0x3d
     cea:	ce ac       	ldd	r12, Y+62	; 0x3e
     cec:	df ac       	ldd	r13, Y+63	; 0x3f
     cee:	21 97       	sbiw	r28, 0x01	; 1
     cf0:	c6 01       	movw	r24, r12
     cf2:	aa 27       	eor	r26, r26
     cf4:	bb 27       	eor	r27, r27
     cf6:	57 01       	movw	r10, r14
     cf8:	68 01       	movw	r12, r16
     cfa:	a8 2a       	or	r10, r24
     cfc:	b9 2a       	or	r11, r25
     cfe:	ca 2a       	or	r12, r26
     d00:	db 2a       	or	r13, r27
     d02:	a2 16       	cp	r10, r18
     d04:	b3 06       	cpc	r11, r19
     d06:	c4 06       	cpc	r12, r20
     d08:	d5 06       	cpc	r13, r21
     d0a:	60 f5       	brcc	.+88     	; 0xd64 <__stack+0x505>
     d0c:	a1 96       	adiw	r28, 0x21	; 33
     d0e:	6c ad       	ldd	r22, Y+60	; 0x3c
     d10:	7d ad       	ldd	r23, Y+61	; 0x3d
     d12:	8e ad       	ldd	r24, Y+62	; 0x3e
     d14:	9f ad       	ldd	r25, Y+63	; 0x3f
     d16:	a1 97       	sbiw	r28, 0x21	; 33
     d18:	61 50       	subi	r22, 0x01	; 1
     d1a:	70 40       	sbci	r23, 0x00	; 0
     d1c:	80 40       	sbci	r24, 0x00	; 0
     d1e:	90 40       	sbci	r25, 0x00	; 0
     d20:	a1 96       	adiw	r28, 0x21	; 33
     d22:	6c af       	std	Y+60, r22	; 0x3c
     d24:	7d af       	std	Y+61, r23	; 0x3d
     d26:	8e af       	std	Y+62, r24	; 0x3e
     d28:	9f af       	std	Y+63, r25	; 0x3f
     d2a:	a1 97       	sbiw	r28, 0x21	; 33
     d2c:	a2 0c       	add	r10, r2
     d2e:	b3 1c       	adc	r11, r3
     d30:	c4 1c       	adc	r12, r4
     d32:	d5 1c       	adc	r13, r5
     d34:	a2 14       	cp	r10, r2
     d36:	b3 04       	cpc	r11, r3
     d38:	c4 04       	cpc	r12, r4
     d3a:	d5 04       	cpc	r13, r5
     d3c:	98 f0       	brcs	.+38     	; 0xd64 <__stack+0x505>
     d3e:	a2 16       	cp	r10, r18
     d40:	b3 06       	cpc	r11, r19
     d42:	c4 06       	cpc	r12, r20
     d44:	d5 06       	cpc	r13, r21
     d46:	70 f4       	brcc	.+28     	; 0xd64 <__stack+0x505>
     d48:	61 50       	subi	r22, 0x01	; 1
     d4a:	70 40       	sbci	r23, 0x00	; 0
     d4c:	80 40       	sbci	r24, 0x00	; 0
     d4e:	90 40       	sbci	r25, 0x00	; 0
     d50:	a1 96       	adiw	r28, 0x21	; 33
     d52:	6c af       	std	Y+60, r22	; 0x3c
     d54:	7d af       	std	Y+61, r23	; 0x3d
     d56:	8e af       	std	Y+62, r24	; 0x3e
     d58:	9f af       	std	Y+63, r25	; 0x3f
     d5a:	a1 97       	sbiw	r28, 0x21	; 33
     d5c:	a2 0c       	add	r10, r2
     d5e:	b3 1c       	adc	r11, r3
     d60:	c4 1c       	adc	r12, r4
     d62:	d5 1c       	adc	r13, r5
     d64:	a2 1a       	sub	r10, r18
     d66:	b3 0a       	sbc	r11, r19
     d68:	c4 0a       	sbc	r12, r20
     d6a:	d5 0a       	sbc	r13, r21
     d6c:	c6 01       	movw	r24, r12
     d6e:	b5 01       	movw	r22, r10
     d70:	69 96       	adiw	r28, 0x19	; 25
     d72:	2c ad       	ldd	r18, Y+60	; 0x3c
     d74:	3d ad       	ldd	r19, Y+61	; 0x3d
     d76:	4e ad       	ldd	r20, Y+62	; 0x3e
     d78:	5f ad       	ldd	r21, Y+63	; 0x3f
     d7a:	69 97       	sbiw	r28, 0x19	; 25
     d7c:	0e 94 f8 29 	call	0x53f0	; 0x53f0 <__udivmodsi4>
     d80:	7b 01       	movw	r14, r22
     d82:	8c 01       	movw	r16, r24
     d84:	c6 01       	movw	r24, r12
     d86:	b5 01       	movw	r22, r10
     d88:	69 96       	adiw	r28, 0x19	; 25
     d8a:	2c ad       	ldd	r18, Y+60	; 0x3c
     d8c:	3d ad       	ldd	r19, Y+61	; 0x3d
     d8e:	4e ad       	ldd	r20, Y+62	; 0x3e
     d90:	5f ad       	ldd	r21, Y+63	; 0x3f
     d92:	69 97       	sbiw	r28, 0x19	; 25
     d94:	0e 94 f8 29 	call	0x53f0	; 0x53f0 <__udivmodsi4>
     d98:	c9 01       	movw	r24, r18
     d9a:	da 01       	movw	r26, r20
     d9c:	5c 01       	movw	r10, r24
     d9e:	6d 01       	movw	r12, r26
     da0:	c6 01       	movw	r24, r12
     da2:	b5 01       	movw	r22, r10
     da4:	6d 96       	adiw	r28, 0x1d	; 29
     da6:	2c ad       	ldd	r18, Y+60	; 0x3c
     da8:	3d ad       	ldd	r19, Y+61	; 0x3d
     daa:	4e ad       	ldd	r20, Y+62	; 0x3e
     dac:	5f ad       	ldd	r21, Y+63	; 0x3f
     dae:	6d 97       	sbiw	r28, 0x1d	; 29
     db0:	0e 94 d9 29 	call	0x53b2	; 0x53b2 <__mulsi3>
     db4:	9b 01       	movw	r18, r22
     db6:	ac 01       	movw	r20, r24
     db8:	87 01       	movw	r16, r14
     dba:	ff 24       	eor	r15, r15
     dbc:	ee 24       	eor	r14, r14
     dbe:	21 96       	adiw	r28, 0x01	; 1
     dc0:	8c ad       	ldd	r24, Y+60	; 0x3c
     dc2:	9d ad       	ldd	r25, Y+61	; 0x3d
     dc4:	ae ad       	ldd	r26, Y+62	; 0x3e
     dc6:	bf ad       	ldd	r27, Y+63	; 0x3f
     dc8:	21 97       	sbiw	r28, 0x01	; 1
     dca:	a0 70       	andi	r26, 0x00	; 0
     dcc:	b0 70       	andi	r27, 0x00	; 0
     dce:	e8 2a       	or	r14, r24
     dd0:	f9 2a       	or	r15, r25
     dd2:	0a 2b       	or	r16, r26
     dd4:	1b 2b       	or	r17, r27
     dd6:	e2 16       	cp	r14, r18
     dd8:	f3 06       	cpc	r15, r19
     dda:	04 07       	cpc	r16, r20
     ddc:	15 07       	cpc	r17, r21
     dde:	c0 f4       	brcc	.+48     	; 0xe10 <__stack+0x5b1>
     de0:	08 94       	sec
     de2:	a1 08       	sbc	r10, r1
     de4:	b1 08       	sbc	r11, r1
     de6:	c1 08       	sbc	r12, r1
     de8:	d1 08       	sbc	r13, r1
     dea:	e2 0c       	add	r14, r2
     dec:	f3 1c       	adc	r15, r3
     dee:	04 1d       	adc	r16, r4
     df0:	15 1d       	adc	r17, r5
     df2:	e2 14       	cp	r14, r2
     df4:	f3 04       	cpc	r15, r3
     df6:	04 05       	cpc	r16, r4
     df8:	15 05       	cpc	r17, r5
     dfa:	50 f0       	brcs	.+20     	; 0xe10 <__stack+0x5b1>
     dfc:	e2 16       	cp	r14, r18
     dfe:	f3 06       	cpc	r15, r19
     e00:	04 07       	cpc	r16, r20
     e02:	15 07       	cpc	r17, r21
     e04:	28 f4       	brcc	.+10     	; 0xe10 <__stack+0x5b1>
     e06:	08 94       	sec
     e08:	a1 08       	sbc	r10, r1
     e0a:	b1 08       	sbc	r11, r1
     e0c:	c1 08       	sbc	r12, r1
     e0e:	d1 08       	sbc	r13, r1
     e10:	a1 96       	adiw	r28, 0x21	; 33
     e12:	ec ac       	ldd	r14, Y+60	; 0x3c
     e14:	fd ac       	ldd	r15, Y+61	; 0x3d
     e16:	0e ad       	ldd	r16, Y+62	; 0x3e
     e18:	1f ad       	ldd	r17, Y+63	; 0x3f
     e1a:	a1 97       	sbiw	r28, 0x21	; 33
     e1c:	d7 01       	movw	r26, r14
     e1e:	99 27       	eor	r25, r25
     e20:	88 27       	eor	r24, r24
     e22:	96 01       	movw	r18, r12
     e24:	85 01       	movw	r16, r10
     e26:	08 2b       	or	r16, r24
     e28:	19 2b       	or	r17, r25
     e2a:	2a 2b       	or	r18, r26
     e2c:	3b 2b       	or	r19, r27
     e2e:	25 96       	adiw	r28, 0x05	; 5
     e30:	0c af       	std	Y+60, r16	; 0x3c
     e32:	1d af       	std	Y+61, r17	; 0x3d
     e34:	2e af       	std	Y+62, r18	; 0x3e
     e36:	3f af       	std	Y+63, r19	; 0x3f
     e38:	25 97       	sbiw	r28, 0x05	; 5
     e3a:	72 c2       	rjmp	.+1252   	; 0x1320 <__stack+0xac1>
     e3c:	6e 14       	cp	r6, r14
     e3e:	7f 04       	cpc	r7, r15
     e40:	80 06       	cpc	r8, r16
     e42:	91 06       	cpc	r9, r17
     e44:	08 f4       	brcc	.+2      	; 0xe48 <__stack+0x5e9>
     e46:	5f c2       	rjmp	.+1214   	; 0x1306 <__stack+0xaa7>
     e48:	20 e0       	ldi	r18, 0x00	; 0
     e4a:	e2 16       	cp	r14, r18
     e4c:	20 e0       	ldi	r18, 0x00	; 0
     e4e:	f2 06       	cpc	r15, r18
     e50:	21 e0       	ldi	r18, 0x01	; 1
     e52:	02 07       	cpc	r16, r18
     e54:	20 e0       	ldi	r18, 0x00	; 0
     e56:	12 07       	cpc	r17, r18
     e58:	88 f4       	brcc	.+34     	; 0xe7c <__stack+0x61d>
     e5a:	3f ef       	ldi	r19, 0xFF	; 255
     e5c:	e3 16       	cp	r14, r19
     e5e:	f1 04       	cpc	r15, r1
     e60:	01 05       	cpc	r16, r1
     e62:	11 05       	cpc	r17, r1
     e64:	31 f0       	breq	.+12     	; 0xe72 <__stack+0x613>
     e66:	28 f0       	brcs	.+10     	; 0xe72 <__stack+0x613>
     e68:	48 e0       	ldi	r20, 0x08	; 8
     e6a:	50 e0       	ldi	r21, 0x00	; 0
     e6c:	60 e0       	ldi	r22, 0x00	; 0
     e6e:	70 e0       	ldi	r23, 0x00	; 0
     e70:	17 c0       	rjmp	.+46     	; 0xea0 <__stack+0x641>
     e72:	40 e0       	ldi	r20, 0x00	; 0
     e74:	50 e0       	ldi	r21, 0x00	; 0
     e76:	60 e0       	ldi	r22, 0x00	; 0
     e78:	70 e0       	ldi	r23, 0x00	; 0
     e7a:	12 c0       	rjmp	.+36     	; 0xea0 <__stack+0x641>
     e7c:	40 e0       	ldi	r20, 0x00	; 0
     e7e:	e4 16       	cp	r14, r20
     e80:	40 e0       	ldi	r20, 0x00	; 0
     e82:	f4 06       	cpc	r15, r20
     e84:	40 e0       	ldi	r20, 0x00	; 0
     e86:	04 07       	cpc	r16, r20
     e88:	41 e0       	ldi	r20, 0x01	; 1
     e8a:	14 07       	cpc	r17, r20
     e8c:	28 f0       	brcs	.+10     	; 0xe98 <__stack+0x639>
     e8e:	48 e1       	ldi	r20, 0x18	; 24
     e90:	50 e0       	ldi	r21, 0x00	; 0
     e92:	60 e0       	ldi	r22, 0x00	; 0
     e94:	70 e0       	ldi	r23, 0x00	; 0
     e96:	04 c0       	rjmp	.+8      	; 0xea0 <__stack+0x641>
     e98:	40 e1       	ldi	r20, 0x10	; 16
     e9a:	50 e0       	ldi	r21, 0x00	; 0
     e9c:	60 e0       	ldi	r22, 0x00	; 0
     e9e:	70 e0       	ldi	r23, 0x00	; 0
     ea0:	d8 01       	movw	r26, r16
     ea2:	c7 01       	movw	r24, r14
     ea4:	04 2e       	mov	r0, r20
     ea6:	04 c0       	rjmp	.+8      	; 0xeb0 <__stack+0x651>
     ea8:	b6 95       	lsr	r27
     eaa:	a7 95       	ror	r26
     eac:	97 95       	ror	r25
     eae:	87 95       	ror	r24
     eb0:	0a 94       	dec	r0
     eb2:	d2 f7       	brpl	.-12     	; 0xea8 <__stack+0x649>
     eb4:	8a 54       	subi	r24, 0x4A	; 74
     eb6:	9f 4f       	sbci	r25, 0xFF	; 255
     eb8:	dc 01       	movw	r26, r24
     eba:	2c 91       	ld	r18, X
     ebc:	30 e2       	ldi	r19, 0x20	; 32
     ebe:	a3 2e       	mov	r10, r19
     ec0:	b1 2c       	mov	r11, r1
     ec2:	c1 2c       	mov	r12, r1
     ec4:	d1 2c       	mov	r13, r1
     ec6:	d6 01       	movw	r26, r12
     ec8:	c5 01       	movw	r24, r10
     eca:	84 1b       	sub	r24, r20
     ecc:	95 0b       	sbc	r25, r21
     ece:	a6 0b       	sbc	r26, r22
     ed0:	b7 0b       	sbc	r27, r23
     ed2:	82 1b       	sub	r24, r18
     ed4:	91 09       	sbc	r25, r1
     ed6:	a1 09       	sbc	r26, r1
     ed8:	b1 09       	sbc	r27, r1
     eda:	00 97       	sbiw	r24, 0x00	; 0
     edc:	a1 05       	cpc	r26, r1
     ede:	b1 05       	cpc	r27, r1
     ee0:	99 f4       	brne	.+38     	; 0xf08 <__stack+0x6a9>
     ee2:	e6 14       	cp	r14, r6
     ee4:	f7 04       	cpc	r15, r7
     ee6:	08 05       	cpc	r16, r8
     ee8:	19 05       	cpc	r17, r9
     eea:	08 f4       	brcc	.+2      	; 0xeee <__stack+0x68f>
     eec:	fe c1       	rjmp	.+1020   	; 0x12ea <__stack+0xa8b>
     eee:	21 96       	adiw	r28, 0x01	; 1
     ef0:	6c ac       	ldd	r6, Y+60	; 0x3c
     ef2:	7d ac       	ldd	r7, Y+61	; 0x3d
     ef4:	8e ac       	ldd	r8, Y+62	; 0x3e
     ef6:	9f ac       	ldd	r9, Y+63	; 0x3f
     ef8:	21 97       	sbiw	r28, 0x01	; 1
     efa:	62 14       	cp	r6, r2
     efc:	73 04       	cpc	r7, r3
     efe:	84 04       	cpc	r8, r4
     f00:	95 04       	cpc	r9, r5
     f02:	08 f0       	brcs	.+2      	; 0xf06 <__stack+0x6a7>
     f04:	f2 c1       	rjmp	.+996    	; 0x12ea <__stack+0xa8b>
     f06:	ff c1       	rjmp	.+1022   	; 0x1306 <__stack+0xaa7>
     f08:	e2 96       	adiw	r28, 0x32	; 50
     f0a:	8f af       	std	Y+63, r24	; 0x3f
     f0c:	e2 97       	sbiw	r28, 0x32	; 50
     f0e:	08 2e       	mov	r0, r24
     f10:	04 c0       	rjmp	.+8      	; 0xf1a <__stack+0x6bb>
     f12:	ee 0c       	add	r14, r14
     f14:	ff 1c       	adc	r15, r15
     f16:	00 1f       	adc	r16, r16
     f18:	11 1f       	adc	r17, r17
     f1a:	0a 94       	dec	r0
     f1c:	d2 f7       	brpl	.-12     	; 0xf12 <__stack+0x6b3>
     f1e:	6a 2d       	mov	r22, r10
     f20:	68 1b       	sub	r22, r24
     f22:	d2 01       	movw	r26, r4
     f24:	c1 01       	movw	r24, r2
     f26:	06 2e       	mov	r0, r22
     f28:	04 c0       	rjmp	.+8      	; 0xf32 <__stack+0x6d3>
     f2a:	b6 95       	lsr	r27
     f2c:	a7 95       	ror	r26
     f2e:	97 95       	ror	r25
     f30:	87 95       	ror	r24
     f32:	0a 94       	dec	r0
     f34:	d2 f7       	brpl	.-12     	; 0xf2a <__stack+0x6cb>
     f36:	5c 01       	movw	r10, r24
     f38:	6d 01       	movw	r12, r26
     f3a:	ae 28       	or	r10, r14
     f3c:	bf 28       	or	r11, r15
     f3e:	c0 2a       	or	r12, r16
     f40:	d1 2a       	or	r13, r17
     f42:	ad aa       	std	Y+53, r10	; 0x35
     f44:	be aa       	std	Y+54, r11	; 0x36
     f46:	cf aa       	std	Y+55, r12	; 0x37
     f48:	d8 ae       	std	Y+56, r13	; 0x38
     f4a:	72 01       	movw	r14, r4
     f4c:	61 01       	movw	r12, r2
     f4e:	e2 96       	adiw	r28, 0x32	; 50
     f50:	0f ac       	ldd	r0, Y+63	; 0x3f
     f52:	e2 97       	sbiw	r28, 0x32	; 50
     f54:	04 c0       	rjmp	.+8      	; 0xf5e <__stack+0x6ff>
     f56:	cc 0c       	add	r12, r12
     f58:	dd 1c       	adc	r13, r13
     f5a:	ee 1c       	adc	r14, r14
     f5c:	ff 1c       	adc	r15, r15
     f5e:	0a 94       	dec	r0
     f60:	d2 f7       	brpl	.-12     	; 0xf56 <__stack+0x6f7>
     f62:	c9 aa       	std	Y+49, r12	; 0x31
     f64:	da aa       	std	Y+50, r13	; 0x32
     f66:	eb aa       	std	Y+51, r14	; 0x33
     f68:	fc aa       	std	Y+52, r15	; 0x34
     f6a:	64 01       	movw	r12, r8
     f6c:	53 01       	movw	r10, r6
     f6e:	06 2e       	mov	r0, r22
     f70:	04 c0       	rjmp	.+8      	; 0xf7a <__stack+0x71b>
     f72:	d6 94       	lsr	r13
     f74:	c7 94       	ror	r12
     f76:	b7 94       	ror	r11
     f78:	a7 94       	ror	r10
     f7a:	0a 94       	dec	r0
     f7c:	d2 f7       	brpl	.-12     	; 0xf72 <__stack+0x713>
     f7e:	d4 01       	movw	r26, r8
     f80:	c3 01       	movw	r24, r6
     f82:	e2 96       	adiw	r28, 0x32	; 50
     f84:	0f ac       	ldd	r0, Y+63	; 0x3f
     f86:	e2 97       	sbiw	r28, 0x32	; 50
     f88:	04 c0       	rjmp	.+8      	; 0xf92 <__stack+0x733>
     f8a:	88 0f       	add	r24, r24
     f8c:	99 1f       	adc	r25, r25
     f8e:	aa 1f       	adc	r26, r26
     f90:	bb 1f       	adc	r27, r27
     f92:	0a 94       	dec	r0
     f94:	d2 f7       	brpl	.-12     	; 0xf8a <__stack+0x72b>
     f96:	21 96       	adiw	r28, 0x01	; 1
     f98:	ec ac       	ldd	r14, Y+60	; 0x3c
     f9a:	fd ac       	ldd	r15, Y+61	; 0x3d
     f9c:	0e ad       	ldd	r16, Y+62	; 0x3e
     f9e:	1f ad       	ldd	r17, Y+63	; 0x3f
     fa0:	21 97       	sbiw	r28, 0x01	; 1
     fa2:	04 c0       	rjmp	.+8      	; 0xfac <__stack+0x74d>
     fa4:	16 95       	lsr	r17
     fa6:	07 95       	ror	r16
     fa8:	f7 94       	ror	r15
     faa:	e7 94       	ror	r14
     fac:	6a 95       	dec	r22
     fae:	d2 f7       	brpl	.-12     	; 0xfa4 <__stack+0x745>
     fb0:	37 01       	movw	r6, r14
     fb2:	48 01       	movw	r8, r16
     fb4:	68 2a       	or	r6, r24
     fb6:	79 2a       	or	r7, r25
     fb8:	8a 2a       	or	r8, r26
     fba:	9b 2a       	or	r9, r27
     fbc:	6d a6       	std	Y+45, r6	; 0x2d
     fbe:	7e a6       	std	Y+46, r7	; 0x2e
     fc0:	8f a6       	std	Y+47, r8	; 0x2f
     fc2:	98 aa       	std	Y+48, r9	; 0x30
     fc4:	ed a8       	ldd	r14, Y+53	; 0x35
     fc6:	fe a8       	ldd	r15, Y+54	; 0x36
     fc8:	0f a9       	ldd	r16, Y+55	; 0x37
     fca:	18 ad       	ldd	r17, Y+56	; 0x38
     fcc:	38 01       	movw	r6, r16
     fce:	88 24       	eor	r8, r8
     fd0:	99 24       	eor	r9, r9
     fd2:	98 01       	movw	r18, r16
     fd4:	87 01       	movw	r16, r14
     fd6:	20 70       	andi	r18, 0x00	; 0
     fd8:	30 70       	andi	r19, 0x00	; 0
     fda:	a5 96       	adiw	r28, 0x25	; 37
     fdc:	0c af       	std	Y+60, r16	; 0x3c
     fde:	1d af       	std	Y+61, r17	; 0x3d
     fe0:	2e af       	std	Y+62, r18	; 0x3e
     fe2:	3f af       	std	Y+63, r19	; 0x3f
     fe4:	a5 97       	sbiw	r28, 0x25	; 37
     fe6:	c6 01       	movw	r24, r12
     fe8:	b5 01       	movw	r22, r10
     fea:	a4 01       	movw	r20, r8
     fec:	93 01       	movw	r18, r6
     fee:	0e 94 f8 29 	call	0x53f0	; 0x53f0 <__udivmodsi4>
     ff2:	7b 01       	movw	r14, r22
     ff4:	8c 01       	movw	r16, r24
     ff6:	c6 01       	movw	r24, r12
     ff8:	b5 01       	movw	r22, r10
     ffa:	a4 01       	movw	r20, r8
     ffc:	93 01       	movw	r18, r6
     ffe:	0e 94 f8 29 	call	0x53f0	; 0x53f0 <__udivmodsi4>
    1002:	c9 01       	movw	r24, r18
    1004:	da 01       	movw	r26, r20
    1006:	1c 01       	movw	r2, r24
    1008:	2d 01       	movw	r4, r26
    100a:	c2 01       	movw	r24, r4
    100c:	b1 01       	movw	r22, r2
    100e:	a5 96       	adiw	r28, 0x25	; 37
    1010:	2c ad       	ldd	r18, Y+60	; 0x3c
    1012:	3d ad       	ldd	r19, Y+61	; 0x3d
    1014:	4e ad       	ldd	r20, Y+62	; 0x3e
    1016:	5f ad       	ldd	r21, Y+63	; 0x3f
    1018:	a5 97       	sbiw	r28, 0x25	; 37
    101a:	0e 94 d9 29 	call	0x53b2	; 0x53b2 <__mulsi3>
    101e:	9b 01       	movw	r18, r22
    1020:	ac 01       	movw	r20, r24
    1022:	87 01       	movw	r16, r14
    1024:	ff 24       	eor	r15, r15
    1026:	ee 24       	eor	r14, r14
    1028:	ad a4       	ldd	r10, Y+45	; 0x2d
    102a:	be a4       	ldd	r11, Y+46	; 0x2e
    102c:	cf a4       	ldd	r12, Y+47	; 0x2f
    102e:	d8 a8       	ldd	r13, Y+48	; 0x30
    1030:	c6 01       	movw	r24, r12
    1032:	aa 27       	eor	r26, r26
    1034:	bb 27       	eor	r27, r27
    1036:	57 01       	movw	r10, r14
    1038:	68 01       	movw	r12, r16
    103a:	a8 2a       	or	r10, r24
    103c:	b9 2a       	or	r11, r25
    103e:	ca 2a       	or	r12, r26
    1040:	db 2a       	or	r13, r27
    1042:	a2 16       	cp	r10, r18
    1044:	b3 06       	cpc	r11, r19
    1046:	c4 06       	cpc	r12, r20
    1048:	d5 06       	cpc	r13, r21
    104a:	00 f5       	brcc	.+64     	; 0x108c <__stack+0x82d>
    104c:	08 94       	sec
    104e:	21 08       	sbc	r2, r1
    1050:	31 08       	sbc	r3, r1
    1052:	41 08       	sbc	r4, r1
    1054:	51 08       	sbc	r5, r1
    1056:	ed a8       	ldd	r14, Y+53	; 0x35
    1058:	fe a8       	ldd	r15, Y+54	; 0x36
    105a:	0f a9       	ldd	r16, Y+55	; 0x37
    105c:	18 ad       	ldd	r17, Y+56	; 0x38
    105e:	ae 0c       	add	r10, r14
    1060:	bf 1c       	adc	r11, r15
    1062:	c0 1e       	adc	r12, r16
    1064:	d1 1e       	adc	r13, r17
    1066:	ae 14       	cp	r10, r14
    1068:	bf 04       	cpc	r11, r15
    106a:	c0 06       	cpc	r12, r16
    106c:	d1 06       	cpc	r13, r17
    106e:	70 f0       	brcs	.+28     	; 0x108c <__stack+0x82d>
    1070:	a2 16       	cp	r10, r18
    1072:	b3 06       	cpc	r11, r19
    1074:	c4 06       	cpc	r12, r20
    1076:	d5 06       	cpc	r13, r21
    1078:	48 f4       	brcc	.+18     	; 0x108c <__stack+0x82d>
    107a:	08 94       	sec
    107c:	21 08       	sbc	r2, r1
    107e:	31 08       	sbc	r3, r1
    1080:	41 08       	sbc	r4, r1
    1082:	51 08       	sbc	r5, r1
    1084:	ae 0c       	add	r10, r14
    1086:	bf 1c       	adc	r11, r15
    1088:	c0 1e       	adc	r12, r16
    108a:	d1 1e       	adc	r13, r17
    108c:	a2 1a       	sub	r10, r18
    108e:	b3 0a       	sbc	r11, r19
    1090:	c4 0a       	sbc	r12, r20
    1092:	d5 0a       	sbc	r13, r21
    1094:	c6 01       	movw	r24, r12
    1096:	b5 01       	movw	r22, r10
    1098:	a4 01       	movw	r20, r8
    109a:	93 01       	movw	r18, r6
    109c:	0e 94 f8 29 	call	0x53f0	; 0x53f0 <__udivmodsi4>
    10a0:	7b 01       	movw	r14, r22
    10a2:	8c 01       	movw	r16, r24
    10a4:	c6 01       	movw	r24, r12
    10a6:	b5 01       	movw	r22, r10
    10a8:	a4 01       	movw	r20, r8
    10aa:	93 01       	movw	r18, r6
    10ac:	0e 94 f8 29 	call	0x53f0	; 0x53f0 <__udivmodsi4>
    10b0:	c9 01       	movw	r24, r18
    10b2:	da 01       	movw	r26, r20
    10b4:	3c 01       	movw	r6, r24
    10b6:	4d 01       	movw	r8, r26
    10b8:	c4 01       	movw	r24, r8
    10ba:	b3 01       	movw	r22, r6
    10bc:	a5 96       	adiw	r28, 0x25	; 37
    10be:	2c ad       	ldd	r18, Y+60	; 0x3c
    10c0:	3d ad       	ldd	r19, Y+61	; 0x3d
    10c2:	4e ad       	ldd	r20, Y+62	; 0x3e
    10c4:	5f ad       	ldd	r21, Y+63	; 0x3f
    10c6:	a5 97       	sbiw	r28, 0x25	; 37
    10c8:	0e 94 d9 29 	call	0x53b2	; 0x53b2 <__mulsi3>
    10cc:	9b 01       	movw	r18, r22
    10ce:	ac 01       	movw	r20, r24
    10d0:	87 01       	movw	r16, r14
    10d2:	ff 24       	eor	r15, r15
    10d4:	ee 24       	eor	r14, r14
    10d6:	8d a5       	ldd	r24, Y+45	; 0x2d
    10d8:	9e a5       	ldd	r25, Y+46	; 0x2e
    10da:	af a5       	ldd	r26, Y+47	; 0x2f
    10dc:	b8 a9       	ldd	r27, Y+48	; 0x30
    10de:	a0 70       	andi	r26, 0x00	; 0
    10e0:	b0 70       	andi	r27, 0x00	; 0
    10e2:	57 01       	movw	r10, r14
    10e4:	68 01       	movw	r12, r16
    10e6:	a8 2a       	or	r10, r24
    10e8:	b9 2a       	or	r11, r25
    10ea:	ca 2a       	or	r12, r26
    10ec:	db 2a       	or	r13, r27
    10ee:	a2 16       	cp	r10, r18
    10f0:	b3 06       	cpc	r11, r19
    10f2:	c4 06       	cpc	r12, r20
    10f4:	d5 06       	cpc	r13, r21
    10f6:	00 f5       	brcc	.+64     	; 0x1138 <__stack+0x8d9>
    10f8:	08 94       	sec
    10fa:	61 08       	sbc	r6, r1
    10fc:	71 08       	sbc	r7, r1
    10fe:	81 08       	sbc	r8, r1
    1100:	91 08       	sbc	r9, r1
    1102:	6d a9       	ldd	r22, Y+53	; 0x35
    1104:	7e a9       	ldd	r23, Y+54	; 0x36
    1106:	8f a9       	ldd	r24, Y+55	; 0x37
    1108:	98 ad       	ldd	r25, Y+56	; 0x38
    110a:	a6 0e       	add	r10, r22
    110c:	b7 1e       	adc	r11, r23
    110e:	c8 1e       	adc	r12, r24
    1110:	d9 1e       	adc	r13, r25
    1112:	a6 16       	cp	r10, r22
    1114:	b7 06       	cpc	r11, r23
    1116:	c8 06       	cpc	r12, r24
    1118:	d9 06       	cpc	r13, r25
    111a:	70 f0       	brcs	.+28     	; 0x1138 <__stack+0x8d9>
    111c:	a2 16       	cp	r10, r18
    111e:	b3 06       	cpc	r11, r19
    1120:	c4 06       	cpc	r12, r20
    1122:	d5 06       	cpc	r13, r21
    1124:	48 f4       	brcc	.+18     	; 0x1138 <__stack+0x8d9>
    1126:	08 94       	sec
    1128:	61 08       	sbc	r6, r1
    112a:	71 08       	sbc	r7, r1
    112c:	81 08       	sbc	r8, r1
    112e:	91 08       	sbc	r9, r1
    1130:	a6 0e       	add	r10, r22
    1132:	b7 1e       	adc	r11, r23
    1134:	c8 1e       	adc	r12, r24
    1136:	d9 1e       	adc	r13, r25
    1138:	d6 01       	movw	r26, r12
    113a:	c5 01       	movw	r24, r10
    113c:	82 1b       	sub	r24, r18
    113e:	93 0b       	sbc	r25, r19
    1140:	a4 0b       	sbc	r26, r20
    1142:	b5 0b       	sbc	r27, r21
    1144:	89 a7       	std	Y+41, r24	; 0x29
    1146:	9a a7       	std	Y+42, r25	; 0x2a
    1148:	ab a7       	std	Y+43, r26	; 0x2b
    114a:	bc a7       	std	Y+44, r27	; 0x2c
    114c:	d1 01       	movw	r26, r2
    114e:	99 27       	eor	r25, r25
    1150:	88 27       	eor	r24, r24
    1152:	64 01       	movw	r12, r8
    1154:	53 01       	movw	r10, r6
    1156:	a8 2a       	or	r10, r24
    1158:	b9 2a       	or	r11, r25
    115a:	ca 2a       	or	r12, r26
    115c:	db 2a       	or	r13, r27
    115e:	25 96       	adiw	r28, 0x05	; 5
    1160:	ac ae       	std	Y+60, r10	; 0x3c
    1162:	bd ae       	std	Y+61, r11	; 0x3d
    1164:	ce ae       	std	Y+62, r12	; 0x3e
    1166:	df ae       	std	Y+63, r13	; 0x3f
    1168:	25 97       	sbiw	r28, 0x05	; 5
    116a:	86 01       	movw	r16, r12
    116c:	75 01       	movw	r14, r10
    116e:	2f ef       	ldi	r18, 0xFF	; 255
    1170:	3f ef       	ldi	r19, 0xFF	; 255
    1172:	40 e0       	ldi	r20, 0x00	; 0
    1174:	50 e0       	ldi	r21, 0x00	; 0
    1176:	e2 22       	and	r14, r18
    1178:	f3 22       	and	r15, r19
    117a:	04 23       	and	r16, r20
    117c:	15 23       	and	r17, r21
    117e:	a6 01       	movw	r20, r12
    1180:	66 27       	eor	r22, r22
    1182:	77 27       	eor	r23, r23
    1184:	ad 96       	adiw	r28, 0x2d	; 45
    1186:	4c af       	std	Y+60, r20	; 0x3c
    1188:	5d af       	std	Y+61, r21	; 0x3d
    118a:	6e af       	std	Y+62, r22	; 0x3e
    118c:	7f af       	std	Y+63, r23	; 0x3f
    118e:	ad 97       	sbiw	r28, 0x2d	; 45
    1190:	a9 a8       	ldd	r10, Y+49	; 0x31
    1192:	ba a8       	ldd	r11, Y+50	; 0x32
    1194:	cb a8       	ldd	r12, Y+51	; 0x33
    1196:	dc a8       	ldd	r13, Y+52	; 0x34
    1198:	6f ef       	ldi	r22, 0xFF	; 255
    119a:	7f ef       	ldi	r23, 0xFF	; 255
    119c:	80 e0       	ldi	r24, 0x00	; 0
    119e:	90 e0       	ldi	r25, 0x00	; 0
    11a0:	a6 22       	and	r10, r22
    11a2:	b7 22       	and	r11, r23
    11a4:	c8 22       	and	r12, r24
    11a6:	d9 22       	and	r13, r25
    11a8:	89 a9       	ldd	r24, Y+49	; 0x31
    11aa:	9a a9       	ldd	r25, Y+50	; 0x32
    11ac:	ab a9       	ldd	r26, Y+51	; 0x33
    11ae:	bc a9       	ldd	r27, Y+52	; 0x34
    11b0:	1d 01       	movw	r2, r26
    11b2:	44 24       	eor	r4, r4
    11b4:	55 24       	eor	r5, r5
    11b6:	c8 01       	movw	r24, r16
    11b8:	b7 01       	movw	r22, r14
    11ba:	a6 01       	movw	r20, r12
    11bc:	95 01       	movw	r18, r10
    11be:	0e 94 d9 29 	call	0x53b2	; 0x53b2 <__mulsi3>
    11c2:	a9 96       	adiw	r28, 0x29	; 41
    11c4:	6c af       	std	Y+60, r22	; 0x3c
    11c6:	7d af       	std	Y+61, r23	; 0x3d
    11c8:	8e af       	std	Y+62, r24	; 0x3e
    11ca:	9f af       	std	Y+63, r25	; 0x3f
    11cc:	a9 97       	sbiw	r28, 0x29	; 41
    11ce:	c8 01       	movw	r24, r16
    11d0:	b7 01       	movw	r22, r14
    11d2:	a2 01       	movw	r20, r4
    11d4:	91 01       	movw	r18, r2
    11d6:	0e 94 d9 29 	call	0x53b2	; 0x53b2 <__mulsi3>
    11da:	3b 01       	movw	r6, r22
    11dc:	4c 01       	movw	r8, r24
    11de:	ad 96       	adiw	r28, 0x2d	; 45
    11e0:	6c ad       	ldd	r22, Y+60	; 0x3c
    11e2:	7d ad       	ldd	r23, Y+61	; 0x3d
    11e4:	8e ad       	ldd	r24, Y+62	; 0x3e
    11e6:	9f ad       	ldd	r25, Y+63	; 0x3f
    11e8:	ad 97       	sbiw	r28, 0x2d	; 45
    11ea:	a6 01       	movw	r20, r12
    11ec:	95 01       	movw	r18, r10
    11ee:	0e 94 d9 29 	call	0x53b2	; 0x53b2 <__mulsi3>
    11f2:	7b 01       	movw	r14, r22
    11f4:	8c 01       	movw	r16, r24
    11f6:	ad 96       	adiw	r28, 0x2d	; 45
    11f8:	6c ad       	ldd	r22, Y+60	; 0x3c
    11fa:	7d ad       	ldd	r23, Y+61	; 0x3d
    11fc:	8e ad       	ldd	r24, Y+62	; 0x3e
    11fe:	9f ad       	ldd	r25, Y+63	; 0x3f
    1200:	ad 97       	sbiw	r28, 0x2d	; 45
    1202:	a2 01       	movw	r20, r4
    1204:	91 01       	movw	r18, r2
    1206:	0e 94 d9 29 	call	0x53b2	; 0x53b2 <__mulsi3>
    120a:	5b 01       	movw	r10, r22
    120c:	6c 01       	movw	r12, r24
    120e:	a8 01       	movw	r20, r16
    1210:	97 01       	movw	r18, r14
    1212:	26 0d       	add	r18, r6
    1214:	37 1d       	adc	r19, r7
    1216:	48 1d       	adc	r20, r8
    1218:	59 1d       	adc	r21, r9
    121a:	a9 96       	adiw	r28, 0x29	; 41
    121c:	6c ac       	ldd	r6, Y+60	; 0x3c
    121e:	7d ac       	ldd	r7, Y+61	; 0x3d
    1220:	8e ac       	ldd	r8, Y+62	; 0x3e
    1222:	9f ac       	ldd	r9, Y+63	; 0x3f
    1224:	a9 97       	sbiw	r28, 0x29	; 41
    1226:	c4 01       	movw	r24, r8
    1228:	aa 27       	eor	r26, r26
    122a:	bb 27       	eor	r27, r27
    122c:	28 0f       	add	r18, r24
    122e:	39 1f       	adc	r19, r25
    1230:	4a 1f       	adc	r20, r26
    1232:	5b 1f       	adc	r21, r27
    1234:	2e 15       	cp	r18, r14
    1236:	3f 05       	cpc	r19, r15
    1238:	40 07       	cpc	r20, r16
    123a:	51 07       	cpc	r21, r17
    123c:	48 f4       	brcc	.+18     	; 0x1250 <__stack+0x9f1>
    123e:	e1 2c       	mov	r14, r1
    1240:	f1 2c       	mov	r15, r1
    1242:	61 e0       	ldi	r22, 0x01	; 1
    1244:	06 2f       	mov	r16, r22
    1246:	11 2d       	mov	r17, r1
    1248:	ae 0c       	add	r10, r14
    124a:	bf 1c       	adc	r11, r15
    124c:	c0 1e       	adc	r12, r16
    124e:	d1 1e       	adc	r13, r17
    1250:	ca 01       	movw	r24, r20
    1252:	aa 27       	eor	r26, r26
    1254:	bb 27       	eor	r27, r27
    1256:	bc 01       	movw	r22, r24
    1258:	cd 01       	movw	r24, r26
    125a:	6a 0d       	add	r22, r10
    125c:	7b 1d       	adc	r23, r11
    125e:	8c 1d       	adc	r24, r12
    1260:	9d 1d       	adc	r25, r13
    1262:	69 a4       	ldd	r6, Y+41	; 0x29
    1264:	7a a4       	ldd	r7, Y+42	; 0x2a
    1266:	8b a4       	ldd	r8, Y+43	; 0x2b
    1268:	9c a4       	ldd	r9, Y+44	; 0x2c
    126a:	66 16       	cp	r6, r22
    126c:	77 06       	cpc	r7, r23
    126e:	88 06       	cpc	r8, r24
    1270:	99 06       	cpc	r9, r25
    1272:	50 f1       	brcs	.+84     	; 0x12c8 <__stack+0xa69>
    1274:	66 15       	cp	r22, r6
    1276:	77 05       	cpc	r23, r7
    1278:	88 05       	cpc	r24, r8
    127a:	99 05       	cpc	r25, r9
    127c:	09 f0       	breq	.+2      	; 0x1280 <__stack+0xa21>
    127e:	4d c0       	rjmp	.+154    	; 0x131a <__stack+0xabb>
    1280:	d9 01       	movw	r26, r18
    1282:	99 27       	eor	r25, r25
    1284:	88 27       	eor	r24, r24
    1286:	a9 96       	adiw	r28, 0x29	; 41
    1288:	2c ad       	ldd	r18, Y+60	; 0x3c
    128a:	3d ad       	ldd	r19, Y+61	; 0x3d
    128c:	4e ad       	ldd	r20, Y+62	; 0x3e
    128e:	5f ad       	ldd	r21, Y+63	; 0x3f
    1290:	a9 97       	sbiw	r28, 0x29	; 41
    1292:	40 70       	andi	r20, 0x00	; 0
    1294:	50 70       	andi	r21, 0x00	; 0
    1296:	82 0f       	add	r24, r18
    1298:	93 1f       	adc	r25, r19
    129a:	a4 1f       	adc	r26, r20
    129c:	b5 1f       	adc	r27, r21
    129e:	21 96       	adiw	r28, 0x01	; 1
    12a0:	2c ad       	ldd	r18, Y+60	; 0x3c
    12a2:	3d ad       	ldd	r19, Y+61	; 0x3d
    12a4:	4e ad       	ldd	r20, Y+62	; 0x3e
    12a6:	5f ad       	ldd	r21, Y+63	; 0x3f
    12a8:	21 97       	sbiw	r28, 0x01	; 1
    12aa:	e2 96       	adiw	r28, 0x32	; 50
    12ac:	0f ac       	ldd	r0, Y+63	; 0x3f
    12ae:	e2 97       	sbiw	r28, 0x32	; 50
    12b0:	04 c0       	rjmp	.+8      	; 0x12ba <__stack+0xa5b>
    12b2:	22 0f       	add	r18, r18
    12b4:	33 1f       	adc	r19, r19
    12b6:	44 1f       	adc	r20, r20
    12b8:	55 1f       	adc	r21, r21
    12ba:	0a 94       	dec	r0
    12bc:	d2 f7       	brpl	.-12     	; 0x12b2 <__stack+0xa53>
    12be:	28 17       	cp	r18, r24
    12c0:	39 07       	cpc	r19, r25
    12c2:	4a 07       	cpc	r20, r26
    12c4:	5b 07       	cpc	r21, r27
    12c6:	48 f5       	brcc	.+82     	; 0x131a <__stack+0xabb>
    12c8:	25 96       	adiw	r28, 0x05	; 5
    12ca:	0c ad       	ldd	r16, Y+60	; 0x3c
    12cc:	1d ad       	ldd	r17, Y+61	; 0x3d
    12ce:	2e ad       	ldd	r18, Y+62	; 0x3e
    12d0:	3f ad       	ldd	r19, Y+63	; 0x3f
    12d2:	25 97       	sbiw	r28, 0x05	; 5
    12d4:	01 50       	subi	r16, 0x01	; 1
    12d6:	10 40       	sbci	r17, 0x00	; 0
    12d8:	20 40       	sbci	r18, 0x00	; 0
    12da:	30 40       	sbci	r19, 0x00	; 0
    12dc:	25 96       	adiw	r28, 0x05	; 5
    12de:	0c af       	std	Y+60, r16	; 0x3c
    12e0:	1d af       	std	Y+61, r17	; 0x3d
    12e2:	2e af       	std	Y+62, r18	; 0x3e
    12e4:	3f af       	std	Y+63, r19	; 0x3f
    12e6:	25 97       	sbiw	r28, 0x05	; 5
    12e8:	18 c0       	rjmp	.+48     	; 0x131a <__stack+0xabb>
    12ea:	66 24       	eor	r6, r6
    12ec:	77 24       	eor	r7, r7
    12ee:	43 01       	movw	r8, r6
    12f0:	21 e0       	ldi	r18, 0x01	; 1
    12f2:	30 e0       	ldi	r19, 0x00	; 0
    12f4:	40 e0       	ldi	r20, 0x00	; 0
    12f6:	50 e0       	ldi	r21, 0x00	; 0
    12f8:	25 96       	adiw	r28, 0x05	; 5
    12fa:	2c af       	std	Y+60, r18	; 0x3c
    12fc:	3d af       	std	Y+61, r19	; 0x3d
    12fe:	4e af       	std	Y+62, r20	; 0x3e
    1300:	5f af       	std	Y+63, r21	; 0x3f
    1302:	25 97       	sbiw	r28, 0x05	; 5
    1304:	0d c0       	rjmp	.+26     	; 0x1320 <__stack+0xac1>
    1306:	66 24       	eor	r6, r6
    1308:	77 24       	eor	r7, r7
    130a:	43 01       	movw	r8, r6
    130c:	25 96       	adiw	r28, 0x05	; 5
    130e:	1c ae       	std	Y+60, r1	; 0x3c
    1310:	1d ae       	std	Y+61, r1	; 0x3d
    1312:	1e ae       	std	Y+62, r1	; 0x3e
    1314:	1f ae       	std	Y+63, r1	; 0x3f
    1316:	25 97       	sbiw	r28, 0x05	; 5
    1318:	03 c0       	rjmp	.+6      	; 0x1320 <__stack+0xac1>
    131a:	66 24       	eor	r6, r6
    131c:	77 24       	eor	r7, r7
    131e:	43 01       	movw	r8, r6
    1320:	fe 01       	movw	r30, r28
    1322:	b1 96       	adiw	r30, 0x21	; 33
    1324:	88 e0       	ldi	r24, 0x08	; 8
    1326:	df 01       	movw	r26, r30
    1328:	1d 92       	st	X+, r1
    132a:	8a 95       	dec	r24
    132c:	e9 f7       	brne	.-6      	; 0x1328 <__stack+0xac9>
    132e:	25 96       	adiw	r28, 0x05	; 5
    1330:	ac ac       	ldd	r10, Y+60	; 0x3c
    1332:	bd ac       	ldd	r11, Y+61	; 0x3d
    1334:	ce ac       	ldd	r12, Y+62	; 0x3e
    1336:	df ac       	ldd	r13, Y+63	; 0x3f
    1338:	25 97       	sbiw	r28, 0x05	; 5
    133a:	a9 a2       	std	Y+33, r10	; 0x21
    133c:	ba a2       	std	Y+34, r11	; 0x22
    133e:	cb a2       	std	Y+35, r12	; 0x23
    1340:	dc a2       	std	Y+36, r13	; 0x24
    1342:	6d a2       	std	Y+37, r6	; 0x25
    1344:	7e a2       	std	Y+38, r7	; 0x26
    1346:	8f a2       	std	Y+39, r8	; 0x27
    1348:	98 a6       	std	Y+40, r9	; 0x28
    134a:	22 96       	adiw	r28, 0x02	; 2
    134c:	2f ad       	ldd	r18, Y+63	; 0x3f
    134e:	22 97       	sbiw	r28, 0x02	; 2
    1350:	3a a1       	ldd	r19, Y+34	; 0x22
    1352:	4b a1       	ldd	r20, Y+35	; 0x23
    1354:	5c a1       	ldd	r21, Y+36	; 0x24
    1356:	66 2d       	mov	r22, r6
    1358:	7e a1       	ldd	r23, Y+38	; 0x26
    135a:	df a0       	ldd	r13, Y+39	; 0x27
    135c:	98 a5       	ldd	r25, Y+40	; 0x28
    135e:	e1 96       	adiw	r28, 0x31	; 49
    1360:	ec ac       	ldd	r14, Y+60	; 0x3c
    1362:	fd ac       	ldd	r15, Y+61	; 0x3d
    1364:	0e ad       	ldd	r16, Y+62	; 0x3e
    1366:	1f ad       	ldd	r17, Y+63	; 0x3f
    1368:	e1 97       	sbiw	r28, 0x31	; 49
    136a:	e1 14       	cp	r14, r1
    136c:	f1 04       	cpc	r15, r1
    136e:	01 05       	cpc	r16, r1
    1370:	11 05       	cpc	r17, r1
    1372:	09 f4       	brne	.+2      	; 0x1376 <__stack+0xb17>
    1374:	56 c0       	rjmp	.+172    	; 0x1422 <__stack+0xbc3>
    1376:	21 95       	neg	r18
    1378:	81 e0       	ldi	r24, 0x01	; 1
    137a:	12 16       	cp	r1, r18
    137c:	08 f0       	brcs	.+2      	; 0x1380 <__stack+0xb21>
    137e:	80 e0       	ldi	r24, 0x00	; 0
    1380:	31 95       	neg	r19
    1382:	e1 e0       	ldi	r30, 0x01	; 1
    1384:	13 16       	cp	r1, r19
    1386:	08 f0       	brcs	.+2      	; 0x138a <__stack+0xb2b>
    1388:	e0 e0       	ldi	r30, 0x00	; 0
    138a:	93 2e       	mov	r9, r19
    138c:	98 1a       	sub	r9, r24
    138e:	81 e0       	ldi	r24, 0x01	; 1
    1390:	39 15       	cp	r19, r9
    1392:	08 f0       	brcs	.+2      	; 0x1396 <__stack+0xb37>
    1394:	80 e0       	ldi	r24, 0x00	; 0
    1396:	e8 2b       	or	r30, r24
    1398:	41 95       	neg	r20
    139a:	f1 e0       	ldi	r31, 0x01	; 1
    139c:	14 16       	cp	r1, r20
    139e:	08 f0       	brcs	.+2      	; 0x13a2 <__stack+0xb43>
    13a0:	f0 e0       	ldi	r31, 0x00	; 0
    13a2:	a4 2e       	mov	r10, r20
    13a4:	ae 1a       	sub	r10, r30
    13a6:	81 e0       	ldi	r24, 0x01	; 1
    13a8:	4a 15       	cp	r20, r10
    13aa:	08 f0       	brcs	.+2      	; 0x13ae <__stack+0xb4f>
    13ac:	80 e0       	ldi	r24, 0x00	; 0
    13ae:	f8 2b       	or	r31, r24
    13b0:	51 95       	neg	r21
    13b2:	e1 e0       	ldi	r30, 0x01	; 1
    13b4:	15 16       	cp	r1, r21
    13b6:	08 f0       	brcs	.+2      	; 0x13ba <__stack+0xb5b>
    13b8:	e0 e0       	ldi	r30, 0x00	; 0
    13ba:	b5 2e       	mov	r11, r21
    13bc:	bf 1a       	sub	r11, r31
    13be:	81 e0       	ldi	r24, 0x01	; 1
    13c0:	5b 15       	cp	r21, r11
    13c2:	08 f0       	brcs	.+2      	; 0x13c6 <__stack+0xb67>
    13c4:	80 e0       	ldi	r24, 0x00	; 0
    13c6:	e8 2b       	or	r30, r24
    13c8:	61 95       	neg	r22
    13ca:	f1 e0       	ldi	r31, 0x01	; 1
    13cc:	16 16       	cp	r1, r22
    13ce:	08 f0       	brcs	.+2      	; 0x13d2 <__stack+0xb73>
    13d0:	f0 e0       	ldi	r31, 0x00	; 0
    13d2:	a6 2f       	mov	r26, r22
    13d4:	ae 1b       	sub	r26, r30
    13d6:	81 e0       	ldi	r24, 0x01	; 1
    13d8:	6a 17       	cp	r22, r26
    13da:	08 f0       	brcs	.+2      	; 0x13de <__stack+0xb7f>
    13dc:	80 e0       	ldi	r24, 0x00	; 0
    13de:	f8 2b       	or	r31, r24
    13e0:	71 95       	neg	r23
    13e2:	e1 e0       	ldi	r30, 0x01	; 1
    13e4:	17 16       	cp	r1, r23
    13e6:	08 f0       	brcs	.+2      	; 0x13ea <__stack+0xb8b>
    13e8:	e0 e0       	ldi	r30, 0x00	; 0
    13ea:	c7 2e       	mov	r12, r23
    13ec:	cf 1a       	sub	r12, r31
    13ee:	81 e0       	ldi	r24, 0x01	; 1
    13f0:	7c 15       	cp	r23, r12
    13f2:	08 f0       	brcs	.+2      	; 0x13f6 <__stack+0xb97>
    13f4:	80 e0       	ldi	r24, 0x00	; 0
    13f6:	e8 2b       	or	r30, r24
    13f8:	8d 2d       	mov	r24, r13
    13fa:	81 95       	neg	r24
    13fc:	f1 e0       	ldi	r31, 0x01	; 1
    13fe:	18 16       	cp	r1, r24
    1400:	08 f0       	brcs	.+2      	; 0x1404 <__stack+0xba5>
    1402:	f0 e0       	ldi	r31, 0x00	; 0
    1404:	d8 2e       	mov	r13, r24
    1406:	de 1a       	sub	r13, r30
    1408:	e1 e0       	ldi	r30, 0x01	; 1
    140a:	8d 15       	cp	r24, r13
    140c:	08 f0       	brcs	.+2      	; 0x1410 <__stack+0xbb1>
    140e:	e0 e0       	ldi	r30, 0x00	; 0
    1410:	fe 2b       	or	r31, r30
    1412:	89 2f       	mov	r24, r25
    1414:	81 95       	neg	r24
    1416:	39 2d       	mov	r19, r9
    1418:	a5 01       	movw	r20, r10
    141a:	6a 2f       	mov	r22, r26
    141c:	7c 2d       	mov	r23, r12
    141e:	98 2f       	mov	r25, r24
    1420:	9f 1b       	sub	r25, r31
    1422:	8d 2d       	mov	r24, r13
    1424:	ce 58       	subi	r28, 0x8E	; 142
    1426:	df 4f       	sbci	r29, 0xFF	; 255
    1428:	e2 e1       	ldi	r30, 0x12	; 18
    142a:	0c 94 36 2a 	jmp	0x546c	; 0x546c <__epilogue_restores__>

0000142e <_fpadd_parts>:
    142e:	a0 e0       	ldi	r26, 0x00	; 0
    1430:	b0 e0       	ldi	r27, 0x00	; 0
    1432:	ed e1       	ldi	r30, 0x1D	; 29
    1434:	fa e0       	ldi	r31, 0x0A	; 10
    1436:	0c 94 1a 2a 	jmp	0x5434	; 0x5434 <__prologue_saves__>
    143a:	dc 01       	movw	r26, r24
    143c:	2b 01       	movw	r4, r22
    143e:	fa 01       	movw	r30, r20
    1440:	9c 91       	ld	r25, X
    1442:	92 30       	cpi	r25, 0x02	; 2
    1444:	08 f4       	brcc	.+2      	; 0x1448 <_fpadd_parts+0x1a>
    1446:	39 c1       	rjmp	.+626    	; 0x16ba <_fpadd_parts+0x28c>
    1448:	eb 01       	movw	r28, r22
    144a:	88 81       	ld	r24, Y
    144c:	82 30       	cpi	r24, 0x02	; 2
    144e:	08 f4       	brcc	.+2      	; 0x1452 <_fpadd_parts+0x24>
    1450:	33 c1       	rjmp	.+614    	; 0x16b8 <_fpadd_parts+0x28a>
    1452:	94 30       	cpi	r25, 0x04	; 4
    1454:	69 f4       	brne	.+26     	; 0x1470 <_fpadd_parts+0x42>
    1456:	84 30       	cpi	r24, 0x04	; 4
    1458:	09 f0       	breq	.+2      	; 0x145c <_fpadd_parts+0x2e>
    145a:	2f c1       	rjmp	.+606    	; 0x16ba <_fpadd_parts+0x28c>
    145c:	11 96       	adiw	r26, 0x01	; 1
    145e:	9c 91       	ld	r25, X
    1460:	11 97       	sbiw	r26, 0x01	; 1
    1462:	89 81       	ldd	r24, Y+1	; 0x01
    1464:	98 17       	cp	r25, r24
    1466:	09 f4       	brne	.+2      	; 0x146a <_fpadd_parts+0x3c>
    1468:	28 c1       	rjmp	.+592    	; 0x16ba <_fpadd_parts+0x28c>
    146a:	ae ea       	ldi	r26, 0xAE	; 174
    146c:	b0 e0       	ldi	r27, 0x00	; 0
    146e:	25 c1       	rjmp	.+586    	; 0x16ba <_fpadd_parts+0x28c>
    1470:	84 30       	cpi	r24, 0x04	; 4
    1472:	09 f4       	brne	.+2      	; 0x1476 <_fpadd_parts+0x48>
    1474:	21 c1       	rjmp	.+578    	; 0x16b8 <_fpadd_parts+0x28a>
    1476:	82 30       	cpi	r24, 0x02	; 2
    1478:	a9 f4       	brne	.+42     	; 0x14a4 <_fpadd_parts+0x76>
    147a:	92 30       	cpi	r25, 0x02	; 2
    147c:	09 f0       	breq	.+2      	; 0x1480 <_fpadd_parts+0x52>
    147e:	1d c1       	rjmp	.+570    	; 0x16ba <_fpadd_parts+0x28c>
    1480:	9a 01       	movw	r18, r20
    1482:	ad 01       	movw	r20, r26
    1484:	88 e0       	ldi	r24, 0x08	; 8
    1486:	ea 01       	movw	r28, r20
    1488:	09 90       	ld	r0, Y+
    148a:	ae 01       	movw	r20, r28
    148c:	e9 01       	movw	r28, r18
    148e:	09 92       	st	Y+, r0
    1490:	9e 01       	movw	r18, r28
    1492:	81 50       	subi	r24, 0x01	; 1
    1494:	c1 f7       	brne	.-16     	; 0x1486 <_fpadd_parts+0x58>
    1496:	e2 01       	movw	r28, r4
    1498:	89 81       	ldd	r24, Y+1	; 0x01
    149a:	11 96       	adiw	r26, 0x01	; 1
    149c:	9c 91       	ld	r25, X
    149e:	89 23       	and	r24, r25
    14a0:	81 83       	std	Z+1, r24	; 0x01
    14a2:	08 c1       	rjmp	.+528    	; 0x16b4 <_fpadd_parts+0x286>
    14a4:	92 30       	cpi	r25, 0x02	; 2
    14a6:	09 f4       	brne	.+2      	; 0x14aa <_fpadd_parts+0x7c>
    14a8:	07 c1       	rjmp	.+526    	; 0x16b8 <_fpadd_parts+0x28a>
    14aa:	12 96       	adiw	r26, 0x02	; 2
    14ac:	2d 90       	ld	r2, X+
    14ae:	3c 90       	ld	r3, X
    14b0:	13 97       	sbiw	r26, 0x03	; 3
    14b2:	eb 01       	movw	r28, r22
    14b4:	8a 81       	ldd	r24, Y+2	; 0x02
    14b6:	9b 81       	ldd	r25, Y+3	; 0x03
    14b8:	14 96       	adiw	r26, 0x04	; 4
    14ba:	ad 90       	ld	r10, X+
    14bc:	bd 90       	ld	r11, X+
    14be:	cd 90       	ld	r12, X+
    14c0:	dc 90       	ld	r13, X
    14c2:	17 97       	sbiw	r26, 0x07	; 7
    14c4:	ec 80       	ldd	r14, Y+4	; 0x04
    14c6:	fd 80       	ldd	r15, Y+5	; 0x05
    14c8:	0e 81       	ldd	r16, Y+6	; 0x06
    14ca:	1f 81       	ldd	r17, Y+7	; 0x07
    14cc:	91 01       	movw	r18, r2
    14ce:	28 1b       	sub	r18, r24
    14d0:	39 0b       	sbc	r19, r25
    14d2:	b9 01       	movw	r22, r18
    14d4:	37 ff       	sbrs	r19, 7
    14d6:	04 c0       	rjmp	.+8      	; 0x14e0 <_fpadd_parts+0xb2>
    14d8:	66 27       	eor	r22, r22
    14da:	77 27       	eor	r23, r23
    14dc:	62 1b       	sub	r22, r18
    14de:	73 0b       	sbc	r23, r19
    14e0:	60 32       	cpi	r22, 0x20	; 32
    14e2:	71 05       	cpc	r23, r1
    14e4:	0c f0       	brlt	.+2      	; 0x14e8 <_fpadd_parts+0xba>
    14e6:	61 c0       	rjmp	.+194    	; 0x15aa <_fpadd_parts+0x17c>
    14e8:	12 16       	cp	r1, r18
    14ea:	13 06       	cpc	r1, r19
    14ec:	6c f5       	brge	.+90     	; 0x1548 <_fpadd_parts+0x11a>
    14ee:	37 01       	movw	r6, r14
    14f0:	48 01       	movw	r8, r16
    14f2:	06 2e       	mov	r0, r22
    14f4:	04 c0       	rjmp	.+8      	; 0x14fe <_fpadd_parts+0xd0>
    14f6:	96 94       	lsr	r9
    14f8:	87 94       	ror	r8
    14fa:	77 94       	ror	r7
    14fc:	67 94       	ror	r6
    14fe:	0a 94       	dec	r0
    1500:	d2 f7       	brpl	.-12     	; 0x14f6 <_fpadd_parts+0xc8>
    1502:	21 e0       	ldi	r18, 0x01	; 1
    1504:	30 e0       	ldi	r19, 0x00	; 0
    1506:	40 e0       	ldi	r20, 0x00	; 0
    1508:	50 e0       	ldi	r21, 0x00	; 0
    150a:	04 c0       	rjmp	.+8      	; 0x1514 <_fpadd_parts+0xe6>
    150c:	22 0f       	add	r18, r18
    150e:	33 1f       	adc	r19, r19
    1510:	44 1f       	adc	r20, r20
    1512:	55 1f       	adc	r21, r21
    1514:	6a 95       	dec	r22
    1516:	d2 f7       	brpl	.-12     	; 0x150c <_fpadd_parts+0xde>
    1518:	21 50       	subi	r18, 0x01	; 1
    151a:	30 40       	sbci	r19, 0x00	; 0
    151c:	40 40       	sbci	r20, 0x00	; 0
    151e:	50 40       	sbci	r21, 0x00	; 0
    1520:	2e 21       	and	r18, r14
    1522:	3f 21       	and	r19, r15
    1524:	40 23       	and	r20, r16
    1526:	51 23       	and	r21, r17
    1528:	21 15       	cp	r18, r1
    152a:	31 05       	cpc	r19, r1
    152c:	41 05       	cpc	r20, r1
    152e:	51 05       	cpc	r21, r1
    1530:	21 f0       	breq	.+8      	; 0x153a <_fpadd_parts+0x10c>
    1532:	21 e0       	ldi	r18, 0x01	; 1
    1534:	30 e0       	ldi	r19, 0x00	; 0
    1536:	40 e0       	ldi	r20, 0x00	; 0
    1538:	50 e0       	ldi	r21, 0x00	; 0
    153a:	79 01       	movw	r14, r18
    153c:	8a 01       	movw	r16, r20
    153e:	e6 28       	or	r14, r6
    1540:	f7 28       	or	r15, r7
    1542:	08 29       	or	r16, r8
    1544:	19 29       	or	r17, r9
    1546:	3c c0       	rjmp	.+120    	; 0x15c0 <_fpadd_parts+0x192>
    1548:	23 2b       	or	r18, r19
    154a:	d1 f1       	breq	.+116    	; 0x15c0 <_fpadd_parts+0x192>
    154c:	26 0e       	add	r2, r22
    154e:	37 1e       	adc	r3, r23
    1550:	35 01       	movw	r6, r10
    1552:	46 01       	movw	r8, r12
    1554:	06 2e       	mov	r0, r22
    1556:	04 c0       	rjmp	.+8      	; 0x1560 <_fpadd_parts+0x132>
    1558:	96 94       	lsr	r9
    155a:	87 94       	ror	r8
    155c:	77 94       	ror	r7
    155e:	67 94       	ror	r6
    1560:	0a 94       	dec	r0
    1562:	d2 f7       	brpl	.-12     	; 0x1558 <_fpadd_parts+0x12a>
    1564:	21 e0       	ldi	r18, 0x01	; 1
    1566:	30 e0       	ldi	r19, 0x00	; 0
    1568:	40 e0       	ldi	r20, 0x00	; 0
    156a:	50 e0       	ldi	r21, 0x00	; 0
    156c:	04 c0       	rjmp	.+8      	; 0x1576 <_fpadd_parts+0x148>
    156e:	22 0f       	add	r18, r18
    1570:	33 1f       	adc	r19, r19
    1572:	44 1f       	adc	r20, r20
    1574:	55 1f       	adc	r21, r21
    1576:	6a 95       	dec	r22
    1578:	d2 f7       	brpl	.-12     	; 0x156e <_fpadd_parts+0x140>
    157a:	21 50       	subi	r18, 0x01	; 1
    157c:	30 40       	sbci	r19, 0x00	; 0
    157e:	40 40       	sbci	r20, 0x00	; 0
    1580:	50 40       	sbci	r21, 0x00	; 0
    1582:	2a 21       	and	r18, r10
    1584:	3b 21       	and	r19, r11
    1586:	4c 21       	and	r20, r12
    1588:	5d 21       	and	r21, r13
    158a:	21 15       	cp	r18, r1
    158c:	31 05       	cpc	r19, r1
    158e:	41 05       	cpc	r20, r1
    1590:	51 05       	cpc	r21, r1
    1592:	21 f0       	breq	.+8      	; 0x159c <_fpadd_parts+0x16e>
    1594:	21 e0       	ldi	r18, 0x01	; 1
    1596:	30 e0       	ldi	r19, 0x00	; 0
    1598:	40 e0       	ldi	r20, 0x00	; 0
    159a:	50 e0       	ldi	r21, 0x00	; 0
    159c:	59 01       	movw	r10, r18
    159e:	6a 01       	movw	r12, r20
    15a0:	a6 28       	or	r10, r6
    15a2:	b7 28       	or	r11, r7
    15a4:	c8 28       	or	r12, r8
    15a6:	d9 28       	or	r13, r9
    15a8:	0b c0       	rjmp	.+22     	; 0x15c0 <_fpadd_parts+0x192>
    15aa:	82 15       	cp	r24, r2
    15ac:	93 05       	cpc	r25, r3
    15ae:	2c f0       	brlt	.+10     	; 0x15ba <_fpadd_parts+0x18c>
    15b0:	1c 01       	movw	r2, r24
    15b2:	aa 24       	eor	r10, r10
    15b4:	bb 24       	eor	r11, r11
    15b6:	65 01       	movw	r12, r10
    15b8:	03 c0       	rjmp	.+6      	; 0x15c0 <_fpadd_parts+0x192>
    15ba:	ee 24       	eor	r14, r14
    15bc:	ff 24       	eor	r15, r15
    15be:	87 01       	movw	r16, r14
    15c0:	11 96       	adiw	r26, 0x01	; 1
    15c2:	9c 91       	ld	r25, X
    15c4:	d2 01       	movw	r26, r4
    15c6:	11 96       	adiw	r26, 0x01	; 1
    15c8:	8c 91       	ld	r24, X
    15ca:	98 17       	cp	r25, r24
    15cc:	09 f4       	brne	.+2      	; 0x15d0 <_fpadd_parts+0x1a2>
    15ce:	45 c0       	rjmp	.+138    	; 0x165a <_fpadd_parts+0x22c>
    15d0:	99 23       	and	r25, r25
    15d2:	39 f0       	breq	.+14     	; 0x15e2 <_fpadd_parts+0x1b4>
    15d4:	a8 01       	movw	r20, r16
    15d6:	97 01       	movw	r18, r14
    15d8:	2a 19       	sub	r18, r10
    15da:	3b 09       	sbc	r19, r11
    15dc:	4c 09       	sbc	r20, r12
    15de:	5d 09       	sbc	r21, r13
    15e0:	06 c0       	rjmp	.+12     	; 0x15ee <_fpadd_parts+0x1c0>
    15e2:	a6 01       	movw	r20, r12
    15e4:	95 01       	movw	r18, r10
    15e6:	2e 19       	sub	r18, r14
    15e8:	3f 09       	sbc	r19, r15
    15ea:	40 0b       	sbc	r20, r16
    15ec:	51 0b       	sbc	r21, r17
    15ee:	57 fd       	sbrc	r21, 7
    15f0:	08 c0       	rjmp	.+16     	; 0x1602 <_fpadd_parts+0x1d4>
    15f2:	11 82       	std	Z+1, r1	; 0x01
    15f4:	33 82       	std	Z+3, r3	; 0x03
    15f6:	22 82       	std	Z+2, r2	; 0x02
    15f8:	24 83       	std	Z+4, r18	; 0x04
    15fa:	35 83       	std	Z+5, r19	; 0x05
    15fc:	46 83       	std	Z+6, r20	; 0x06
    15fe:	57 83       	std	Z+7, r21	; 0x07
    1600:	1d c0       	rjmp	.+58     	; 0x163c <_fpadd_parts+0x20e>
    1602:	81 e0       	ldi	r24, 0x01	; 1
    1604:	81 83       	std	Z+1, r24	; 0x01
    1606:	33 82       	std	Z+3, r3	; 0x03
    1608:	22 82       	std	Z+2, r2	; 0x02
    160a:	88 27       	eor	r24, r24
    160c:	99 27       	eor	r25, r25
    160e:	dc 01       	movw	r26, r24
    1610:	82 1b       	sub	r24, r18
    1612:	93 0b       	sbc	r25, r19
    1614:	a4 0b       	sbc	r26, r20
    1616:	b5 0b       	sbc	r27, r21
    1618:	84 83       	std	Z+4, r24	; 0x04
    161a:	95 83       	std	Z+5, r25	; 0x05
    161c:	a6 83       	std	Z+6, r26	; 0x06
    161e:	b7 83       	std	Z+7, r27	; 0x07
    1620:	0d c0       	rjmp	.+26     	; 0x163c <_fpadd_parts+0x20e>
    1622:	22 0f       	add	r18, r18
    1624:	33 1f       	adc	r19, r19
    1626:	44 1f       	adc	r20, r20
    1628:	55 1f       	adc	r21, r21
    162a:	24 83       	std	Z+4, r18	; 0x04
    162c:	35 83       	std	Z+5, r19	; 0x05
    162e:	46 83       	std	Z+6, r20	; 0x06
    1630:	57 83       	std	Z+7, r21	; 0x07
    1632:	82 81       	ldd	r24, Z+2	; 0x02
    1634:	93 81       	ldd	r25, Z+3	; 0x03
    1636:	01 97       	sbiw	r24, 0x01	; 1
    1638:	93 83       	std	Z+3, r25	; 0x03
    163a:	82 83       	std	Z+2, r24	; 0x02
    163c:	24 81       	ldd	r18, Z+4	; 0x04
    163e:	35 81       	ldd	r19, Z+5	; 0x05
    1640:	46 81       	ldd	r20, Z+6	; 0x06
    1642:	57 81       	ldd	r21, Z+7	; 0x07
    1644:	da 01       	movw	r26, r20
    1646:	c9 01       	movw	r24, r18
    1648:	01 97       	sbiw	r24, 0x01	; 1
    164a:	a1 09       	sbc	r26, r1
    164c:	b1 09       	sbc	r27, r1
    164e:	8f 5f       	subi	r24, 0xFF	; 255
    1650:	9f 4f       	sbci	r25, 0xFF	; 255
    1652:	af 4f       	sbci	r26, 0xFF	; 255
    1654:	bf 43       	sbci	r27, 0x3F	; 63
    1656:	28 f3       	brcs	.-54     	; 0x1622 <_fpadd_parts+0x1f4>
    1658:	0b c0       	rjmp	.+22     	; 0x1670 <_fpadd_parts+0x242>
    165a:	91 83       	std	Z+1, r25	; 0x01
    165c:	33 82       	std	Z+3, r3	; 0x03
    165e:	22 82       	std	Z+2, r2	; 0x02
    1660:	ea 0c       	add	r14, r10
    1662:	fb 1c       	adc	r15, r11
    1664:	0c 1d       	adc	r16, r12
    1666:	1d 1d       	adc	r17, r13
    1668:	e4 82       	std	Z+4, r14	; 0x04
    166a:	f5 82       	std	Z+5, r15	; 0x05
    166c:	06 83       	std	Z+6, r16	; 0x06
    166e:	17 83       	std	Z+7, r17	; 0x07
    1670:	83 e0       	ldi	r24, 0x03	; 3
    1672:	80 83       	st	Z, r24
    1674:	24 81       	ldd	r18, Z+4	; 0x04
    1676:	35 81       	ldd	r19, Z+5	; 0x05
    1678:	46 81       	ldd	r20, Z+6	; 0x06
    167a:	57 81       	ldd	r21, Z+7	; 0x07
    167c:	57 ff       	sbrs	r21, 7
    167e:	1a c0       	rjmp	.+52     	; 0x16b4 <_fpadd_parts+0x286>
    1680:	c9 01       	movw	r24, r18
    1682:	aa 27       	eor	r26, r26
    1684:	97 fd       	sbrc	r25, 7
    1686:	a0 95       	com	r26
    1688:	ba 2f       	mov	r27, r26
    168a:	81 70       	andi	r24, 0x01	; 1
    168c:	90 70       	andi	r25, 0x00	; 0
    168e:	a0 70       	andi	r26, 0x00	; 0
    1690:	b0 70       	andi	r27, 0x00	; 0
    1692:	56 95       	lsr	r21
    1694:	47 95       	ror	r20
    1696:	37 95       	ror	r19
    1698:	27 95       	ror	r18
    169a:	82 2b       	or	r24, r18
    169c:	93 2b       	or	r25, r19
    169e:	a4 2b       	or	r26, r20
    16a0:	b5 2b       	or	r27, r21
    16a2:	84 83       	std	Z+4, r24	; 0x04
    16a4:	95 83       	std	Z+5, r25	; 0x05
    16a6:	a6 83       	std	Z+6, r26	; 0x06
    16a8:	b7 83       	std	Z+7, r27	; 0x07
    16aa:	82 81       	ldd	r24, Z+2	; 0x02
    16ac:	93 81       	ldd	r25, Z+3	; 0x03
    16ae:	01 96       	adiw	r24, 0x01	; 1
    16b0:	93 83       	std	Z+3, r25	; 0x03
    16b2:	82 83       	std	Z+2, r24	; 0x02
    16b4:	df 01       	movw	r26, r30
    16b6:	01 c0       	rjmp	.+2      	; 0x16ba <_fpadd_parts+0x28c>
    16b8:	d2 01       	movw	r26, r4
    16ba:	cd 01       	movw	r24, r26
    16bc:	cd b7       	in	r28, 0x3d	; 61
    16be:	de b7       	in	r29, 0x3e	; 62
    16c0:	e2 e1       	ldi	r30, 0x12	; 18
    16c2:	0c 94 36 2a 	jmp	0x546c	; 0x546c <__epilogue_restores__>

000016c6 <__subsf3>:
    16c6:	a0 e2       	ldi	r26, 0x20	; 32
    16c8:	b0 e0       	ldi	r27, 0x00	; 0
    16ca:	e9 e6       	ldi	r30, 0x69	; 105
    16cc:	fb e0       	ldi	r31, 0x0B	; 11
    16ce:	0c 94 26 2a 	jmp	0x544c	; 0x544c <__prologue_saves__+0x18>
    16d2:	69 83       	std	Y+1, r22	; 0x01
    16d4:	7a 83       	std	Y+2, r23	; 0x02
    16d6:	8b 83       	std	Y+3, r24	; 0x03
    16d8:	9c 83       	std	Y+4, r25	; 0x04
    16da:	2d 83       	std	Y+5, r18	; 0x05
    16dc:	3e 83       	std	Y+6, r19	; 0x06
    16de:	4f 83       	std	Y+7, r20	; 0x07
    16e0:	58 87       	std	Y+8, r21	; 0x08
    16e2:	e9 e0       	ldi	r30, 0x09	; 9
    16e4:	ee 2e       	mov	r14, r30
    16e6:	f1 2c       	mov	r15, r1
    16e8:	ec 0e       	add	r14, r28
    16ea:	fd 1e       	adc	r15, r29
    16ec:	ce 01       	movw	r24, r28
    16ee:	01 96       	adiw	r24, 0x01	; 1
    16f0:	b7 01       	movw	r22, r14
    16f2:	0e 94 74 0e 	call	0x1ce8	; 0x1ce8 <__unpack_f>
    16f6:	8e 01       	movw	r16, r28
    16f8:	0f 5e       	subi	r16, 0xEF	; 239
    16fa:	1f 4f       	sbci	r17, 0xFF	; 255
    16fc:	ce 01       	movw	r24, r28
    16fe:	05 96       	adiw	r24, 0x05	; 5
    1700:	b8 01       	movw	r22, r16
    1702:	0e 94 74 0e 	call	0x1ce8	; 0x1ce8 <__unpack_f>
    1706:	8a 89       	ldd	r24, Y+18	; 0x12
    1708:	91 e0       	ldi	r25, 0x01	; 1
    170a:	89 27       	eor	r24, r25
    170c:	8a 8b       	std	Y+18, r24	; 0x12
    170e:	c7 01       	movw	r24, r14
    1710:	b8 01       	movw	r22, r16
    1712:	ae 01       	movw	r20, r28
    1714:	47 5e       	subi	r20, 0xE7	; 231
    1716:	5f 4f       	sbci	r21, 0xFF	; 255
    1718:	0e 94 17 0a 	call	0x142e	; 0x142e <_fpadd_parts>
    171c:	0e 94 9f 0d 	call	0x1b3e	; 0x1b3e <__pack_f>
    1720:	a0 96       	adiw	r28, 0x20	; 32
    1722:	e6 e0       	ldi	r30, 0x06	; 6
    1724:	0c 94 42 2a 	jmp	0x5484	; 0x5484 <__epilogue_restores__+0x18>

00001728 <__addsf3>:
    1728:	a0 e2       	ldi	r26, 0x20	; 32
    172a:	b0 e0       	ldi	r27, 0x00	; 0
    172c:	ea e9       	ldi	r30, 0x9A	; 154
    172e:	fb e0       	ldi	r31, 0x0B	; 11
    1730:	0c 94 26 2a 	jmp	0x544c	; 0x544c <__prologue_saves__+0x18>
    1734:	69 83       	std	Y+1, r22	; 0x01
    1736:	7a 83       	std	Y+2, r23	; 0x02
    1738:	8b 83       	std	Y+3, r24	; 0x03
    173a:	9c 83       	std	Y+4, r25	; 0x04
    173c:	2d 83       	std	Y+5, r18	; 0x05
    173e:	3e 83       	std	Y+6, r19	; 0x06
    1740:	4f 83       	std	Y+7, r20	; 0x07
    1742:	58 87       	std	Y+8, r21	; 0x08
    1744:	f9 e0       	ldi	r31, 0x09	; 9
    1746:	ef 2e       	mov	r14, r31
    1748:	f1 2c       	mov	r15, r1
    174a:	ec 0e       	add	r14, r28
    174c:	fd 1e       	adc	r15, r29
    174e:	ce 01       	movw	r24, r28
    1750:	01 96       	adiw	r24, 0x01	; 1
    1752:	b7 01       	movw	r22, r14
    1754:	0e 94 74 0e 	call	0x1ce8	; 0x1ce8 <__unpack_f>
    1758:	8e 01       	movw	r16, r28
    175a:	0f 5e       	subi	r16, 0xEF	; 239
    175c:	1f 4f       	sbci	r17, 0xFF	; 255
    175e:	ce 01       	movw	r24, r28
    1760:	05 96       	adiw	r24, 0x05	; 5
    1762:	b8 01       	movw	r22, r16
    1764:	0e 94 74 0e 	call	0x1ce8	; 0x1ce8 <__unpack_f>
    1768:	c7 01       	movw	r24, r14
    176a:	b8 01       	movw	r22, r16
    176c:	ae 01       	movw	r20, r28
    176e:	47 5e       	subi	r20, 0xE7	; 231
    1770:	5f 4f       	sbci	r21, 0xFF	; 255
    1772:	0e 94 17 0a 	call	0x142e	; 0x142e <_fpadd_parts>
    1776:	0e 94 9f 0d 	call	0x1b3e	; 0x1b3e <__pack_f>
    177a:	a0 96       	adiw	r28, 0x20	; 32
    177c:	e6 e0       	ldi	r30, 0x06	; 6
    177e:	0c 94 42 2a 	jmp	0x5484	; 0x5484 <__epilogue_restores__+0x18>

00001782 <__mulsf3>:
    1782:	a0 e2       	ldi	r26, 0x20	; 32
    1784:	b0 e0       	ldi	r27, 0x00	; 0
    1786:	e7 ec       	ldi	r30, 0xC7	; 199
    1788:	fb e0       	ldi	r31, 0x0B	; 11
    178a:	0c 94 1a 2a 	jmp	0x5434	; 0x5434 <__prologue_saves__>
    178e:	69 83       	std	Y+1, r22	; 0x01
    1790:	7a 83       	std	Y+2, r23	; 0x02
    1792:	8b 83       	std	Y+3, r24	; 0x03
    1794:	9c 83       	std	Y+4, r25	; 0x04
    1796:	2d 83       	std	Y+5, r18	; 0x05
    1798:	3e 83       	std	Y+6, r19	; 0x06
    179a:	4f 83       	std	Y+7, r20	; 0x07
    179c:	58 87       	std	Y+8, r21	; 0x08
    179e:	ce 01       	movw	r24, r28
    17a0:	01 96       	adiw	r24, 0x01	; 1
    17a2:	be 01       	movw	r22, r28
    17a4:	67 5f       	subi	r22, 0xF7	; 247
    17a6:	7f 4f       	sbci	r23, 0xFF	; 255
    17a8:	0e 94 74 0e 	call	0x1ce8	; 0x1ce8 <__unpack_f>
    17ac:	ce 01       	movw	r24, r28
    17ae:	05 96       	adiw	r24, 0x05	; 5
    17b0:	be 01       	movw	r22, r28
    17b2:	6f 5e       	subi	r22, 0xEF	; 239
    17b4:	7f 4f       	sbci	r23, 0xFF	; 255
    17b6:	0e 94 74 0e 	call	0x1ce8	; 0x1ce8 <__unpack_f>
    17ba:	99 85       	ldd	r25, Y+9	; 0x09
    17bc:	92 30       	cpi	r25, 0x02	; 2
    17be:	88 f0       	brcs	.+34     	; 0x17e2 <__mulsf3+0x60>
    17c0:	89 89       	ldd	r24, Y+17	; 0x11
    17c2:	82 30       	cpi	r24, 0x02	; 2
    17c4:	c8 f0       	brcs	.+50     	; 0x17f8 <__mulsf3+0x76>
    17c6:	94 30       	cpi	r25, 0x04	; 4
    17c8:	19 f4       	brne	.+6      	; 0x17d0 <__mulsf3+0x4e>
    17ca:	82 30       	cpi	r24, 0x02	; 2
    17cc:	51 f4       	brne	.+20     	; 0x17e2 <__mulsf3+0x60>
    17ce:	04 c0       	rjmp	.+8      	; 0x17d8 <__mulsf3+0x56>
    17d0:	84 30       	cpi	r24, 0x04	; 4
    17d2:	29 f4       	brne	.+10     	; 0x17de <__mulsf3+0x5c>
    17d4:	92 30       	cpi	r25, 0x02	; 2
    17d6:	81 f4       	brne	.+32     	; 0x17f8 <__mulsf3+0x76>
    17d8:	8e ea       	ldi	r24, 0xAE	; 174
    17da:	90 e0       	ldi	r25, 0x00	; 0
    17dc:	c6 c0       	rjmp	.+396    	; 0x196a <__mulsf3+0x1e8>
    17de:	92 30       	cpi	r25, 0x02	; 2
    17e0:	49 f4       	brne	.+18     	; 0x17f4 <__mulsf3+0x72>
    17e2:	20 e0       	ldi	r18, 0x00	; 0
    17e4:	9a 85       	ldd	r25, Y+10	; 0x0a
    17e6:	8a 89       	ldd	r24, Y+18	; 0x12
    17e8:	98 13       	cpse	r25, r24
    17ea:	21 e0       	ldi	r18, 0x01	; 1
    17ec:	2a 87       	std	Y+10, r18	; 0x0a
    17ee:	ce 01       	movw	r24, r28
    17f0:	09 96       	adiw	r24, 0x09	; 9
    17f2:	bb c0       	rjmp	.+374    	; 0x196a <__mulsf3+0x1e8>
    17f4:	82 30       	cpi	r24, 0x02	; 2
    17f6:	49 f4       	brne	.+18     	; 0x180a <__mulsf3+0x88>
    17f8:	20 e0       	ldi	r18, 0x00	; 0
    17fa:	9a 85       	ldd	r25, Y+10	; 0x0a
    17fc:	8a 89       	ldd	r24, Y+18	; 0x12
    17fe:	98 13       	cpse	r25, r24
    1800:	21 e0       	ldi	r18, 0x01	; 1
    1802:	2a 8b       	std	Y+18, r18	; 0x12
    1804:	ce 01       	movw	r24, r28
    1806:	41 96       	adiw	r24, 0x11	; 17
    1808:	b0 c0       	rjmp	.+352    	; 0x196a <__mulsf3+0x1e8>
    180a:	2d 84       	ldd	r2, Y+13	; 0x0d
    180c:	3e 84       	ldd	r3, Y+14	; 0x0e
    180e:	4f 84       	ldd	r4, Y+15	; 0x0f
    1810:	58 88       	ldd	r5, Y+16	; 0x10
    1812:	6d 88       	ldd	r6, Y+21	; 0x15
    1814:	7e 88       	ldd	r7, Y+22	; 0x16
    1816:	8f 88       	ldd	r8, Y+23	; 0x17
    1818:	98 8c       	ldd	r9, Y+24	; 0x18
    181a:	ee 24       	eor	r14, r14
    181c:	ff 24       	eor	r15, r15
    181e:	87 01       	movw	r16, r14
    1820:	aa 24       	eor	r10, r10
    1822:	bb 24       	eor	r11, r11
    1824:	65 01       	movw	r12, r10
    1826:	40 e0       	ldi	r20, 0x00	; 0
    1828:	50 e0       	ldi	r21, 0x00	; 0
    182a:	60 e0       	ldi	r22, 0x00	; 0
    182c:	70 e0       	ldi	r23, 0x00	; 0
    182e:	e0 e0       	ldi	r30, 0x00	; 0
    1830:	f0 e0       	ldi	r31, 0x00	; 0
    1832:	c1 01       	movw	r24, r2
    1834:	81 70       	andi	r24, 0x01	; 1
    1836:	90 70       	andi	r25, 0x00	; 0
    1838:	89 2b       	or	r24, r25
    183a:	e9 f0       	breq	.+58     	; 0x1876 <__mulsf3+0xf4>
    183c:	e6 0c       	add	r14, r6
    183e:	f7 1c       	adc	r15, r7
    1840:	08 1d       	adc	r16, r8
    1842:	19 1d       	adc	r17, r9
    1844:	9a 01       	movw	r18, r20
    1846:	ab 01       	movw	r20, r22
    1848:	2a 0d       	add	r18, r10
    184a:	3b 1d       	adc	r19, r11
    184c:	4c 1d       	adc	r20, r12
    184e:	5d 1d       	adc	r21, r13
    1850:	80 e0       	ldi	r24, 0x00	; 0
    1852:	90 e0       	ldi	r25, 0x00	; 0
    1854:	a0 e0       	ldi	r26, 0x00	; 0
    1856:	b0 e0       	ldi	r27, 0x00	; 0
    1858:	e6 14       	cp	r14, r6
    185a:	f7 04       	cpc	r15, r7
    185c:	08 05       	cpc	r16, r8
    185e:	19 05       	cpc	r17, r9
    1860:	20 f4       	brcc	.+8      	; 0x186a <__mulsf3+0xe8>
    1862:	81 e0       	ldi	r24, 0x01	; 1
    1864:	90 e0       	ldi	r25, 0x00	; 0
    1866:	a0 e0       	ldi	r26, 0x00	; 0
    1868:	b0 e0       	ldi	r27, 0x00	; 0
    186a:	ba 01       	movw	r22, r20
    186c:	a9 01       	movw	r20, r18
    186e:	48 0f       	add	r20, r24
    1870:	59 1f       	adc	r21, r25
    1872:	6a 1f       	adc	r22, r26
    1874:	7b 1f       	adc	r23, r27
    1876:	aa 0c       	add	r10, r10
    1878:	bb 1c       	adc	r11, r11
    187a:	cc 1c       	adc	r12, r12
    187c:	dd 1c       	adc	r13, r13
    187e:	97 fe       	sbrs	r9, 7
    1880:	08 c0       	rjmp	.+16     	; 0x1892 <__mulsf3+0x110>
    1882:	81 e0       	ldi	r24, 0x01	; 1
    1884:	90 e0       	ldi	r25, 0x00	; 0
    1886:	a0 e0       	ldi	r26, 0x00	; 0
    1888:	b0 e0       	ldi	r27, 0x00	; 0
    188a:	a8 2a       	or	r10, r24
    188c:	b9 2a       	or	r11, r25
    188e:	ca 2a       	or	r12, r26
    1890:	db 2a       	or	r13, r27
    1892:	31 96       	adiw	r30, 0x01	; 1
    1894:	e0 32       	cpi	r30, 0x20	; 32
    1896:	f1 05       	cpc	r31, r1
    1898:	49 f0       	breq	.+18     	; 0x18ac <__mulsf3+0x12a>
    189a:	66 0c       	add	r6, r6
    189c:	77 1c       	adc	r7, r7
    189e:	88 1c       	adc	r8, r8
    18a0:	99 1c       	adc	r9, r9
    18a2:	56 94       	lsr	r5
    18a4:	47 94       	ror	r4
    18a6:	37 94       	ror	r3
    18a8:	27 94       	ror	r2
    18aa:	c3 cf       	rjmp	.-122    	; 0x1832 <__mulsf3+0xb0>
    18ac:	fa 85       	ldd	r31, Y+10	; 0x0a
    18ae:	ea 89       	ldd	r30, Y+18	; 0x12
    18b0:	2b 89       	ldd	r18, Y+19	; 0x13
    18b2:	3c 89       	ldd	r19, Y+20	; 0x14
    18b4:	8b 85       	ldd	r24, Y+11	; 0x0b
    18b6:	9c 85       	ldd	r25, Y+12	; 0x0c
    18b8:	28 0f       	add	r18, r24
    18ba:	39 1f       	adc	r19, r25
    18bc:	2e 5f       	subi	r18, 0xFE	; 254
    18be:	3f 4f       	sbci	r19, 0xFF	; 255
    18c0:	17 c0       	rjmp	.+46     	; 0x18f0 <__mulsf3+0x16e>
    18c2:	ca 01       	movw	r24, r20
    18c4:	81 70       	andi	r24, 0x01	; 1
    18c6:	90 70       	andi	r25, 0x00	; 0
    18c8:	89 2b       	or	r24, r25
    18ca:	61 f0       	breq	.+24     	; 0x18e4 <__mulsf3+0x162>
    18cc:	16 95       	lsr	r17
    18ce:	07 95       	ror	r16
    18d0:	f7 94       	ror	r15
    18d2:	e7 94       	ror	r14
    18d4:	80 e0       	ldi	r24, 0x00	; 0
    18d6:	90 e0       	ldi	r25, 0x00	; 0
    18d8:	a0 e0       	ldi	r26, 0x00	; 0
    18da:	b0 e8       	ldi	r27, 0x80	; 128
    18dc:	e8 2a       	or	r14, r24
    18de:	f9 2a       	or	r15, r25
    18e0:	0a 2b       	or	r16, r26
    18e2:	1b 2b       	or	r17, r27
    18e4:	76 95       	lsr	r23
    18e6:	67 95       	ror	r22
    18e8:	57 95       	ror	r21
    18ea:	47 95       	ror	r20
    18ec:	2f 5f       	subi	r18, 0xFF	; 255
    18ee:	3f 4f       	sbci	r19, 0xFF	; 255
    18f0:	77 fd       	sbrc	r23, 7
    18f2:	e7 cf       	rjmp	.-50     	; 0x18c2 <__mulsf3+0x140>
    18f4:	0c c0       	rjmp	.+24     	; 0x190e <__mulsf3+0x18c>
    18f6:	44 0f       	add	r20, r20
    18f8:	55 1f       	adc	r21, r21
    18fa:	66 1f       	adc	r22, r22
    18fc:	77 1f       	adc	r23, r23
    18fe:	17 fd       	sbrc	r17, 7
    1900:	41 60       	ori	r20, 0x01	; 1
    1902:	ee 0c       	add	r14, r14
    1904:	ff 1c       	adc	r15, r15
    1906:	00 1f       	adc	r16, r16
    1908:	11 1f       	adc	r17, r17
    190a:	21 50       	subi	r18, 0x01	; 1
    190c:	30 40       	sbci	r19, 0x00	; 0
    190e:	40 30       	cpi	r20, 0x00	; 0
    1910:	90 e0       	ldi	r25, 0x00	; 0
    1912:	59 07       	cpc	r21, r25
    1914:	90 e0       	ldi	r25, 0x00	; 0
    1916:	69 07       	cpc	r22, r25
    1918:	90 e4       	ldi	r25, 0x40	; 64
    191a:	79 07       	cpc	r23, r25
    191c:	60 f3       	brcs	.-40     	; 0x18f6 <__mulsf3+0x174>
    191e:	2b 8f       	std	Y+27, r18	; 0x1b
    1920:	3c 8f       	std	Y+28, r19	; 0x1c
    1922:	db 01       	movw	r26, r22
    1924:	ca 01       	movw	r24, r20
    1926:	8f 77       	andi	r24, 0x7F	; 127
    1928:	90 70       	andi	r25, 0x00	; 0
    192a:	a0 70       	andi	r26, 0x00	; 0
    192c:	b0 70       	andi	r27, 0x00	; 0
    192e:	80 34       	cpi	r24, 0x40	; 64
    1930:	91 05       	cpc	r25, r1
    1932:	a1 05       	cpc	r26, r1
    1934:	b1 05       	cpc	r27, r1
    1936:	61 f4       	brne	.+24     	; 0x1950 <__mulsf3+0x1ce>
    1938:	47 fd       	sbrc	r20, 7
    193a:	0a c0       	rjmp	.+20     	; 0x1950 <__mulsf3+0x1ce>
    193c:	e1 14       	cp	r14, r1
    193e:	f1 04       	cpc	r15, r1
    1940:	01 05       	cpc	r16, r1
    1942:	11 05       	cpc	r17, r1
    1944:	29 f0       	breq	.+10     	; 0x1950 <__mulsf3+0x1ce>
    1946:	40 5c       	subi	r20, 0xC0	; 192
    1948:	5f 4f       	sbci	r21, 0xFF	; 255
    194a:	6f 4f       	sbci	r22, 0xFF	; 255
    194c:	7f 4f       	sbci	r23, 0xFF	; 255
    194e:	40 78       	andi	r20, 0x80	; 128
    1950:	1a 8e       	std	Y+26, r1	; 0x1a
    1952:	fe 17       	cp	r31, r30
    1954:	11 f0       	breq	.+4      	; 0x195a <__mulsf3+0x1d8>
    1956:	81 e0       	ldi	r24, 0x01	; 1
    1958:	8a 8f       	std	Y+26, r24	; 0x1a
    195a:	4d 8f       	std	Y+29, r20	; 0x1d
    195c:	5e 8f       	std	Y+30, r21	; 0x1e
    195e:	6f 8f       	std	Y+31, r22	; 0x1f
    1960:	78 a3       	std	Y+32, r23	; 0x20
    1962:	83 e0       	ldi	r24, 0x03	; 3
    1964:	89 8f       	std	Y+25, r24	; 0x19
    1966:	ce 01       	movw	r24, r28
    1968:	49 96       	adiw	r24, 0x19	; 25
    196a:	0e 94 9f 0d 	call	0x1b3e	; 0x1b3e <__pack_f>
    196e:	a0 96       	adiw	r28, 0x20	; 32
    1970:	e2 e1       	ldi	r30, 0x12	; 18
    1972:	0c 94 36 2a 	jmp	0x546c	; 0x546c <__epilogue_restores__>

00001976 <__gtsf2>:
    1976:	a8 e1       	ldi	r26, 0x18	; 24
    1978:	b0 e0       	ldi	r27, 0x00	; 0
    197a:	e1 ec       	ldi	r30, 0xC1	; 193
    197c:	fc e0       	ldi	r31, 0x0C	; 12
    197e:	0c 94 26 2a 	jmp	0x544c	; 0x544c <__prologue_saves__+0x18>
    1982:	69 83       	std	Y+1, r22	; 0x01
    1984:	7a 83       	std	Y+2, r23	; 0x02
    1986:	8b 83       	std	Y+3, r24	; 0x03
    1988:	9c 83       	std	Y+4, r25	; 0x04
    198a:	2d 83       	std	Y+5, r18	; 0x05
    198c:	3e 83       	std	Y+6, r19	; 0x06
    198e:	4f 83       	std	Y+7, r20	; 0x07
    1990:	58 87       	std	Y+8, r21	; 0x08
    1992:	89 e0       	ldi	r24, 0x09	; 9
    1994:	e8 2e       	mov	r14, r24
    1996:	f1 2c       	mov	r15, r1
    1998:	ec 0e       	add	r14, r28
    199a:	fd 1e       	adc	r15, r29
    199c:	ce 01       	movw	r24, r28
    199e:	01 96       	adiw	r24, 0x01	; 1
    19a0:	b7 01       	movw	r22, r14
    19a2:	0e 94 74 0e 	call	0x1ce8	; 0x1ce8 <__unpack_f>
    19a6:	8e 01       	movw	r16, r28
    19a8:	0f 5e       	subi	r16, 0xEF	; 239
    19aa:	1f 4f       	sbci	r17, 0xFF	; 255
    19ac:	ce 01       	movw	r24, r28
    19ae:	05 96       	adiw	r24, 0x05	; 5
    19b0:	b8 01       	movw	r22, r16
    19b2:	0e 94 74 0e 	call	0x1ce8	; 0x1ce8 <__unpack_f>
    19b6:	89 85       	ldd	r24, Y+9	; 0x09
    19b8:	82 30       	cpi	r24, 0x02	; 2
    19ba:	40 f0       	brcs	.+16     	; 0x19cc <__gtsf2+0x56>
    19bc:	89 89       	ldd	r24, Y+17	; 0x11
    19be:	82 30       	cpi	r24, 0x02	; 2
    19c0:	28 f0       	brcs	.+10     	; 0x19cc <__gtsf2+0x56>
    19c2:	c7 01       	movw	r24, r14
    19c4:	b8 01       	movw	r22, r16
    19c6:	0e 94 ec 0e 	call	0x1dd8	; 0x1dd8 <__fpcmp_parts_f>
    19ca:	01 c0       	rjmp	.+2      	; 0x19ce <__gtsf2+0x58>
    19cc:	8f ef       	ldi	r24, 0xFF	; 255
    19ce:	68 96       	adiw	r28, 0x18	; 24
    19d0:	e6 e0       	ldi	r30, 0x06	; 6
    19d2:	0c 94 42 2a 	jmp	0x5484	; 0x5484 <__epilogue_restores__+0x18>

000019d6 <__gesf2>:
    19d6:	a8 e1       	ldi	r26, 0x18	; 24
    19d8:	b0 e0       	ldi	r27, 0x00	; 0
    19da:	e1 ef       	ldi	r30, 0xF1	; 241
    19dc:	fc e0       	ldi	r31, 0x0C	; 12
    19de:	0c 94 26 2a 	jmp	0x544c	; 0x544c <__prologue_saves__+0x18>
    19e2:	69 83       	std	Y+1, r22	; 0x01
    19e4:	7a 83       	std	Y+2, r23	; 0x02
    19e6:	8b 83       	std	Y+3, r24	; 0x03
    19e8:	9c 83       	std	Y+4, r25	; 0x04
    19ea:	2d 83       	std	Y+5, r18	; 0x05
    19ec:	3e 83       	std	Y+6, r19	; 0x06
    19ee:	4f 83       	std	Y+7, r20	; 0x07
    19f0:	58 87       	std	Y+8, r21	; 0x08
    19f2:	89 e0       	ldi	r24, 0x09	; 9
    19f4:	e8 2e       	mov	r14, r24
    19f6:	f1 2c       	mov	r15, r1
    19f8:	ec 0e       	add	r14, r28
    19fa:	fd 1e       	adc	r15, r29
    19fc:	ce 01       	movw	r24, r28
    19fe:	01 96       	adiw	r24, 0x01	; 1
    1a00:	b7 01       	movw	r22, r14
    1a02:	0e 94 74 0e 	call	0x1ce8	; 0x1ce8 <__unpack_f>
    1a06:	8e 01       	movw	r16, r28
    1a08:	0f 5e       	subi	r16, 0xEF	; 239
    1a0a:	1f 4f       	sbci	r17, 0xFF	; 255
    1a0c:	ce 01       	movw	r24, r28
    1a0e:	05 96       	adiw	r24, 0x05	; 5
    1a10:	b8 01       	movw	r22, r16
    1a12:	0e 94 74 0e 	call	0x1ce8	; 0x1ce8 <__unpack_f>
    1a16:	89 85       	ldd	r24, Y+9	; 0x09
    1a18:	82 30       	cpi	r24, 0x02	; 2
    1a1a:	40 f0       	brcs	.+16     	; 0x1a2c <__gesf2+0x56>
    1a1c:	89 89       	ldd	r24, Y+17	; 0x11
    1a1e:	82 30       	cpi	r24, 0x02	; 2
    1a20:	28 f0       	brcs	.+10     	; 0x1a2c <__gesf2+0x56>
    1a22:	c7 01       	movw	r24, r14
    1a24:	b8 01       	movw	r22, r16
    1a26:	0e 94 ec 0e 	call	0x1dd8	; 0x1dd8 <__fpcmp_parts_f>
    1a2a:	01 c0       	rjmp	.+2      	; 0x1a2e <__gesf2+0x58>
    1a2c:	8f ef       	ldi	r24, 0xFF	; 255
    1a2e:	68 96       	adiw	r28, 0x18	; 24
    1a30:	e6 e0       	ldi	r30, 0x06	; 6
    1a32:	0c 94 42 2a 	jmp	0x5484	; 0x5484 <__epilogue_restores__+0x18>

00001a36 <__ltsf2>:
    1a36:	a8 e1       	ldi	r26, 0x18	; 24
    1a38:	b0 e0       	ldi	r27, 0x00	; 0
    1a3a:	e1 e2       	ldi	r30, 0x21	; 33
    1a3c:	fd e0       	ldi	r31, 0x0D	; 13
    1a3e:	0c 94 26 2a 	jmp	0x544c	; 0x544c <__prologue_saves__+0x18>
    1a42:	69 83       	std	Y+1, r22	; 0x01
    1a44:	7a 83       	std	Y+2, r23	; 0x02
    1a46:	8b 83       	std	Y+3, r24	; 0x03
    1a48:	9c 83       	std	Y+4, r25	; 0x04
    1a4a:	2d 83       	std	Y+5, r18	; 0x05
    1a4c:	3e 83       	std	Y+6, r19	; 0x06
    1a4e:	4f 83       	std	Y+7, r20	; 0x07
    1a50:	58 87       	std	Y+8, r21	; 0x08
    1a52:	89 e0       	ldi	r24, 0x09	; 9
    1a54:	e8 2e       	mov	r14, r24
    1a56:	f1 2c       	mov	r15, r1
    1a58:	ec 0e       	add	r14, r28
    1a5a:	fd 1e       	adc	r15, r29
    1a5c:	ce 01       	movw	r24, r28
    1a5e:	01 96       	adiw	r24, 0x01	; 1
    1a60:	b7 01       	movw	r22, r14
    1a62:	0e 94 74 0e 	call	0x1ce8	; 0x1ce8 <__unpack_f>
    1a66:	8e 01       	movw	r16, r28
    1a68:	0f 5e       	subi	r16, 0xEF	; 239
    1a6a:	1f 4f       	sbci	r17, 0xFF	; 255
    1a6c:	ce 01       	movw	r24, r28
    1a6e:	05 96       	adiw	r24, 0x05	; 5
    1a70:	b8 01       	movw	r22, r16
    1a72:	0e 94 74 0e 	call	0x1ce8	; 0x1ce8 <__unpack_f>
    1a76:	89 85       	ldd	r24, Y+9	; 0x09
    1a78:	82 30       	cpi	r24, 0x02	; 2
    1a7a:	40 f0       	brcs	.+16     	; 0x1a8c <__ltsf2+0x56>
    1a7c:	89 89       	ldd	r24, Y+17	; 0x11
    1a7e:	82 30       	cpi	r24, 0x02	; 2
    1a80:	28 f0       	brcs	.+10     	; 0x1a8c <__ltsf2+0x56>
    1a82:	c7 01       	movw	r24, r14
    1a84:	b8 01       	movw	r22, r16
    1a86:	0e 94 ec 0e 	call	0x1dd8	; 0x1dd8 <__fpcmp_parts_f>
    1a8a:	01 c0       	rjmp	.+2      	; 0x1a8e <__ltsf2+0x58>
    1a8c:	81 e0       	ldi	r24, 0x01	; 1
    1a8e:	68 96       	adiw	r28, 0x18	; 24
    1a90:	e6 e0       	ldi	r30, 0x06	; 6
    1a92:	0c 94 42 2a 	jmp	0x5484	; 0x5484 <__epilogue_restores__+0x18>

00001a96 <__fixsfsi>:
    1a96:	ac e0       	ldi	r26, 0x0C	; 12
    1a98:	b0 e0       	ldi	r27, 0x00	; 0
    1a9a:	e1 e5       	ldi	r30, 0x51	; 81
    1a9c:	fd e0       	ldi	r31, 0x0D	; 13
    1a9e:	0c 94 2a 2a 	jmp	0x5454	; 0x5454 <__prologue_saves__+0x20>
    1aa2:	69 83       	std	Y+1, r22	; 0x01
    1aa4:	7a 83       	std	Y+2, r23	; 0x02
    1aa6:	8b 83       	std	Y+3, r24	; 0x03
    1aa8:	9c 83       	std	Y+4, r25	; 0x04
    1aaa:	ce 01       	movw	r24, r28
    1aac:	01 96       	adiw	r24, 0x01	; 1
    1aae:	be 01       	movw	r22, r28
    1ab0:	6b 5f       	subi	r22, 0xFB	; 251
    1ab2:	7f 4f       	sbci	r23, 0xFF	; 255
    1ab4:	0e 94 74 0e 	call	0x1ce8	; 0x1ce8 <__unpack_f>
    1ab8:	8d 81       	ldd	r24, Y+5	; 0x05
    1aba:	82 30       	cpi	r24, 0x02	; 2
    1abc:	61 f1       	breq	.+88     	; 0x1b16 <__fixsfsi+0x80>
    1abe:	82 30       	cpi	r24, 0x02	; 2
    1ac0:	50 f1       	brcs	.+84     	; 0x1b16 <__fixsfsi+0x80>
    1ac2:	84 30       	cpi	r24, 0x04	; 4
    1ac4:	21 f4       	brne	.+8      	; 0x1ace <__fixsfsi+0x38>
    1ac6:	8e 81       	ldd	r24, Y+6	; 0x06
    1ac8:	88 23       	and	r24, r24
    1aca:	51 f1       	breq	.+84     	; 0x1b20 <__fixsfsi+0x8a>
    1acc:	2e c0       	rjmp	.+92     	; 0x1b2a <__fixsfsi+0x94>
    1ace:	2f 81       	ldd	r18, Y+7	; 0x07
    1ad0:	38 85       	ldd	r19, Y+8	; 0x08
    1ad2:	37 fd       	sbrc	r19, 7
    1ad4:	20 c0       	rjmp	.+64     	; 0x1b16 <__fixsfsi+0x80>
    1ad6:	6e 81       	ldd	r22, Y+6	; 0x06
    1ad8:	2f 31       	cpi	r18, 0x1F	; 31
    1ada:	31 05       	cpc	r19, r1
    1adc:	1c f0       	brlt	.+6      	; 0x1ae4 <__fixsfsi+0x4e>
    1ade:	66 23       	and	r22, r22
    1ae0:	f9 f0       	breq	.+62     	; 0x1b20 <__fixsfsi+0x8a>
    1ae2:	23 c0       	rjmp	.+70     	; 0x1b2a <__fixsfsi+0x94>
    1ae4:	8e e1       	ldi	r24, 0x1E	; 30
    1ae6:	90 e0       	ldi	r25, 0x00	; 0
    1ae8:	82 1b       	sub	r24, r18
    1aea:	93 0b       	sbc	r25, r19
    1aec:	29 85       	ldd	r18, Y+9	; 0x09
    1aee:	3a 85       	ldd	r19, Y+10	; 0x0a
    1af0:	4b 85       	ldd	r20, Y+11	; 0x0b
    1af2:	5c 85       	ldd	r21, Y+12	; 0x0c
    1af4:	04 c0       	rjmp	.+8      	; 0x1afe <__fixsfsi+0x68>
    1af6:	56 95       	lsr	r21
    1af8:	47 95       	ror	r20
    1afa:	37 95       	ror	r19
    1afc:	27 95       	ror	r18
    1afe:	8a 95       	dec	r24
    1b00:	d2 f7       	brpl	.-12     	; 0x1af6 <__fixsfsi+0x60>
    1b02:	66 23       	and	r22, r22
    1b04:	b1 f0       	breq	.+44     	; 0x1b32 <__fixsfsi+0x9c>
    1b06:	50 95       	com	r21
    1b08:	40 95       	com	r20
    1b0a:	30 95       	com	r19
    1b0c:	21 95       	neg	r18
    1b0e:	3f 4f       	sbci	r19, 0xFF	; 255
    1b10:	4f 4f       	sbci	r20, 0xFF	; 255
    1b12:	5f 4f       	sbci	r21, 0xFF	; 255
    1b14:	0e c0       	rjmp	.+28     	; 0x1b32 <__fixsfsi+0x9c>
    1b16:	20 e0       	ldi	r18, 0x00	; 0
    1b18:	30 e0       	ldi	r19, 0x00	; 0
    1b1a:	40 e0       	ldi	r20, 0x00	; 0
    1b1c:	50 e0       	ldi	r21, 0x00	; 0
    1b1e:	09 c0       	rjmp	.+18     	; 0x1b32 <__fixsfsi+0x9c>
    1b20:	2f ef       	ldi	r18, 0xFF	; 255
    1b22:	3f ef       	ldi	r19, 0xFF	; 255
    1b24:	4f ef       	ldi	r20, 0xFF	; 255
    1b26:	5f e7       	ldi	r21, 0x7F	; 127
    1b28:	04 c0       	rjmp	.+8      	; 0x1b32 <__fixsfsi+0x9c>
    1b2a:	20 e0       	ldi	r18, 0x00	; 0
    1b2c:	30 e0       	ldi	r19, 0x00	; 0
    1b2e:	40 e0       	ldi	r20, 0x00	; 0
    1b30:	50 e8       	ldi	r21, 0x80	; 128
    1b32:	b9 01       	movw	r22, r18
    1b34:	ca 01       	movw	r24, r20
    1b36:	2c 96       	adiw	r28, 0x0c	; 12
    1b38:	e2 e0       	ldi	r30, 0x02	; 2
    1b3a:	0c 94 46 2a 	jmp	0x548c	; 0x548c <__epilogue_restores__+0x20>

00001b3e <__pack_f>:
    1b3e:	df 92       	push	r13
    1b40:	ef 92       	push	r14
    1b42:	ff 92       	push	r15
    1b44:	0f 93       	push	r16
    1b46:	1f 93       	push	r17
    1b48:	fc 01       	movw	r30, r24
    1b4a:	e4 80       	ldd	r14, Z+4	; 0x04
    1b4c:	f5 80       	ldd	r15, Z+5	; 0x05
    1b4e:	06 81       	ldd	r16, Z+6	; 0x06
    1b50:	17 81       	ldd	r17, Z+7	; 0x07
    1b52:	d1 80       	ldd	r13, Z+1	; 0x01
    1b54:	80 81       	ld	r24, Z
    1b56:	82 30       	cpi	r24, 0x02	; 2
    1b58:	48 f4       	brcc	.+18     	; 0x1b6c <__pack_f+0x2e>
    1b5a:	80 e0       	ldi	r24, 0x00	; 0
    1b5c:	90 e0       	ldi	r25, 0x00	; 0
    1b5e:	a0 e1       	ldi	r26, 0x10	; 16
    1b60:	b0 e0       	ldi	r27, 0x00	; 0
    1b62:	e8 2a       	or	r14, r24
    1b64:	f9 2a       	or	r15, r25
    1b66:	0a 2b       	or	r16, r26
    1b68:	1b 2b       	or	r17, r27
    1b6a:	a5 c0       	rjmp	.+330    	; 0x1cb6 <__pack_f+0x178>
    1b6c:	84 30       	cpi	r24, 0x04	; 4
    1b6e:	09 f4       	brne	.+2      	; 0x1b72 <__pack_f+0x34>
    1b70:	9f c0       	rjmp	.+318    	; 0x1cb0 <__pack_f+0x172>
    1b72:	82 30       	cpi	r24, 0x02	; 2
    1b74:	21 f4       	brne	.+8      	; 0x1b7e <__pack_f+0x40>
    1b76:	ee 24       	eor	r14, r14
    1b78:	ff 24       	eor	r15, r15
    1b7a:	87 01       	movw	r16, r14
    1b7c:	05 c0       	rjmp	.+10     	; 0x1b88 <__pack_f+0x4a>
    1b7e:	e1 14       	cp	r14, r1
    1b80:	f1 04       	cpc	r15, r1
    1b82:	01 05       	cpc	r16, r1
    1b84:	11 05       	cpc	r17, r1
    1b86:	19 f4       	brne	.+6      	; 0x1b8e <__pack_f+0x50>
    1b88:	e0 e0       	ldi	r30, 0x00	; 0
    1b8a:	f0 e0       	ldi	r31, 0x00	; 0
    1b8c:	96 c0       	rjmp	.+300    	; 0x1cba <__pack_f+0x17c>
    1b8e:	62 81       	ldd	r22, Z+2	; 0x02
    1b90:	73 81       	ldd	r23, Z+3	; 0x03
    1b92:	9f ef       	ldi	r25, 0xFF	; 255
    1b94:	62 38       	cpi	r22, 0x82	; 130
    1b96:	79 07       	cpc	r23, r25
    1b98:	0c f0       	brlt	.+2      	; 0x1b9c <__pack_f+0x5e>
    1b9a:	5b c0       	rjmp	.+182    	; 0x1c52 <__pack_f+0x114>
    1b9c:	22 e8       	ldi	r18, 0x82	; 130
    1b9e:	3f ef       	ldi	r19, 0xFF	; 255
    1ba0:	26 1b       	sub	r18, r22
    1ba2:	37 0b       	sbc	r19, r23
    1ba4:	2a 31       	cpi	r18, 0x1A	; 26
    1ba6:	31 05       	cpc	r19, r1
    1ba8:	2c f0       	brlt	.+10     	; 0x1bb4 <__pack_f+0x76>
    1baa:	20 e0       	ldi	r18, 0x00	; 0
    1bac:	30 e0       	ldi	r19, 0x00	; 0
    1bae:	40 e0       	ldi	r20, 0x00	; 0
    1bb0:	50 e0       	ldi	r21, 0x00	; 0
    1bb2:	2a c0       	rjmp	.+84     	; 0x1c08 <__pack_f+0xca>
    1bb4:	b8 01       	movw	r22, r16
    1bb6:	a7 01       	movw	r20, r14
    1bb8:	02 2e       	mov	r0, r18
    1bba:	04 c0       	rjmp	.+8      	; 0x1bc4 <__pack_f+0x86>
    1bbc:	76 95       	lsr	r23
    1bbe:	67 95       	ror	r22
    1bc0:	57 95       	ror	r21
    1bc2:	47 95       	ror	r20
    1bc4:	0a 94       	dec	r0
    1bc6:	d2 f7       	brpl	.-12     	; 0x1bbc <__pack_f+0x7e>
    1bc8:	81 e0       	ldi	r24, 0x01	; 1
    1bca:	90 e0       	ldi	r25, 0x00	; 0
    1bcc:	a0 e0       	ldi	r26, 0x00	; 0
    1bce:	b0 e0       	ldi	r27, 0x00	; 0
    1bd0:	04 c0       	rjmp	.+8      	; 0x1bda <__pack_f+0x9c>
    1bd2:	88 0f       	add	r24, r24
    1bd4:	99 1f       	adc	r25, r25
    1bd6:	aa 1f       	adc	r26, r26
    1bd8:	bb 1f       	adc	r27, r27
    1bda:	2a 95       	dec	r18
    1bdc:	d2 f7       	brpl	.-12     	; 0x1bd2 <__pack_f+0x94>
    1bde:	01 97       	sbiw	r24, 0x01	; 1
    1be0:	a1 09       	sbc	r26, r1
    1be2:	b1 09       	sbc	r27, r1
    1be4:	8e 21       	and	r24, r14
    1be6:	9f 21       	and	r25, r15
    1be8:	a0 23       	and	r26, r16
    1bea:	b1 23       	and	r27, r17
    1bec:	00 97       	sbiw	r24, 0x00	; 0
    1bee:	a1 05       	cpc	r26, r1
    1bf0:	b1 05       	cpc	r27, r1
    1bf2:	21 f0       	breq	.+8      	; 0x1bfc <__pack_f+0xbe>
    1bf4:	81 e0       	ldi	r24, 0x01	; 1
    1bf6:	90 e0       	ldi	r25, 0x00	; 0
    1bf8:	a0 e0       	ldi	r26, 0x00	; 0
    1bfa:	b0 e0       	ldi	r27, 0x00	; 0
    1bfc:	9a 01       	movw	r18, r20
    1bfe:	ab 01       	movw	r20, r22
    1c00:	28 2b       	or	r18, r24
    1c02:	39 2b       	or	r19, r25
    1c04:	4a 2b       	or	r20, r26
    1c06:	5b 2b       	or	r21, r27
    1c08:	da 01       	movw	r26, r20
    1c0a:	c9 01       	movw	r24, r18
    1c0c:	8f 77       	andi	r24, 0x7F	; 127
    1c0e:	90 70       	andi	r25, 0x00	; 0
    1c10:	a0 70       	andi	r26, 0x00	; 0
    1c12:	b0 70       	andi	r27, 0x00	; 0
    1c14:	80 34       	cpi	r24, 0x40	; 64
    1c16:	91 05       	cpc	r25, r1
    1c18:	a1 05       	cpc	r26, r1
    1c1a:	b1 05       	cpc	r27, r1
    1c1c:	39 f4       	brne	.+14     	; 0x1c2c <__pack_f+0xee>
    1c1e:	27 ff       	sbrs	r18, 7
    1c20:	09 c0       	rjmp	.+18     	; 0x1c34 <__pack_f+0xf6>
    1c22:	20 5c       	subi	r18, 0xC0	; 192
    1c24:	3f 4f       	sbci	r19, 0xFF	; 255
    1c26:	4f 4f       	sbci	r20, 0xFF	; 255
    1c28:	5f 4f       	sbci	r21, 0xFF	; 255
    1c2a:	04 c0       	rjmp	.+8      	; 0x1c34 <__pack_f+0xf6>
    1c2c:	21 5c       	subi	r18, 0xC1	; 193
    1c2e:	3f 4f       	sbci	r19, 0xFF	; 255
    1c30:	4f 4f       	sbci	r20, 0xFF	; 255
    1c32:	5f 4f       	sbci	r21, 0xFF	; 255
    1c34:	e0 e0       	ldi	r30, 0x00	; 0
    1c36:	f0 e0       	ldi	r31, 0x00	; 0
    1c38:	20 30       	cpi	r18, 0x00	; 0
    1c3a:	a0 e0       	ldi	r26, 0x00	; 0
    1c3c:	3a 07       	cpc	r19, r26
    1c3e:	a0 e0       	ldi	r26, 0x00	; 0
    1c40:	4a 07       	cpc	r20, r26
    1c42:	a0 e4       	ldi	r26, 0x40	; 64
    1c44:	5a 07       	cpc	r21, r26
    1c46:	10 f0       	brcs	.+4      	; 0x1c4c <__pack_f+0x10e>
    1c48:	e1 e0       	ldi	r30, 0x01	; 1
    1c4a:	f0 e0       	ldi	r31, 0x00	; 0
    1c4c:	79 01       	movw	r14, r18
    1c4e:	8a 01       	movw	r16, r20
    1c50:	27 c0       	rjmp	.+78     	; 0x1ca0 <__pack_f+0x162>
    1c52:	60 38       	cpi	r22, 0x80	; 128
    1c54:	71 05       	cpc	r23, r1
    1c56:	64 f5       	brge	.+88     	; 0x1cb0 <__pack_f+0x172>
    1c58:	fb 01       	movw	r30, r22
    1c5a:	e1 58       	subi	r30, 0x81	; 129
    1c5c:	ff 4f       	sbci	r31, 0xFF	; 255
    1c5e:	d8 01       	movw	r26, r16
    1c60:	c7 01       	movw	r24, r14
    1c62:	8f 77       	andi	r24, 0x7F	; 127
    1c64:	90 70       	andi	r25, 0x00	; 0
    1c66:	a0 70       	andi	r26, 0x00	; 0
    1c68:	b0 70       	andi	r27, 0x00	; 0
    1c6a:	80 34       	cpi	r24, 0x40	; 64
    1c6c:	91 05       	cpc	r25, r1
    1c6e:	a1 05       	cpc	r26, r1
    1c70:	b1 05       	cpc	r27, r1
    1c72:	39 f4       	brne	.+14     	; 0x1c82 <__pack_f+0x144>
    1c74:	e7 fe       	sbrs	r14, 7
    1c76:	0d c0       	rjmp	.+26     	; 0x1c92 <__pack_f+0x154>
    1c78:	80 e4       	ldi	r24, 0x40	; 64
    1c7a:	90 e0       	ldi	r25, 0x00	; 0
    1c7c:	a0 e0       	ldi	r26, 0x00	; 0
    1c7e:	b0 e0       	ldi	r27, 0x00	; 0
    1c80:	04 c0       	rjmp	.+8      	; 0x1c8a <__pack_f+0x14c>
    1c82:	8f e3       	ldi	r24, 0x3F	; 63
    1c84:	90 e0       	ldi	r25, 0x00	; 0
    1c86:	a0 e0       	ldi	r26, 0x00	; 0
    1c88:	b0 e0       	ldi	r27, 0x00	; 0
    1c8a:	e8 0e       	add	r14, r24
    1c8c:	f9 1e       	adc	r15, r25
    1c8e:	0a 1f       	adc	r16, r26
    1c90:	1b 1f       	adc	r17, r27
    1c92:	17 ff       	sbrs	r17, 7
    1c94:	05 c0       	rjmp	.+10     	; 0x1ca0 <__pack_f+0x162>
    1c96:	16 95       	lsr	r17
    1c98:	07 95       	ror	r16
    1c9a:	f7 94       	ror	r15
    1c9c:	e7 94       	ror	r14
    1c9e:	31 96       	adiw	r30, 0x01	; 1
    1ca0:	87 e0       	ldi	r24, 0x07	; 7
    1ca2:	16 95       	lsr	r17
    1ca4:	07 95       	ror	r16
    1ca6:	f7 94       	ror	r15
    1ca8:	e7 94       	ror	r14
    1caa:	8a 95       	dec	r24
    1cac:	d1 f7       	brne	.-12     	; 0x1ca2 <__pack_f+0x164>
    1cae:	05 c0       	rjmp	.+10     	; 0x1cba <__pack_f+0x17c>
    1cb0:	ee 24       	eor	r14, r14
    1cb2:	ff 24       	eor	r15, r15
    1cb4:	87 01       	movw	r16, r14
    1cb6:	ef ef       	ldi	r30, 0xFF	; 255
    1cb8:	f0 e0       	ldi	r31, 0x00	; 0
    1cba:	6e 2f       	mov	r22, r30
    1cbc:	67 95       	ror	r22
    1cbe:	66 27       	eor	r22, r22
    1cc0:	67 95       	ror	r22
    1cc2:	90 2f       	mov	r25, r16
    1cc4:	9f 77       	andi	r25, 0x7F	; 127
    1cc6:	d7 94       	ror	r13
    1cc8:	dd 24       	eor	r13, r13
    1cca:	d7 94       	ror	r13
    1ccc:	8e 2f       	mov	r24, r30
    1cce:	86 95       	lsr	r24
    1cd0:	49 2f       	mov	r20, r25
    1cd2:	46 2b       	or	r20, r22
    1cd4:	58 2f       	mov	r21, r24
    1cd6:	5d 29       	or	r21, r13
    1cd8:	b7 01       	movw	r22, r14
    1cda:	ca 01       	movw	r24, r20
    1cdc:	1f 91       	pop	r17
    1cde:	0f 91       	pop	r16
    1ce0:	ff 90       	pop	r15
    1ce2:	ef 90       	pop	r14
    1ce4:	df 90       	pop	r13
    1ce6:	08 95       	ret

00001ce8 <__unpack_f>:
    1ce8:	fc 01       	movw	r30, r24
    1cea:	db 01       	movw	r26, r22
    1cec:	40 81       	ld	r20, Z
    1cee:	51 81       	ldd	r21, Z+1	; 0x01
    1cf0:	22 81       	ldd	r18, Z+2	; 0x02
    1cf2:	62 2f       	mov	r22, r18
    1cf4:	6f 77       	andi	r22, 0x7F	; 127
    1cf6:	70 e0       	ldi	r23, 0x00	; 0
    1cf8:	22 1f       	adc	r18, r18
    1cfa:	22 27       	eor	r18, r18
    1cfc:	22 1f       	adc	r18, r18
    1cfe:	93 81       	ldd	r25, Z+3	; 0x03
    1d00:	89 2f       	mov	r24, r25
    1d02:	88 0f       	add	r24, r24
    1d04:	82 2b       	or	r24, r18
    1d06:	28 2f       	mov	r18, r24
    1d08:	30 e0       	ldi	r19, 0x00	; 0
    1d0a:	99 1f       	adc	r25, r25
    1d0c:	99 27       	eor	r25, r25
    1d0e:	99 1f       	adc	r25, r25
    1d10:	11 96       	adiw	r26, 0x01	; 1
    1d12:	9c 93       	st	X, r25
    1d14:	11 97       	sbiw	r26, 0x01	; 1
    1d16:	21 15       	cp	r18, r1
    1d18:	31 05       	cpc	r19, r1
    1d1a:	a9 f5       	brne	.+106    	; 0x1d86 <__unpack_f+0x9e>
    1d1c:	41 15       	cp	r20, r1
    1d1e:	51 05       	cpc	r21, r1
    1d20:	61 05       	cpc	r22, r1
    1d22:	71 05       	cpc	r23, r1
    1d24:	11 f4       	brne	.+4      	; 0x1d2a <__unpack_f+0x42>
    1d26:	82 e0       	ldi	r24, 0x02	; 2
    1d28:	37 c0       	rjmp	.+110    	; 0x1d98 <__unpack_f+0xb0>
    1d2a:	82 e8       	ldi	r24, 0x82	; 130
    1d2c:	9f ef       	ldi	r25, 0xFF	; 255
    1d2e:	13 96       	adiw	r26, 0x03	; 3
    1d30:	9c 93       	st	X, r25
    1d32:	8e 93       	st	-X, r24
    1d34:	12 97       	sbiw	r26, 0x02	; 2
    1d36:	9a 01       	movw	r18, r20
    1d38:	ab 01       	movw	r20, r22
    1d3a:	67 e0       	ldi	r22, 0x07	; 7
    1d3c:	22 0f       	add	r18, r18
    1d3e:	33 1f       	adc	r19, r19
    1d40:	44 1f       	adc	r20, r20
    1d42:	55 1f       	adc	r21, r21
    1d44:	6a 95       	dec	r22
    1d46:	d1 f7       	brne	.-12     	; 0x1d3c <__unpack_f+0x54>
    1d48:	83 e0       	ldi	r24, 0x03	; 3
    1d4a:	8c 93       	st	X, r24
    1d4c:	0d c0       	rjmp	.+26     	; 0x1d68 <__unpack_f+0x80>
    1d4e:	22 0f       	add	r18, r18
    1d50:	33 1f       	adc	r19, r19
    1d52:	44 1f       	adc	r20, r20
    1d54:	55 1f       	adc	r21, r21
    1d56:	12 96       	adiw	r26, 0x02	; 2
    1d58:	8d 91       	ld	r24, X+
    1d5a:	9c 91       	ld	r25, X
    1d5c:	13 97       	sbiw	r26, 0x03	; 3
    1d5e:	01 97       	sbiw	r24, 0x01	; 1
    1d60:	13 96       	adiw	r26, 0x03	; 3
    1d62:	9c 93       	st	X, r25
    1d64:	8e 93       	st	-X, r24
    1d66:	12 97       	sbiw	r26, 0x02	; 2
    1d68:	20 30       	cpi	r18, 0x00	; 0
    1d6a:	80 e0       	ldi	r24, 0x00	; 0
    1d6c:	38 07       	cpc	r19, r24
    1d6e:	80 e0       	ldi	r24, 0x00	; 0
    1d70:	48 07       	cpc	r20, r24
    1d72:	80 e4       	ldi	r24, 0x40	; 64
    1d74:	58 07       	cpc	r21, r24
    1d76:	58 f3       	brcs	.-42     	; 0x1d4e <__unpack_f+0x66>
    1d78:	14 96       	adiw	r26, 0x04	; 4
    1d7a:	2d 93       	st	X+, r18
    1d7c:	3d 93       	st	X+, r19
    1d7e:	4d 93       	st	X+, r20
    1d80:	5c 93       	st	X, r21
    1d82:	17 97       	sbiw	r26, 0x07	; 7
    1d84:	08 95       	ret
    1d86:	2f 3f       	cpi	r18, 0xFF	; 255
    1d88:	31 05       	cpc	r19, r1
    1d8a:	79 f4       	brne	.+30     	; 0x1daa <__unpack_f+0xc2>
    1d8c:	41 15       	cp	r20, r1
    1d8e:	51 05       	cpc	r21, r1
    1d90:	61 05       	cpc	r22, r1
    1d92:	71 05       	cpc	r23, r1
    1d94:	19 f4       	brne	.+6      	; 0x1d9c <__unpack_f+0xb4>
    1d96:	84 e0       	ldi	r24, 0x04	; 4
    1d98:	8c 93       	st	X, r24
    1d9a:	08 95       	ret
    1d9c:	64 ff       	sbrs	r22, 4
    1d9e:	03 c0       	rjmp	.+6      	; 0x1da6 <__unpack_f+0xbe>
    1da0:	81 e0       	ldi	r24, 0x01	; 1
    1da2:	8c 93       	st	X, r24
    1da4:	12 c0       	rjmp	.+36     	; 0x1dca <__unpack_f+0xe2>
    1da6:	1c 92       	st	X, r1
    1da8:	10 c0       	rjmp	.+32     	; 0x1dca <__unpack_f+0xe2>
    1daa:	2f 57       	subi	r18, 0x7F	; 127
    1dac:	30 40       	sbci	r19, 0x00	; 0
    1dae:	13 96       	adiw	r26, 0x03	; 3
    1db0:	3c 93       	st	X, r19
    1db2:	2e 93       	st	-X, r18
    1db4:	12 97       	sbiw	r26, 0x02	; 2
    1db6:	83 e0       	ldi	r24, 0x03	; 3
    1db8:	8c 93       	st	X, r24
    1dba:	87 e0       	ldi	r24, 0x07	; 7
    1dbc:	44 0f       	add	r20, r20
    1dbe:	55 1f       	adc	r21, r21
    1dc0:	66 1f       	adc	r22, r22
    1dc2:	77 1f       	adc	r23, r23
    1dc4:	8a 95       	dec	r24
    1dc6:	d1 f7       	brne	.-12     	; 0x1dbc <__unpack_f+0xd4>
    1dc8:	70 64       	ori	r23, 0x40	; 64
    1dca:	14 96       	adiw	r26, 0x04	; 4
    1dcc:	4d 93       	st	X+, r20
    1dce:	5d 93       	st	X+, r21
    1dd0:	6d 93       	st	X+, r22
    1dd2:	7c 93       	st	X, r23
    1dd4:	17 97       	sbiw	r26, 0x07	; 7
    1dd6:	08 95       	ret

00001dd8 <__fpcmp_parts_f>:
    1dd8:	1f 93       	push	r17
    1dda:	dc 01       	movw	r26, r24
    1ddc:	fb 01       	movw	r30, r22
    1dde:	9c 91       	ld	r25, X
    1de0:	92 30       	cpi	r25, 0x02	; 2
    1de2:	08 f4       	brcc	.+2      	; 0x1de6 <__fpcmp_parts_f+0xe>
    1de4:	47 c0       	rjmp	.+142    	; 0x1e74 <__fpcmp_parts_f+0x9c>
    1de6:	80 81       	ld	r24, Z
    1de8:	82 30       	cpi	r24, 0x02	; 2
    1dea:	08 f4       	brcc	.+2      	; 0x1dee <__fpcmp_parts_f+0x16>
    1dec:	43 c0       	rjmp	.+134    	; 0x1e74 <__fpcmp_parts_f+0x9c>
    1dee:	94 30       	cpi	r25, 0x04	; 4
    1df0:	51 f4       	brne	.+20     	; 0x1e06 <__fpcmp_parts_f+0x2e>
    1df2:	11 96       	adiw	r26, 0x01	; 1
    1df4:	1c 91       	ld	r17, X
    1df6:	84 30       	cpi	r24, 0x04	; 4
    1df8:	99 f5       	brne	.+102    	; 0x1e60 <__fpcmp_parts_f+0x88>
    1dfa:	81 81       	ldd	r24, Z+1	; 0x01
    1dfc:	68 2f       	mov	r22, r24
    1dfe:	70 e0       	ldi	r23, 0x00	; 0
    1e00:	61 1b       	sub	r22, r17
    1e02:	71 09       	sbc	r23, r1
    1e04:	3f c0       	rjmp	.+126    	; 0x1e84 <__fpcmp_parts_f+0xac>
    1e06:	84 30       	cpi	r24, 0x04	; 4
    1e08:	21 f0       	breq	.+8      	; 0x1e12 <__fpcmp_parts_f+0x3a>
    1e0a:	92 30       	cpi	r25, 0x02	; 2
    1e0c:	31 f4       	brne	.+12     	; 0x1e1a <__fpcmp_parts_f+0x42>
    1e0e:	82 30       	cpi	r24, 0x02	; 2
    1e10:	b9 f1       	breq	.+110    	; 0x1e80 <__fpcmp_parts_f+0xa8>
    1e12:	81 81       	ldd	r24, Z+1	; 0x01
    1e14:	88 23       	and	r24, r24
    1e16:	89 f1       	breq	.+98     	; 0x1e7a <__fpcmp_parts_f+0xa2>
    1e18:	2d c0       	rjmp	.+90     	; 0x1e74 <__fpcmp_parts_f+0x9c>
    1e1a:	11 96       	adiw	r26, 0x01	; 1
    1e1c:	1c 91       	ld	r17, X
    1e1e:	11 97       	sbiw	r26, 0x01	; 1
    1e20:	82 30       	cpi	r24, 0x02	; 2
    1e22:	f1 f0       	breq	.+60     	; 0x1e60 <__fpcmp_parts_f+0x88>
    1e24:	81 81       	ldd	r24, Z+1	; 0x01
    1e26:	18 17       	cp	r17, r24
    1e28:	d9 f4       	brne	.+54     	; 0x1e60 <__fpcmp_parts_f+0x88>
    1e2a:	12 96       	adiw	r26, 0x02	; 2
    1e2c:	2d 91       	ld	r18, X+
    1e2e:	3c 91       	ld	r19, X
    1e30:	13 97       	sbiw	r26, 0x03	; 3
    1e32:	82 81       	ldd	r24, Z+2	; 0x02
    1e34:	93 81       	ldd	r25, Z+3	; 0x03
    1e36:	82 17       	cp	r24, r18
    1e38:	93 07       	cpc	r25, r19
    1e3a:	94 f0       	brlt	.+36     	; 0x1e60 <__fpcmp_parts_f+0x88>
    1e3c:	28 17       	cp	r18, r24
    1e3e:	39 07       	cpc	r19, r25
    1e40:	bc f0       	brlt	.+46     	; 0x1e70 <__fpcmp_parts_f+0x98>
    1e42:	14 96       	adiw	r26, 0x04	; 4
    1e44:	8d 91       	ld	r24, X+
    1e46:	9d 91       	ld	r25, X+
    1e48:	0d 90       	ld	r0, X+
    1e4a:	bc 91       	ld	r27, X
    1e4c:	a0 2d       	mov	r26, r0
    1e4e:	24 81       	ldd	r18, Z+4	; 0x04
    1e50:	35 81       	ldd	r19, Z+5	; 0x05
    1e52:	46 81       	ldd	r20, Z+6	; 0x06
    1e54:	57 81       	ldd	r21, Z+7	; 0x07
    1e56:	28 17       	cp	r18, r24
    1e58:	39 07       	cpc	r19, r25
    1e5a:	4a 07       	cpc	r20, r26
    1e5c:	5b 07       	cpc	r21, r27
    1e5e:	18 f4       	brcc	.+6      	; 0x1e66 <__fpcmp_parts_f+0x8e>
    1e60:	11 23       	and	r17, r17
    1e62:	41 f0       	breq	.+16     	; 0x1e74 <__fpcmp_parts_f+0x9c>
    1e64:	0a c0       	rjmp	.+20     	; 0x1e7a <__fpcmp_parts_f+0xa2>
    1e66:	82 17       	cp	r24, r18
    1e68:	93 07       	cpc	r25, r19
    1e6a:	a4 07       	cpc	r26, r20
    1e6c:	b5 07       	cpc	r27, r21
    1e6e:	40 f4       	brcc	.+16     	; 0x1e80 <__fpcmp_parts_f+0xa8>
    1e70:	11 23       	and	r17, r17
    1e72:	19 f0       	breq	.+6      	; 0x1e7a <__fpcmp_parts_f+0xa2>
    1e74:	61 e0       	ldi	r22, 0x01	; 1
    1e76:	70 e0       	ldi	r23, 0x00	; 0
    1e78:	05 c0       	rjmp	.+10     	; 0x1e84 <__fpcmp_parts_f+0xac>
    1e7a:	6f ef       	ldi	r22, 0xFF	; 255
    1e7c:	7f ef       	ldi	r23, 0xFF	; 255
    1e7e:	02 c0       	rjmp	.+4      	; 0x1e84 <__fpcmp_parts_f+0xac>
    1e80:	60 e0       	ldi	r22, 0x00	; 0
    1e82:	70 e0       	ldi	r23, 0x00	; 0
    1e84:	cb 01       	movw	r24, r22
    1e86:	1f 91       	pop	r17
    1e88:	08 95       	ret

00001e8a <GPIO_setupPinDirection>:
 * Description :
 * Setup the direction of the required pin input/output.
 * If the input port number or pin number are not correct, The function will not handle the request.
 */
void GPIO_setupPinDirection(uint8 port_num, uint8 pin_num, GPIO_PinDirectionType direction)
{
    1e8a:	df 93       	push	r29
    1e8c:	cf 93       	push	r28
    1e8e:	00 d0       	rcall	.+0      	; 0x1e90 <GPIO_setupPinDirection+0x6>
    1e90:	00 d0       	rcall	.+0      	; 0x1e92 <GPIO_setupPinDirection+0x8>
    1e92:	0f 92       	push	r0
    1e94:	cd b7       	in	r28, 0x3d	; 61
    1e96:	de b7       	in	r29, 0x3e	; 62
    1e98:	89 83       	std	Y+1, r24	; 0x01
    1e9a:	6a 83       	std	Y+2, r22	; 0x02
    1e9c:	4b 83       	std	Y+3, r20	; 0x03
	/*
	 * Check if the input port number is greater than NUM_OF_PINS_PER_PORT value.
	 * Or if the input pin number is greater than NUM_OF_PINS_PER_PORT value.
	 * In this case the input is not valid port/pin number
	 */
	if((pin_num >= NUM_OF_PINS_PER_PORT) || (port_num >= NUM_OF_PORTS))
    1e9e:	8a 81       	ldd	r24, Y+2	; 0x02
    1ea0:	88 30       	cpi	r24, 0x08	; 8
    1ea2:	08 f0       	brcs	.+2      	; 0x1ea6 <GPIO_setupPinDirection+0x1c>
    1ea4:	d5 c0       	rjmp	.+426    	; 0x2050 <GPIO_setupPinDirection+0x1c6>
    1ea6:	89 81       	ldd	r24, Y+1	; 0x01
    1ea8:	84 30       	cpi	r24, 0x04	; 4
    1eaa:	08 f0       	brcs	.+2      	; 0x1eae <GPIO_setupPinDirection+0x24>
    1eac:	d1 c0       	rjmp	.+418    	; 0x2050 <GPIO_setupPinDirection+0x1c6>
		/* Do Nothing */
	}
	else
	{
		/* Setup the pin direction as required */
		switch(port_num)
    1eae:	89 81       	ldd	r24, Y+1	; 0x01
    1eb0:	28 2f       	mov	r18, r24
    1eb2:	30 e0       	ldi	r19, 0x00	; 0
    1eb4:	3d 83       	std	Y+5, r19	; 0x05
    1eb6:	2c 83       	std	Y+4, r18	; 0x04
    1eb8:	8c 81       	ldd	r24, Y+4	; 0x04
    1eba:	9d 81       	ldd	r25, Y+5	; 0x05
    1ebc:	81 30       	cpi	r24, 0x01	; 1
    1ebe:	91 05       	cpc	r25, r1
    1ec0:	09 f4       	brne	.+2      	; 0x1ec4 <GPIO_setupPinDirection+0x3a>
    1ec2:	43 c0       	rjmp	.+134    	; 0x1f4a <GPIO_setupPinDirection+0xc0>
    1ec4:	2c 81       	ldd	r18, Y+4	; 0x04
    1ec6:	3d 81       	ldd	r19, Y+5	; 0x05
    1ec8:	22 30       	cpi	r18, 0x02	; 2
    1eca:	31 05       	cpc	r19, r1
    1ecc:	2c f4       	brge	.+10     	; 0x1ed8 <GPIO_setupPinDirection+0x4e>
    1ece:	8c 81       	ldd	r24, Y+4	; 0x04
    1ed0:	9d 81       	ldd	r25, Y+5	; 0x05
    1ed2:	00 97       	sbiw	r24, 0x00	; 0
    1ed4:	71 f0       	breq	.+28     	; 0x1ef2 <GPIO_setupPinDirection+0x68>
    1ed6:	bc c0       	rjmp	.+376    	; 0x2050 <GPIO_setupPinDirection+0x1c6>
    1ed8:	2c 81       	ldd	r18, Y+4	; 0x04
    1eda:	3d 81       	ldd	r19, Y+5	; 0x05
    1edc:	22 30       	cpi	r18, 0x02	; 2
    1ede:	31 05       	cpc	r19, r1
    1ee0:	09 f4       	brne	.+2      	; 0x1ee4 <GPIO_setupPinDirection+0x5a>
    1ee2:	5f c0       	rjmp	.+190    	; 0x1fa2 <GPIO_setupPinDirection+0x118>
    1ee4:	8c 81       	ldd	r24, Y+4	; 0x04
    1ee6:	9d 81       	ldd	r25, Y+5	; 0x05
    1ee8:	83 30       	cpi	r24, 0x03	; 3
    1eea:	91 05       	cpc	r25, r1
    1eec:	09 f4       	brne	.+2      	; 0x1ef0 <GPIO_setupPinDirection+0x66>
    1eee:	85 c0       	rjmp	.+266    	; 0x1ffa <GPIO_setupPinDirection+0x170>
    1ef0:	af c0       	rjmp	.+350    	; 0x2050 <GPIO_setupPinDirection+0x1c6>
		{
		case PORTA_ID:
			if(direction == PIN_OUTPUT)
    1ef2:	8b 81       	ldd	r24, Y+3	; 0x03
    1ef4:	81 30       	cpi	r24, 0x01	; 1
    1ef6:	a1 f4       	brne	.+40     	; 0x1f20 <GPIO_setupPinDirection+0x96>
			{
				SET_BIT(DDRA,pin_num);
    1ef8:	aa e3       	ldi	r26, 0x3A	; 58
    1efa:	b0 e0       	ldi	r27, 0x00	; 0
    1efc:	ea e3       	ldi	r30, 0x3A	; 58
    1efe:	f0 e0       	ldi	r31, 0x00	; 0
    1f00:	80 81       	ld	r24, Z
    1f02:	48 2f       	mov	r20, r24
    1f04:	8a 81       	ldd	r24, Y+2	; 0x02
    1f06:	28 2f       	mov	r18, r24
    1f08:	30 e0       	ldi	r19, 0x00	; 0
    1f0a:	81 e0       	ldi	r24, 0x01	; 1
    1f0c:	90 e0       	ldi	r25, 0x00	; 0
    1f0e:	02 2e       	mov	r0, r18
    1f10:	02 c0       	rjmp	.+4      	; 0x1f16 <GPIO_setupPinDirection+0x8c>
    1f12:	88 0f       	add	r24, r24
    1f14:	99 1f       	adc	r25, r25
    1f16:	0a 94       	dec	r0
    1f18:	e2 f7       	brpl	.-8      	; 0x1f12 <GPIO_setupPinDirection+0x88>
    1f1a:	84 2b       	or	r24, r20
    1f1c:	8c 93       	st	X, r24
    1f1e:	98 c0       	rjmp	.+304    	; 0x2050 <GPIO_setupPinDirection+0x1c6>
			}
			else
			{
				CLEAR_BIT(DDRA,pin_num);
    1f20:	aa e3       	ldi	r26, 0x3A	; 58
    1f22:	b0 e0       	ldi	r27, 0x00	; 0
    1f24:	ea e3       	ldi	r30, 0x3A	; 58
    1f26:	f0 e0       	ldi	r31, 0x00	; 0
    1f28:	80 81       	ld	r24, Z
    1f2a:	48 2f       	mov	r20, r24
    1f2c:	8a 81       	ldd	r24, Y+2	; 0x02
    1f2e:	28 2f       	mov	r18, r24
    1f30:	30 e0       	ldi	r19, 0x00	; 0
    1f32:	81 e0       	ldi	r24, 0x01	; 1
    1f34:	90 e0       	ldi	r25, 0x00	; 0
    1f36:	02 2e       	mov	r0, r18
    1f38:	02 c0       	rjmp	.+4      	; 0x1f3e <GPIO_setupPinDirection+0xb4>
    1f3a:	88 0f       	add	r24, r24
    1f3c:	99 1f       	adc	r25, r25
    1f3e:	0a 94       	dec	r0
    1f40:	e2 f7       	brpl	.-8      	; 0x1f3a <GPIO_setupPinDirection+0xb0>
    1f42:	80 95       	com	r24
    1f44:	84 23       	and	r24, r20
    1f46:	8c 93       	st	X, r24
    1f48:	83 c0       	rjmp	.+262    	; 0x2050 <GPIO_setupPinDirection+0x1c6>
			}
			break;
		case PORTB_ID:
			if(direction == PIN_OUTPUT)
    1f4a:	8b 81       	ldd	r24, Y+3	; 0x03
    1f4c:	81 30       	cpi	r24, 0x01	; 1
    1f4e:	a1 f4       	brne	.+40     	; 0x1f78 <GPIO_setupPinDirection+0xee>
			{
				SET_BIT(DDRB,pin_num);
    1f50:	a7 e3       	ldi	r26, 0x37	; 55
    1f52:	b0 e0       	ldi	r27, 0x00	; 0
    1f54:	e7 e3       	ldi	r30, 0x37	; 55
    1f56:	f0 e0       	ldi	r31, 0x00	; 0
    1f58:	80 81       	ld	r24, Z
    1f5a:	48 2f       	mov	r20, r24
    1f5c:	8a 81       	ldd	r24, Y+2	; 0x02
    1f5e:	28 2f       	mov	r18, r24
    1f60:	30 e0       	ldi	r19, 0x00	; 0
    1f62:	81 e0       	ldi	r24, 0x01	; 1
    1f64:	90 e0       	ldi	r25, 0x00	; 0
    1f66:	02 2e       	mov	r0, r18
    1f68:	02 c0       	rjmp	.+4      	; 0x1f6e <GPIO_setupPinDirection+0xe4>
    1f6a:	88 0f       	add	r24, r24
    1f6c:	99 1f       	adc	r25, r25
    1f6e:	0a 94       	dec	r0
    1f70:	e2 f7       	brpl	.-8      	; 0x1f6a <GPIO_setupPinDirection+0xe0>
    1f72:	84 2b       	or	r24, r20
    1f74:	8c 93       	st	X, r24
    1f76:	6c c0       	rjmp	.+216    	; 0x2050 <GPIO_setupPinDirection+0x1c6>
			}
			else
			{
				CLEAR_BIT(DDRB,pin_num);
    1f78:	a7 e3       	ldi	r26, 0x37	; 55
    1f7a:	b0 e0       	ldi	r27, 0x00	; 0
    1f7c:	e7 e3       	ldi	r30, 0x37	; 55
    1f7e:	f0 e0       	ldi	r31, 0x00	; 0
    1f80:	80 81       	ld	r24, Z
    1f82:	48 2f       	mov	r20, r24
    1f84:	8a 81       	ldd	r24, Y+2	; 0x02
    1f86:	28 2f       	mov	r18, r24
    1f88:	30 e0       	ldi	r19, 0x00	; 0
    1f8a:	81 e0       	ldi	r24, 0x01	; 1
    1f8c:	90 e0       	ldi	r25, 0x00	; 0
    1f8e:	02 2e       	mov	r0, r18
    1f90:	02 c0       	rjmp	.+4      	; 0x1f96 <GPIO_setupPinDirection+0x10c>
    1f92:	88 0f       	add	r24, r24
    1f94:	99 1f       	adc	r25, r25
    1f96:	0a 94       	dec	r0
    1f98:	e2 f7       	brpl	.-8      	; 0x1f92 <GPIO_setupPinDirection+0x108>
    1f9a:	80 95       	com	r24
    1f9c:	84 23       	and	r24, r20
    1f9e:	8c 93       	st	X, r24
    1fa0:	57 c0       	rjmp	.+174    	; 0x2050 <GPIO_setupPinDirection+0x1c6>
			}
			break;
		case PORTC_ID:
			if(direction == PIN_OUTPUT)
    1fa2:	8b 81       	ldd	r24, Y+3	; 0x03
    1fa4:	81 30       	cpi	r24, 0x01	; 1
    1fa6:	a1 f4       	brne	.+40     	; 0x1fd0 <GPIO_setupPinDirection+0x146>
			{
				SET_BIT(DDRC,pin_num);
    1fa8:	a4 e3       	ldi	r26, 0x34	; 52
    1faa:	b0 e0       	ldi	r27, 0x00	; 0
    1fac:	e4 e3       	ldi	r30, 0x34	; 52
    1fae:	f0 e0       	ldi	r31, 0x00	; 0
    1fb0:	80 81       	ld	r24, Z
    1fb2:	48 2f       	mov	r20, r24
    1fb4:	8a 81       	ldd	r24, Y+2	; 0x02
    1fb6:	28 2f       	mov	r18, r24
    1fb8:	30 e0       	ldi	r19, 0x00	; 0
    1fba:	81 e0       	ldi	r24, 0x01	; 1
    1fbc:	90 e0       	ldi	r25, 0x00	; 0
    1fbe:	02 2e       	mov	r0, r18
    1fc0:	02 c0       	rjmp	.+4      	; 0x1fc6 <GPIO_setupPinDirection+0x13c>
    1fc2:	88 0f       	add	r24, r24
    1fc4:	99 1f       	adc	r25, r25
    1fc6:	0a 94       	dec	r0
    1fc8:	e2 f7       	brpl	.-8      	; 0x1fc2 <GPIO_setupPinDirection+0x138>
    1fca:	84 2b       	or	r24, r20
    1fcc:	8c 93       	st	X, r24
    1fce:	40 c0       	rjmp	.+128    	; 0x2050 <GPIO_setupPinDirection+0x1c6>
			}
			else
			{
				CLEAR_BIT(DDRC,pin_num);
    1fd0:	a4 e3       	ldi	r26, 0x34	; 52
    1fd2:	b0 e0       	ldi	r27, 0x00	; 0
    1fd4:	e4 e3       	ldi	r30, 0x34	; 52
    1fd6:	f0 e0       	ldi	r31, 0x00	; 0
    1fd8:	80 81       	ld	r24, Z
    1fda:	48 2f       	mov	r20, r24
    1fdc:	8a 81       	ldd	r24, Y+2	; 0x02
    1fde:	28 2f       	mov	r18, r24
    1fe0:	30 e0       	ldi	r19, 0x00	; 0
    1fe2:	81 e0       	ldi	r24, 0x01	; 1
    1fe4:	90 e0       	ldi	r25, 0x00	; 0
    1fe6:	02 2e       	mov	r0, r18
    1fe8:	02 c0       	rjmp	.+4      	; 0x1fee <GPIO_setupPinDirection+0x164>
    1fea:	88 0f       	add	r24, r24
    1fec:	99 1f       	adc	r25, r25
    1fee:	0a 94       	dec	r0
    1ff0:	e2 f7       	brpl	.-8      	; 0x1fea <GPIO_setupPinDirection+0x160>
    1ff2:	80 95       	com	r24
    1ff4:	84 23       	and	r24, r20
    1ff6:	8c 93       	st	X, r24
    1ff8:	2b c0       	rjmp	.+86     	; 0x2050 <GPIO_setupPinDirection+0x1c6>
			}
			break;
		case PORTD_ID:
			if(direction == PIN_OUTPUT)
    1ffa:	8b 81       	ldd	r24, Y+3	; 0x03
    1ffc:	81 30       	cpi	r24, 0x01	; 1
    1ffe:	a1 f4       	brne	.+40     	; 0x2028 <GPIO_setupPinDirection+0x19e>
			{
				SET_BIT(DDRD,pin_num);
    2000:	a1 e3       	ldi	r26, 0x31	; 49
    2002:	b0 e0       	ldi	r27, 0x00	; 0
    2004:	e1 e3       	ldi	r30, 0x31	; 49
    2006:	f0 e0       	ldi	r31, 0x00	; 0
    2008:	80 81       	ld	r24, Z
    200a:	48 2f       	mov	r20, r24
    200c:	8a 81       	ldd	r24, Y+2	; 0x02
    200e:	28 2f       	mov	r18, r24
    2010:	30 e0       	ldi	r19, 0x00	; 0
    2012:	81 e0       	ldi	r24, 0x01	; 1
    2014:	90 e0       	ldi	r25, 0x00	; 0
    2016:	02 2e       	mov	r0, r18
    2018:	02 c0       	rjmp	.+4      	; 0x201e <GPIO_setupPinDirection+0x194>
    201a:	88 0f       	add	r24, r24
    201c:	99 1f       	adc	r25, r25
    201e:	0a 94       	dec	r0
    2020:	e2 f7       	brpl	.-8      	; 0x201a <GPIO_setupPinDirection+0x190>
    2022:	84 2b       	or	r24, r20
    2024:	8c 93       	st	X, r24
    2026:	14 c0       	rjmp	.+40     	; 0x2050 <GPIO_setupPinDirection+0x1c6>
			}
			else
			{
				CLEAR_BIT(DDRD,pin_num);
    2028:	a1 e3       	ldi	r26, 0x31	; 49
    202a:	b0 e0       	ldi	r27, 0x00	; 0
    202c:	e1 e3       	ldi	r30, 0x31	; 49
    202e:	f0 e0       	ldi	r31, 0x00	; 0
    2030:	80 81       	ld	r24, Z
    2032:	48 2f       	mov	r20, r24
    2034:	8a 81       	ldd	r24, Y+2	; 0x02
    2036:	28 2f       	mov	r18, r24
    2038:	30 e0       	ldi	r19, 0x00	; 0
    203a:	81 e0       	ldi	r24, 0x01	; 1
    203c:	90 e0       	ldi	r25, 0x00	; 0
    203e:	02 2e       	mov	r0, r18
    2040:	02 c0       	rjmp	.+4      	; 0x2046 <GPIO_setupPinDirection+0x1bc>
    2042:	88 0f       	add	r24, r24
    2044:	99 1f       	adc	r25, r25
    2046:	0a 94       	dec	r0
    2048:	e2 f7       	brpl	.-8      	; 0x2042 <GPIO_setupPinDirection+0x1b8>
    204a:	80 95       	com	r24
    204c:	84 23       	and	r24, r20
    204e:	8c 93       	st	X, r24
			}
			break;
		}
	}
}
    2050:	0f 90       	pop	r0
    2052:	0f 90       	pop	r0
    2054:	0f 90       	pop	r0
    2056:	0f 90       	pop	r0
    2058:	0f 90       	pop	r0
    205a:	cf 91       	pop	r28
    205c:	df 91       	pop	r29
    205e:	08 95       	ret

00002060 <GPIO_writePin>:
 * Write the value Logic High or Logic Low on the required pin.
 * If the input port number or pin number are not correct, The function will not handle the request.
 * If the pin is input, this function will enable/disable the internal pull-up resistor.
 */
void GPIO_writePin(uint8 port_num, uint8 pin_num, uint8 value)
{
    2060:	df 93       	push	r29
    2062:	cf 93       	push	r28
    2064:	00 d0       	rcall	.+0      	; 0x2066 <GPIO_writePin+0x6>
    2066:	00 d0       	rcall	.+0      	; 0x2068 <GPIO_writePin+0x8>
    2068:	0f 92       	push	r0
    206a:	cd b7       	in	r28, 0x3d	; 61
    206c:	de b7       	in	r29, 0x3e	; 62
    206e:	89 83       	std	Y+1, r24	; 0x01
    2070:	6a 83       	std	Y+2, r22	; 0x02
    2072:	4b 83       	std	Y+3, r20	; 0x03
	/*
	 * Check if the input port number is greater than NUM_OF_PINS_PER_PORT value.
	 * Or if the input pin number is greater than NUM_OF_PINS_PER_PORT value.
	 * In this case the input is not valid port/pin number
	 */
	if((pin_num >= NUM_OF_PINS_PER_PORT) || (port_num >= NUM_OF_PORTS))
    2074:	8a 81       	ldd	r24, Y+2	; 0x02
    2076:	88 30       	cpi	r24, 0x08	; 8
    2078:	08 f0       	brcs	.+2      	; 0x207c <GPIO_writePin+0x1c>
    207a:	d5 c0       	rjmp	.+426    	; 0x2226 <GPIO_writePin+0x1c6>
    207c:	89 81       	ldd	r24, Y+1	; 0x01
    207e:	84 30       	cpi	r24, 0x04	; 4
    2080:	08 f0       	brcs	.+2      	; 0x2084 <GPIO_writePin+0x24>
    2082:	d1 c0       	rjmp	.+418    	; 0x2226 <GPIO_writePin+0x1c6>
		/* Do Nothing */
	}
	else
	{
		/* Write the pin value as required */
		switch(port_num)
    2084:	89 81       	ldd	r24, Y+1	; 0x01
    2086:	28 2f       	mov	r18, r24
    2088:	30 e0       	ldi	r19, 0x00	; 0
    208a:	3d 83       	std	Y+5, r19	; 0x05
    208c:	2c 83       	std	Y+4, r18	; 0x04
    208e:	8c 81       	ldd	r24, Y+4	; 0x04
    2090:	9d 81       	ldd	r25, Y+5	; 0x05
    2092:	81 30       	cpi	r24, 0x01	; 1
    2094:	91 05       	cpc	r25, r1
    2096:	09 f4       	brne	.+2      	; 0x209a <GPIO_writePin+0x3a>
    2098:	43 c0       	rjmp	.+134    	; 0x2120 <GPIO_writePin+0xc0>
    209a:	2c 81       	ldd	r18, Y+4	; 0x04
    209c:	3d 81       	ldd	r19, Y+5	; 0x05
    209e:	22 30       	cpi	r18, 0x02	; 2
    20a0:	31 05       	cpc	r19, r1
    20a2:	2c f4       	brge	.+10     	; 0x20ae <GPIO_writePin+0x4e>
    20a4:	8c 81       	ldd	r24, Y+4	; 0x04
    20a6:	9d 81       	ldd	r25, Y+5	; 0x05
    20a8:	00 97       	sbiw	r24, 0x00	; 0
    20aa:	71 f0       	breq	.+28     	; 0x20c8 <GPIO_writePin+0x68>
    20ac:	bc c0       	rjmp	.+376    	; 0x2226 <GPIO_writePin+0x1c6>
    20ae:	2c 81       	ldd	r18, Y+4	; 0x04
    20b0:	3d 81       	ldd	r19, Y+5	; 0x05
    20b2:	22 30       	cpi	r18, 0x02	; 2
    20b4:	31 05       	cpc	r19, r1
    20b6:	09 f4       	brne	.+2      	; 0x20ba <GPIO_writePin+0x5a>
    20b8:	5f c0       	rjmp	.+190    	; 0x2178 <GPIO_writePin+0x118>
    20ba:	8c 81       	ldd	r24, Y+4	; 0x04
    20bc:	9d 81       	ldd	r25, Y+5	; 0x05
    20be:	83 30       	cpi	r24, 0x03	; 3
    20c0:	91 05       	cpc	r25, r1
    20c2:	09 f4       	brne	.+2      	; 0x20c6 <GPIO_writePin+0x66>
    20c4:	85 c0       	rjmp	.+266    	; 0x21d0 <GPIO_writePin+0x170>
    20c6:	af c0       	rjmp	.+350    	; 0x2226 <GPIO_writePin+0x1c6>
		{
		case PORTA_ID:
			if(value == LOGIC_HIGH)
    20c8:	8b 81       	ldd	r24, Y+3	; 0x03
    20ca:	81 30       	cpi	r24, 0x01	; 1
    20cc:	a1 f4       	brne	.+40     	; 0x20f6 <GPIO_writePin+0x96>
			{
				SET_BIT(PORTA,pin_num);
    20ce:	ab e3       	ldi	r26, 0x3B	; 59
    20d0:	b0 e0       	ldi	r27, 0x00	; 0
    20d2:	eb e3       	ldi	r30, 0x3B	; 59
    20d4:	f0 e0       	ldi	r31, 0x00	; 0
    20d6:	80 81       	ld	r24, Z
    20d8:	48 2f       	mov	r20, r24
    20da:	8a 81       	ldd	r24, Y+2	; 0x02
    20dc:	28 2f       	mov	r18, r24
    20de:	30 e0       	ldi	r19, 0x00	; 0
    20e0:	81 e0       	ldi	r24, 0x01	; 1
    20e2:	90 e0       	ldi	r25, 0x00	; 0
    20e4:	02 2e       	mov	r0, r18
    20e6:	02 c0       	rjmp	.+4      	; 0x20ec <GPIO_writePin+0x8c>
    20e8:	88 0f       	add	r24, r24
    20ea:	99 1f       	adc	r25, r25
    20ec:	0a 94       	dec	r0
    20ee:	e2 f7       	brpl	.-8      	; 0x20e8 <GPIO_writePin+0x88>
    20f0:	84 2b       	or	r24, r20
    20f2:	8c 93       	st	X, r24
    20f4:	98 c0       	rjmp	.+304    	; 0x2226 <GPIO_writePin+0x1c6>
			}
			else
			{
				CLEAR_BIT(PORTA,pin_num);
    20f6:	ab e3       	ldi	r26, 0x3B	; 59
    20f8:	b0 e0       	ldi	r27, 0x00	; 0
    20fa:	eb e3       	ldi	r30, 0x3B	; 59
    20fc:	f0 e0       	ldi	r31, 0x00	; 0
    20fe:	80 81       	ld	r24, Z
    2100:	48 2f       	mov	r20, r24
    2102:	8a 81       	ldd	r24, Y+2	; 0x02
    2104:	28 2f       	mov	r18, r24
    2106:	30 e0       	ldi	r19, 0x00	; 0
    2108:	81 e0       	ldi	r24, 0x01	; 1
    210a:	90 e0       	ldi	r25, 0x00	; 0
    210c:	02 2e       	mov	r0, r18
    210e:	02 c0       	rjmp	.+4      	; 0x2114 <GPIO_writePin+0xb4>
    2110:	88 0f       	add	r24, r24
    2112:	99 1f       	adc	r25, r25
    2114:	0a 94       	dec	r0
    2116:	e2 f7       	brpl	.-8      	; 0x2110 <GPIO_writePin+0xb0>
    2118:	80 95       	com	r24
    211a:	84 23       	and	r24, r20
    211c:	8c 93       	st	X, r24
    211e:	83 c0       	rjmp	.+262    	; 0x2226 <GPIO_writePin+0x1c6>
			}
			break;
		case PORTB_ID:
			if(value == LOGIC_HIGH)
    2120:	8b 81       	ldd	r24, Y+3	; 0x03
    2122:	81 30       	cpi	r24, 0x01	; 1
    2124:	a1 f4       	brne	.+40     	; 0x214e <GPIO_writePin+0xee>
			{
				SET_BIT(PORTB,pin_num);
    2126:	a8 e3       	ldi	r26, 0x38	; 56
    2128:	b0 e0       	ldi	r27, 0x00	; 0
    212a:	e8 e3       	ldi	r30, 0x38	; 56
    212c:	f0 e0       	ldi	r31, 0x00	; 0
    212e:	80 81       	ld	r24, Z
    2130:	48 2f       	mov	r20, r24
    2132:	8a 81       	ldd	r24, Y+2	; 0x02
    2134:	28 2f       	mov	r18, r24
    2136:	30 e0       	ldi	r19, 0x00	; 0
    2138:	81 e0       	ldi	r24, 0x01	; 1
    213a:	90 e0       	ldi	r25, 0x00	; 0
    213c:	02 2e       	mov	r0, r18
    213e:	02 c0       	rjmp	.+4      	; 0x2144 <GPIO_writePin+0xe4>
    2140:	88 0f       	add	r24, r24
    2142:	99 1f       	adc	r25, r25
    2144:	0a 94       	dec	r0
    2146:	e2 f7       	brpl	.-8      	; 0x2140 <GPIO_writePin+0xe0>
    2148:	84 2b       	or	r24, r20
    214a:	8c 93       	st	X, r24
    214c:	6c c0       	rjmp	.+216    	; 0x2226 <GPIO_writePin+0x1c6>
			}
			else
			{
				CLEAR_BIT(PORTB,pin_num);
    214e:	a8 e3       	ldi	r26, 0x38	; 56
    2150:	b0 e0       	ldi	r27, 0x00	; 0
    2152:	e8 e3       	ldi	r30, 0x38	; 56
    2154:	f0 e0       	ldi	r31, 0x00	; 0
    2156:	80 81       	ld	r24, Z
    2158:	48 2f       	mov	r20, r24
    215a:	8a 81       	ldd	r24, Y+2	; 0x02
    215c:	28 2f       	mov	r18, r24
    215e:	30 e0       	ldi	r19, 0x00	; 0
    2160:	81 e0       	ldi	r24, 0x01	; 1
    2162:	90 e0       	ldi	r25, 0x00	; 0
    2164:	02 2e       	mov	r0, r18
    2166:	02 c0       	rjmp	.+4      	; 0x216c <GPIO_writePin+0x10c>
    2168:	88 0f       	add	r24, r24
    216a:	99 1f       	adc	r25, r25
    216c:	0a 94       	dec	r0
    216e:	e2 f7       	brpl	.-8      	; 0x2168 <GPIO_writePin+0x108>
    2170:	80 95       	com	r24
    2172:	84 23       	and	r24, r20
    2174:	8c 93       	st	X, r24
    2176:	57 c0       	rjmp	.+174    	; 0x2226 <GPIO_writePin+0x1c6>
			}
			break;
		case PORTC_ID:
			if(value == LOGIC_HIGH)
    2178:	8b 81       	ldd	r24, Y+3	; 0x03
    217a:	81 30       	cpi	r24, 0x01	; 1
    217c:	a1 f4       	brne	.+40     	; 0x21a6 <GPIO_writePin+0x146>
			{
				SET_BIT(PORTC,pin_num);
    217e:	a5 e3       	ldi	r26, 0x35	; 53
    2180:	b0 e0       	ldi	r27, 0x00	; 0
    2182:	e5 e3       	ldi	r30, 0x35	; 53
    2184:	f0 e0       	ldi	r31, 0x00	; 0
    2186:	80 81       	ld	r24, Z
    2188:	48 2f       	mov	r20, r24
    218a:	8a 81       	ldd	r24, Y+2	; 0x02
    218c:	28 2f       	mov	r18, r24
    218e:	30 e0       	ldi	r19, 0x00	; 0
    2190:	81 e0       	ldi	r24, 0x01	; 1
    2192:	90 e0       	ldi	r25, 0x00	; 0
    2194:	02 2e       	mov	r0, r18
    2196:	02 c0       	rjmp	.+4      	; 0x219c <GPIO_writePin+0x13c>
    2198:	88 0f       	add	r24, r24
    219a:	99 1f       	adc	r25, r25
    219c:	0a 94       	dec	r0
    219e:	e2 f7       	brpl	.-8      	; 0x2198 <GPIO_writePin+0x138>
    21a0:	84 2b       	or	r24, r20
    21a2:	8c 93       	st	X, r24
    21a4:	40 c0       	rjmp	.+128    	; 0x2226 <GPIO_writePin+0x1c6>
			}
			else
			{
				CLEAR_BIT(PORTC,pin_num);
    21a6:	a5 e3       	ldi	r26, 0x35	; 53
    21a8:	b0 e0       	ldi	r27, 0x00	; 0
    21aa:	e5 e3       	ldi	r30, 0x35	; 53
    21ac:	f0 e0       	ldi	r31, 0x00	; 0
    21ae:	80 81       	ld	r24, Z
    21b0:	48 2f       	mov	r20, r24
    21b2:	8a 81       	ldd	r24, Y+2	; 0x02
    21b4:	28 2f       	mov	r18, r24
    21b6:	30 e0       	ldi	r19, 0x00	; 0
    21b8:	81 e0       	ldi	r24, 0x01	; 1
    21ba:	90 e0       	ldi	r25, 0x00	; 0
    21bc:	02 2e       	mov	r0, r18
    21be:	02 c0       	rjmp	.+4      	; 0x21c4 <GPIO_writePin+0x164>
    21c0:	88 0f       	add	r24, r24
    21c2:	99 1f       	adc	r25, r25
    21c4:	0a 94       	dec	r0
    21c6:	e2 f7       	brpl	.-8      	; 0x21c0 <GPIO_writePin+0x160>
    21c8:	80 95       	com	r24
    21ca:	84 23       	and	r24, r20
    21cc:	8c 93       	st	X, r24
    21ce:	2b c0       	rjmp	.+86     	; 0x2226 <GPIO_writePin+0x1c6>
			}
			break;
		case PORTD_ID:
			if(value == LOGIC_HIGH)
    21d0:	8b 81       	ldd	r24, Y+3	; 0x03
    21d2:	81 30       	cpi	r24, 0x01	; 1
    21d4:	a1 f4       	brne	.+40     	; 0x21fe <GPIO_writePin+0x19e>
			{
				SET_BIT(PORTD,pin_num);
    21d6:	a2 e3       	ldi	r26, 0x32	; 50
    21d8:	b0 e0       	ldi	r27, 0x00	; 0
    21da:	e2 e3       	ldi	r30, 0x32	; 50
    21dc:	f0 e0       	ldi	r31, 0x00	; 0
    21de:	80 81       	ld	r24, Z
    21e0:	48 2f       	mov	r20, r24
    21e2:	8a 81       	ldd	r24, Y+2	; 0x02
    21e4:	28 2f       	mov	r18, r24
    21e6:	30 e0       	ldi	r19, 0x00	; 0
    21e8:	81 e0       	ldi	r24, 0x01	; 1
    21ea:	90 e0       	ldi	r25, 0x00	; 0
    21ec:	02 2e       	mov	r0, r18
    21ee:	02 c0       	rjmp	.+4      	; 0x21f4 <GPIO_writePin+0x194>
    21f0:	88 0f       	add	r24, r24
    21f2:	99 1f       	adc	r25, r25
    21f4:	0a 94       	dec	r0
    21f6:	e2 f7       	brpl	.-8      	; 0x21f0 <GPIO_writePin+0x190>
    21f8:	84 2b       	or	r24, r20
    21fa:	8c 93       	st	X, r24
    21fc:	14 c0       	rjmp	.+40     	; 0x2226 <GPIO_writePin+0x1c6>
			}
			else
			{
				CLEAR_BIT(PORTD,pin_num);
    21fe:	a2 e3       	ldi	r26, 0x32	; 50
    2200:	b0 e0       	ldi	r27, 0x00	; 0
    2202:	e2 e3       	ldi	r30, 0x32	; 50
    2204:	f0 e0       	ldi	r31, 0x00	; 0
    2206:	80 81       	ld	r24, Z
    2208:	48 2f       	mov	r20, r24
    220a:	8a 81       	ldd	r24, Y+2	; 0x02
    220c:	28 2f       	mov	r18, r24
    220e:	30 e0       	ldi	r19, 0x00	; 0
    2210:	81 e0       	ldi	r24, 0x01	; 1
    2212:	90 e0       	ldi	r25, 0x00	; 0
    2214:	02 2e       	mov	r0, r18
    2216:	02 c0       	rjmp	.+4      	; 0x221c <GPIO_writePin+0x1bc>
    2218:	88 0f       	add	r24, r24
    221a:	99 1f       	adc	r25, r25
    221c:	0a 94       	dec	r0
    221e:	e2 f7       	brpl	.-8      	; 0x2218 <GPIO_writePin+0x1b8>
    2220:	80 95       	com	r24
    2222:	84 23       	and	r24, r20
    2224:	8c 93       	st	X, r24
			}
			break;
		}
	}
}
    2226:	0f 90       	pop	r0
    2228:	0f 90       	pop	r0
    222a:	0f 90       	pop	r0
    222c:	0f 90       	pop	r0
    222e:	0f 90       	pop	r0
    2230:	cf 91       	pop	r28
    2232:	df 91       	pop	r29
    2234:	08 95       	ret

00002236 <GPIO_readPin>:
 * Description :
 * Read and return the value for the required pin, it should be Logic High or Logic Low.
 * If the input port number or pin number are not correct, The function will return Logic Low.
 */
uint8 GPIO_readPin(uint8 port_num, uint8 pin_num)
{
    2236:	df 93       	push	r29
    2238:	cf 93       	push	r28
    223a:	00 d0       	rcall	.+0      	; 0x223c <GPIO_readPin+0x6>
    223c:	00 d0       	rcall	.+0      	; 0x223e <GPIO_readPin+0x8>
    223e:	0f 92       	push	r0
    2240:	cd b7       	in	r28, 0x3d	; 61
    2242:	de b7       	in	r29, 0x3e	; 62
    2244:	8a 83       	std	Y+2, r24	; 0x02
    2246:	6b 83       	std	Y+3, r22	; 0x03
	uint8 pin_value = LOGIC_LOW;
    2248:	19 82       	std	Y+1, r1	; 0x01
	/*
	 * Check if the input port number is greater than NUM_OF_PINS_PER_PORT value.
	 * Or if the input pin number is greater than NUM_OF_PINS_PER_PORT value.
	 * In this case the input is not valid port/pin number
	 */
	if((pin_num >= NUM_OF_PINS_PER_PORT) || (port_num >= NUM_OF_PORTS))
    224a:	8b 81       	ldd	r24, Y+3	; 0x03
    224c:	88 30       	cpi	r24, 0x08	; 8
    224e:	08 f0       	brcs	.+2      	; 0x2252 <GPIO_readPin+0x1c>
    2250:	84 c0       	rjmp	.+264    	; 0x235a <GPIO_readPin+0x124>
    2252:	8a 81       	ldd	r24, Y+2	; 0x02
    2254:	84 30       	cpi	r24, 0x04	; 4
    2256:	08 f0       	brcs	.+2      	; 0x225a <GPIO_readPin+0x24>
    2258:	80 c0       	rjmp	.+256    	; 0x235a <GPIO_readPin+0x124>
		/* Do Nothing */
	}
	else
	{
		/* Read the pin value as required */
		switch(port_num)
    225a:	8a 81       	ldd	r24, Y+2	; 0x02
    225c:	28 2f       	mov	r18, r24
    225e:	30 e0       	ldi	r19, 0x00	; 0
    2260:	3d 83       	std	Y+5, r19	; 0x05
    2262:	2c 83       	std	Y+4, r18	; 0x04
    2264:	4c 81       	ldd	r20, Y+4	; 0x04
    2266:	5d 81       	ldd	r21, Y+5	; 0x05
    2268:	41 30       	cpi	r20, 0x01	; 1
    226a:	51 05       	cpc	r21, r1
    226c:	79 f1       	breq	.+94     	; 0x22cc <GPIO_readPin+0x96>
    226e:	8c 81       	ldd	r24, Y+4	; 0x04
    2270:	9d 81       	ldd	r25, Y+5	; 0x05
    2272:	82 30       	cpi	r24, 0x02	; 2
    2274:	91 05       	cpc	r25, r1
    2276:	34 f4       	brge	.+12     	; 0x2284 <GPIO_readPin+0x4e>
    2278:	2c 81       	ldd	r18, Y+4	; 0x04
    227a:	3d 81       	ldd	r19, Y+5	; 0x05
    227c:	21 15       	cp	r18, r1
    227e:	31 05       	cpc	r19, r1
    2280:	69 f0       	breq	.+26     	; 0x229c <GPIO_readPin+0x66>
    2282:	6b c0       	rjmp	.+214    	; 0x235a <GPIO_readPin+0x124>
    2284:	4c 81       	ldd	r20, Y+4	; 0x04
    2286:	5d 81       	ldd	r21, Y+5	; 0x05
    2288:	42 30       	cpi	r20, 0x02	; 2
    228a:	51 05       	cpc	r21, r1
    228c:	b9 f1       	breq	.+110    	; 0x22fc <GPIO_readPin+0xc6>
    228e:	8c 81       	ldd	r24, Y+4	; 0x04
    2290:	9d 81       	ldd	r25, Y+5	; 0x05
    2292:	83 30       	cpi	r24, 0x03	; 3
    2294:	91 05       	cpc	r25, r1
    2296:	09 f4       	brne	.+2      	; 0x229a <GPIO_readPin+0x64>
    2298:	49 c0       	rjmp	.+146    	; 0x232c <GPIO_readPin+0xf6>
    229a:	5f c0       	rjmp	.+190    	; 0x235a <GPIO_readPin+0x124>
		{
		case PORTA_ID:
			if(BIT_IS_SET(PINA,pin_num))
    229c:	e9 e3       	ldi	r30, 0x39	; 57
    229e:	f0 e0       	ldi	r31, 0x00	; 0
    22a0:	80 81       	ld	r24, Z
    22a2:	28 2f       	mov	r18, r24
    22a4:	30 e0       	ldi	r19, 0x00	; 0
    22a6:	8b 81       	ldd	r24, Y+3	; 0x03
    22a8:	88 2f       	mov	r24, r24
    22aa:	90 e0       	ldi	r25, 0x00	; 0
    22ac:	a9 01       	movw	r20, r18
    22ae:	02 c0       	rjmp	.+4      	; 0x22b4 <GPIO_readPin+0x7e>
    22b0:	55 95       	asr	r21
    22b2:	47 95       	ror	r20
    22b4:	8a 95       	dec	r24
    22b6:	e2 f7       	brpl	.-8      	; 0x22b0 <GPIO_readPin+0x7a>
    22b8:	ca 01       	movw	r24, r20
    22ba:	81 70       	andi	r24, 0x01	; 1
    22bc:	90 70       	andi	r25, 0x00	; 0
    22be:	88 23       	and	r24, r24
    22c0:	19 f0       	breq	.+6      	; 0x22c8 <GPIO_readPin+0x92>
			{
				pin_value = LOGIC_HIGH;
    22c2:	81 e0       	ldi	r24, 0x01	; 1
    22c4:	89 83       	std	Y+1, r24	; 0x01
    22c6:	49 c0       	rjmp	.+146    	; 0x235a <GPIO_readPin+0x124>
			}
			else
			{
				pin_value = LOGIC_LOW;
    22c8:	19 82       	std	Y+1, r1	; 0x01
    22ca:	47 c0       	rjmp	.+142    	; 0x235a <GPIO_readPin+0x124>
			}
			break;
		case PORTB_ID:
			if(BIT_IS_SET(PINB,pin_num))
    22cc:	e6 e3       	ldi	r30, 0x36	; 54
    22ce:	f0 e0       	ldi	r31, 0x00	; 0
    22d0:	80 81       	ld	r24, Z
    22d2:	28 2f       	mov	r18, r24
    22d4:	30 e0       	ldi	r19, 0x00	; 0
    22d6:	8b 81       	ldd	r24, Y+3	; 0x03
    22d8:	88 2f       	mov	r24, r24
    22da:	90 e0       	ldi	r25, 0x00	; 0
    22dc:	a9 01       	movw	r20, r18
    22de:	02 c0       	rjmp	.+4      	; 0x22e4 <GPIO_readPin+0xae>
    22e0:	55 95       	asr	r21
    22e2:	47 95       	ror	r20
    22e4:	8a 95       	dec	r24
    22e6:	e2 f7       	brpl	.-8      	; 0x22e0 <GPIO_readPin+0xaa>
    22e8:	ca 01       	movw	r24, r20
    22ea:	81 70       	andi	r24, 0x01	; 1
    22ec:	90 70       	andi	r25, 0x00	; 0
    22ee:	88 23       	and	r24, r24
    22f0:	19 f0       	breq	.+6      	; 0x22f8 <GPIO_readPin+0xc2>
			{
				pin_value = LOGIC_HIGH;
    22f2:	81 e0       	ldi	r24, 0x01	; 1
    22f4:	89 83       	std	Y+1, r24	; 0x01
    22f6:	31 c0       	rjmp	.+98     	; 0x235a <GPIO_readPin+0x124>
			}
			else
			{
				pin_value = LOGIC_LOW;
    22f8:	19 82       	std	Y+1, r1	; 0x01
    22fa:	2f c0       	rjmp	.+94     	; 0x235a <GPIO_readPin+0x124>
			}
			break;
		case PORTC_ID:
			if(BIT_IS_SET(PINC,pin_num))
    22fc:	e3 e3       	ldi	r30, 0x33	; 51
    22fe:	f0 e0       	ldi	r31, 0x00	; 0
    2300:	80 81       	ld	r24, Z
    2302:	28 2f       	mov	r18, r24
    2304:	30 e0       	ldi	r19, 0x00	; 0
    2306:	8b 81       	ldd	r24, Y+3	; 0x03
    2308:	88 2f       	mov	r24, r24
    230a:	90 e0       	ldi	r25, 0x00	; 0
    230c:	a9 01       	movw	r20, r18
    230e:	02 c0       	rjmp	.+4      	; 0x2314 <GPIO_readPin+0xde>
    2310:	55 95       	asr	r21
    2312:	47 95       	ror	r20
    2314:	8a 95       	dec	r24
    2316:	e2 f7       	brpl	.-8      	; 0x2310 <GPIO_readPin+0xda>
    2318:	ca 01       	movw	r24, r20
    231a:	81 70       	andi	r24, 0x01	; 1
    231c:	90 70       	andi	r25, 0x00	; 0
    231e:	88 23       	and	r24, r24
    2320:	19 f0       	breq	.+6      	; 0x2328 <GPIO_readPin+0xf2>
			{
				pin_value = LOGIC_HIGH;
    2322:	81 e0       	ldi	r24, 0x01	; 1
    2324:	89 83       	std	Y+1, r24	; 0x01
    2326:	19 c0       	rjmp	.+50     	; 0x235a <GPIO_readPin+0x124>
			}
			else
			{
				pin_value = LOGIC_LOW;
    2328:	19 82       	std	Y+1, r1	; 0x01
    232a:	17 c0       	rjmp	.+46     	; 0x235a <GPIO_readPin+0x124>
			}
			break;
		case PORTD_ID:
			if(BIT_IS_SET(PIND,pin_num))
    232c:	e0 e3       	ldi	r30, 0x30	; 48
    232e:	f0 e0       	ldi	r31, 0x00	; 0
    2330:	80 81       	ld	r24, Z
    2332:	28 2f       	mov	r18, r24
    2334:	30 e0       	ldi	r19, 0x00	; 0
    2336:	8b 81       	ldd	r24, Y+3	; 0x03
    2338:	88 2f       	mov	r24, r24
    233a:	90 e0       	ldi	r25, 0x00	; 0
    233c:	a9 01       	movw	r20, r18
    233e:	02 c0       	rjmp	.+4      	; 0x2344 <GPIO_readPin+0x10e>
    2340:	55 95       	asr	r21
    2342:	47 95       	ror	r20
    2344:	8a 95       	dec	r24
    2346:	e2 f7       	brpl	.-8      	; 0x2340 <GPIO_readPin+0x10a>
    2348:	ca 01       	movw	r24, r20
    234a:	81 70       	andi	r24, 0x01	; 1
    234c:	90 70       	andi	r25, 0x00	; 0
    234e:	88 23       	and	r24, r24
    2350:	19 f0       	breq	.+6      	; 0x2358 <GPIO_readPin+0x122>
			{
				pin_value = LOGIC_HIGH;
    2352:	81 e0       	ldi	r24, 0x01	; 1
    2354:	89 83       	std	Y+1, r24	; 0x01
    2356:	01 c0       	rjmp	.+2      	; 0x235a <GPIO_readPin+0x124>
			}
			else
			{
				pin_value = LOGIC_LOW;
    2358:	19 82       	std	Y+1, r1	; 0x01
			}
			break;
		}
	}

	return pin_value;
    235a:	89 81       	ldd	r24, Y+1	; 0x01
}
    235c:	0f 90       	pop	r0
    235e:	0f 90       	pop	r0
    2360:	0f 90       	pop	r0
    2362:	0f 90       	pop	r0
    2364:	0f 90       	pop	r0
    2366:	cf 91       	pop	r28
    2368:	df 91       	pop	r29
    236a:	08 95       	ret

0000236c <GPIO_setupPortDirection>:
 * If the direction value is PORT_INPUT all pins in this port should be input pins.
 * If the direction value is PORT_OUTPUT all pins in this port should be output pins.
 * If the input port number is not correct, The function will not handle the request.
 */
void GPIO_setupPortDirection(uint8 port_num, GPIO_PortDirectionType direction)
{
    236c:	df 93       	push	r29
    236e:	cf 93       	push	r28
    2370:	00 d0       	rcall	.+0      	; 0x2372 <GPIO_setupPortDirection+0x6>
    2372:	00 d0       	rcall	.+0      	; 0x2374 <GPIO_setupPortDirection+0x8>
    2374:	cd b7       	in	r28, 0x3d	; 61
    2376:	de b7       	in	r29, 0x3e	; 62
    2378:	89 83       	std	Y+1, r24	; 0x01
    237a:	6a 83       	std	Y+2, r22	; 0x02
	/*
	 * Check if the input number is greater than NUM_OF_PORTS value.
	 * In this case the input is not valid port number
	 */
	if(port_num >= NUM_OF_PORTS)
    237c:	89 81       	ldd	r24, Y+1	; 0x01
    237e:	84 30       	cpi	r24, 0x04	; 4
    2380:	90 f5       	brcc	.+100    	; 0x23e6 <GPIO_setupPortDirection+0x7a>
		/* Do Nothing */
	}
	else
	{
		/* Setup the port direction as required */
		switch(port_num)
    2382:	89 81       	ldd	r24, Y+1	; 0x01
    2384:	28 2f       	mov	r18, r24
    2386:	30 e0       	ldi	r19, 0x00	; 0
    2388:	3c 83       	std	Y+4, r19	; 0x04
    238a:	2b 83       	std	Y+3, r18	; 0x03
    238c:	8b 81       	ldd	r24, Y+3	; 0x03
    238e:	9c 81       	ldd	r25, Y+4	; 0x04
    2390:	81 30       	cpi	r24, 0x01	; 1
    2392:	91 05       	cpc	r25, r1
    2394:	d1 f0       	breq	.+52     	; 0x23ca <GPIO_setupPortDirection+0x5e>
    2396:	2b 81       	ldd	r18, Y+3	; 0x03
    2398:	3c 81       	ldd	r19, Y+4	; 0x04
    239a:	22 30       	cpi	r18, 0x02	; 2
    239c:	31 05       	cpc	r19, r1
    239e:	2c f4       	brge	.+10     	; 0x23aa <GPIO_setupPortDirection+0x3e>
    23a0:	8b 81       	ldd	r24, Y+3	; 0x03
    23a2:	9c 81       	ldd	r25, Y+4	; 0x04
    23a4:	00 97       	sbiw	r24, 0x00	; 0
    23a6:	61 f0       	breq	.+24     	; 0x23c0 <GPIO_setupPortDirection+0x54>
    23a8:	1e c0       	rjmp	.+60     	; 0x23e6 <GPIO_setupPortDirection+0x7a>
    23aa:	2b 81       	ldd	r18, Y+3	; 0x03
    23ac:	3c 81       	ldd	r19, Y+4	; 0x04
    23ae:	22 30       	cpi	r18, 0x02	; 2
    23b0:	31 05       	cpc	r19, r1
    23b2:	81 f0       	breq	.+32     	; 0x23d4 <GPIO_setupPortDirection+0x68>
    23b4:	8b 81       	ldd	r24, Y+3	; 0x03
    23b6:	9c 81       	ldd	r25, Y+4	; 0x04
    23b8:	83 30       	cpi	r24, 0x03	; 3
    23ba:	91 05       	cpc	r25, r1
    23bc:	81 f0       	breq	.+32     	; 0x23de <GPIO_setupPortDirection+0x72>
    23be:	13 c0       	rjmp	.+38     	; 0x23e6 <GPIO_setupPortDirection+0x7a>
		{
		case PORTA_ID:
			DDRA = direction;
    23c0:	ea e3       	ldi	r30, 0x3A	; 58
    23c2:	f0 e0       	ldi	r31, 0x00	; 0
    23c4:	8a 81       	ldd	r24, Y+2	; 0x02
    23c6:	80 83       	st	Z, r24
    23c8:	0e c0       	rjmp	.+28     	; 0x23e6 <GPIO_setupPortDirection+0x7a>
			break;
		case PORTB_ID:
			DDRB = direction;
    23ca:	e7 e3       	ldi	r30, 0x37	; 55
    23cc:	f0 e0       	ldi	r31, 0x00	; 0
    23ce:	8a 81       	ldd	r24, Y+2	; 0x02
    23d0:	80 83       	st	Z, r24
    23d2:	09 c0       	rjmp	.+18     	; 0x23e6 <GPIO_setupPortDirection+0x7a>
			break;
		case PORTC_ID:
			DDRC = direction;
    23d4:	e4 e3       	ldi	r30, 0x34	; 52
    23d6:	f0 e0       	ldi	r31, 0x00	; 0
    23d8:	8a 81       	ldd	r24, Y+2	; 0x02
    23da:	80 83       	st	Z, r24
    23dc:	04 c0       	rjmp	.+8      	; 0x23e6 <GPIO_setupPortDirection+0x7a>
			break;
		case PORTD_ID:
			DDRD = direction;
    23de:	e1 e3       	ldi	r30, 0x31	; 49
    23e0:	f0 e0       	ldi	r31, 0x00	; 0
    23e2:	8a 81       	ldd	r24, Y+2	; 0x02
    23e4:	80 83       	st	Z, r24
			break;
		}
	}
}
    23e6:	0f 90       	pop	r0
    23e8:	0f 90       	pop	r0
    23ea:	0f 90       	pop	r0
    23ec:	0f 90       	pop	r0
    23ee:	cf 91       	pop	r28
    23f0:	df 91       	pop	r29
    23f2:	08 95       	ret

000023f4 <GPIO_writePort>:
 * If any pin in the port is output pin the value will be written.
 * If any pin in the port is input pin this will activate/deactivate the internal pull-up resistor.
 * If the input port number is not correct, The function will not handle the request.
 */
void GPIO_writePort(uint8 port_num, uint8 value)
{
    23f4:	df 93       	push	r29
    23f6:	cf 93       	push	r28
    23f8:	00 d0       	rcall	.+0      	; 0x23fa <GPIO_writePort+0x6>
    23fa:	00 d0       	rcall	.+0      	; 0x23fc <GPIO_writePort+0x8>
    23fc:	cd b7       	in	r28, 0x3d	; 61
    23fe:	de b7       	in	r29, 0x3e	; 62
    2400:	89 83       	std	Y+1, r24	; 0x01
    2402:	6a 83       	std	Y+2, r22	; 0x02
	/*
	 * Check if the input number is greater than NUM_OF_PORTS value.
	 * In this case the input is not valid port number
	 */
	if(port_num >= NUM_OF_PORTS)
    2404:	89 81       	ldd	r24, Y+1	; 0x01
    2406:	84 30       	cpi	r24, 0x04	; 4
    2408:	90 f5       	brcc	.+100    	; 0x246e <GPIO_writePort+0x7a>
		/* Do Nothing */
	}
	else
	{
		/* Write the port value as required */
		switch(port_num)
    240a:	89 81       	ldd	r24, Y+1	; 0x01
    240c:	28 2f       	mov	r18, r24
    240e:	30 e0       	ldi	r19, 0x00	; 0
    2410:	3c 83       	std	Y+4, r19	; 0x04
    2412:	2b 83       	std	Y+3, r18	; 0x03
    2414:	8b 81       	ldd	r24, Y+3	; 0x03
    2416:	9c 81       	ldd	r25, Y+4	; 0x04
    2418:	81 30       	cpi	r24, 0x01	; 1
    241a:	91 05       	cpc	r25, r1
    241c:	d1 f0       	breq	.+52     	; 0x2452 <GPIO_writePort+0x5e>
    241e:	2b 81       	ldd	r18, Y+3	; 0x03
    2420:	3c 81       	ldd	r19, Y+4	; 0x04
    2422:	22 30       	cpi	r18, 0x02	; 2
    2424:	31 05       	cpc	r19, r1
    2426:	2c f4       	brge	.+10     	; 0x2432 <GPIO_writePort+0x3e>
    2428:	8b 81       	ldd	r24, Y+3	; 0x03
    242a:	9c 81       	ldd	r25, Y+4	; 0x04
    242c:	00 97       	sbiw	r24, 0x00	; 0
    242e:	61 f0       	breq	.+24     	; 0x2448 <GPIO_writePort+0x54>
    2430:	1e c0       	rjmp	.+60     	; 0x246e <GPIO_writePort+0x7a>
    2432:	2b 81       	ldd	r18, Y+3	; 0x03
    2434:	3c 81       	ldd	r19, Y+4	; 0x04
    2436:	22 30       	cpi	r18, 0x02	; 2
    2438:	31 05       	cpc	r19, r1
    243a:	81 f0       	breq	.+32     	; 0x245c <GPIO_writePort+0x68>
    243c:	8b 81       	ldd	r24, Y+3	; 0x03
    243e:	9c 81       	ldd	r25, Y+4	; 0x04
    2440:	83 30       	cpi	r24, 0x03	; 3
    2442:	91 05       	cpc	r25, r1
    2444:	81 f0       	breq	.+32     	; 0x2466 <GPIO_writePort+0x72>
    2446:	13 c0       	rjmp	.+38     	; 0x246e <GPIO_writePort+0x7a>
		{
		case PORTA_ID:
			PORTA = value;
    2448:	eb e3       	ldi	r30, 0x3B	; 59
    244a:	f0 e0       	ldi	r31, 0x00	; 0
    244c:	8a 81       	ldd	r24, Y+2	; 0x02
    244e:	80 83       	st	Z, r24
    2450:	0e c0       	rjmp	.+28     	; 0x246e <GPIO_writePort+0x7a>
			break;
		case PORTB_ID:
			PORTB = value;
    2452:	e8 e3       	ldi	r30, 0x38	; 56
    2454:	f0 e0       	ldi	r31, 0x00	; 0
    2456:	8a 81       	ldd	r24, Y+2	; 0x02
    2458:	80 83       	st	Z, r24
    245a:	09 c0       	rjmp	.+18     	; 0x246e <GPIO_writePort+0x7a>
			break;
		case PORTC_ID:
			PORTC = value;
    245c:	e5 e3       	ldi	r30, 0x35	; 53
    245e:	f0 e0       	ldi	r31, 0x00	; 0
    2460:	8a 81       	ldd	r24, Y+2	; 0x02
    2462:	80 83       	st	Z, r24
    2464:	04 c0       	rjmp	.+8      	; 0x246e <GPIO_writePort+0x7a>
			break;
		case PORTD_ID:
			PORTD = value;
    2466:	e2 e3       	ldi	r30, 0x32	; 50
    2468:	f0 e0       	ldi	r31, 0x00	; 0
    246a:	8a 81       	ldd	r24, Y+2	; 0x02
    246c:	80 83       	st	Z, r24
			break;
		}
	}
}
    246e:	0f 90       	pop	r0
    2470:	0f 90       	pop	r0
    2472:	0f 90       	pop	r0
    2474:	0f 90       	pop	r0
    2476:	cf 91       	pop	r28
    2478:	df 91       	pop	r29
    247a:	08 95       	ret

0000247c <GPIO_readPort>:
 * Description :
 * Read and return the value of the required port.
 * If the input port number is not correct, The function will return ZERO value.
 */
uint8 GPIO_readPort(uint8 port_num)
{
    247c:	df 93       	push	r29
    247e:	cf 93       	push	r28
    2480:	00 d0       	rcall	.+0      	; 0x2482 <GPIO_readPort+0x6>
    2482:	00 d0       	rcall	.+0      	; 0x2484 <GPIO_readPort+0x8>
    2484:	cd b7       	in	r28, 0x3d	; 61
    2486:	de b7       	in	r29, 0x3e	; 62
    2488:	8a 83       	std	Y+2, r24	; 0x02
	uint8 value = LOGIC_LOW;
    248a:	19 82       	std	Y+1, r1	; 0x01

	/*
	 * Check if the input number is greater than NUM_OF_PORTS value.
	 * In this case the input is not valid port number
	 */
	if(port_num >= NUM_OF_PORTS)
    248c:	8a 81       	ldd	r24, Y+2	; 0x02
    248e:	84 30       	cpi	r24, 0x04	; 4
    2490:	90 f5       	brcc	.+100    	; 0x24f6 <GPIO_readPort+0x7a>
		/* Do Nothing */
	}
	else
	{
		/* Read the port value as required */
		switch(port_num)
    2492:	8a 81       	ldd	r24, Y+2	; 0x02
    2494:	28 2f       	mov	r18, r24
    2496:	30 e0       	ldi	r19, 0x00	; 0
    2498:	3c 83       	std	Y+4, r19	; 0x04
    249a:	2b 83       	std	Y+3, r18	; 0x03
    249c:	8b 81       	ldd	r24, Y+3	; 0x03
    249e:	9c 81       	ldd	r25, Y+4	; 0x04
    24a0:	81 30       	cpi	r24, 0x01	; 1
    24a2:	91 05       	cpc	r25, r1
    24a4:	d1 f0       	breq	.+52     	; 0x24da <GPIO_readPort+0x5e>
    24a6:	2b 81       	ldd	r18, Y+3	; 0x03
    24a8:	3c 81       	ldd	r19, Y+4	; 0x04
    24aa:	22 30       	cpi	r18, 0x02	; 2
    24ac:	31 05       	cpc	r19, r1
    24ae:	2c f4       	brge	.+10     	; 0x24ba <GPIO_readPort+0x3e>
    24b0:	8b 81       	ldd	r24, Y+3	; 0x03
    24b2:	9c 81       	ldd	r25, Y+4	; 0x04
    24b4:	00 97       	sbiw	r24, 0x00	; 0
    24b6:	61 f0       	breq	.+24     	; 0x24d0 <GPIO_readPort+0x54>
    24b8:	1e c0       	rjmp	.+60     	; 0x24f6 <GPIO_readPort+0x7a>
    24ba:	2b 81       	ldd	r18, Y+3	; 0x03
    24bc:	3c 81       	ldd	r19, Y+4	; 0x04
    24be:	22 30       	cpi	r18, 0x02	; 2
    24c0:	31 05       	cpc	r19, r1
    24c2:	81 f0       	breq	.+32     	; 0x24e4 <GPIO_readPort+0x68>
    24c4:	8b 81       	ldd	r24, Y+3	; 0x03
    24c6:	9c 81       	ldd	r25, Y+4	; 0x04
    24c8:	83 30       	cpi	r24, 0x03	; 3
    24ca:	91 05       	cpc	r25, r1
    24cc:	81 f0       	breq	.+32     	; 0x24ee <GPIO_readPort+0x72>
    24ce:	13 c0       	rjmp	.+38     	; 0x24f6 <GPIO_readPort+0x7a>
		{
		case PORTA_ID:
			value = PINA;
    24d0:	e9 e3       	ldi	r30, 0x39	; 57
    24d2:	f0 e0       	ldi	r31, 0x00	; 0
    24d4:	80 81       	ld	r24, Z
    24d6:	89 83       	std	Y+1, r24	; 0x01
    24d8:	0e c0       	rjmp	.+28     	; 0x24f6 <GPIO_readPort+0x7a>
			break;
		case PORTB_ID:
			value = PINB;
    24da:	e6 e3       	ldi	r30, 0x36	; 54
    24dc:	f0 e0       	ldi	r31, 0x00	; 0
    24de:	80 81       	ld	r24, Z
    24e0:	89 83       	std	Y+1, r24	; 0x01
    24e2:	09 c0       	rjmp	.+18     	; 0x24f6 <GPIO_readPort+0x7a>
			break;
		case PORTC_ID:
			value = PINC;
    24e4:	e3 e3       	ldi	r30, 0x33	; 51
    24e6:	f0 e0       	ldi	r31, 0x00	; 0
    24e8:	80 81       	ld	r24, Z
    24ea:	89 83       	std	Y+1, r24	; 0x01
    24ec:	04 c0       	rjmp	.+8      	; 0x24f6 <GPIO_readPort+0x7a>
			break;
		case PORTD_ID:
			value = PIND;
    24ee:	e0 e3       	ldi	r30, 0x30	; 48
    24f0:	f0 e0       	ldi	r31, 0x00	; 0
    24f2:	80 81       	ld	r24, Z
    24f4:	89 83       	std	Y+1, r24	; 0x01
			break;
		}
	}

	return value;
    24f6:	89 81       	ldd	r24, Y+1	; 0x01
}
    24f8:	0f 90       	pop	r0
    24fa:	0f 90       	pop	r0
    24fc:	0f 90       	pop	r0
    24fe:	0f 90       	pop	r0
    2500:	cf 91       	pop	r28
    2502:	df 91       	pop	r29
    2504:	08 95       	ret

00002506 <LCD_init>:
 * Initialize the LCD:
 * 1. Setup the LCD pins directions by use the GPIO driver.
 * 2. Setup the LCD Data Mode 4-bits or 8-bits.
 */
void LCD_init(void)
{
    2506:	df 93       	push	r29
    2508:	cf 93       	push	r28
    250a:	cd b7       	in	r28, 0x3d	; 61
    250c:	de b7       	in	r29, 0x3e	; 62
    250e:	2e 97       	sbiw	r28, 0x0e	; 14
    2510:	0f b6       	in	r0, 0x3f	; 63
    2512:	f8 94       	cli
    2514:	de bf       	out	0x3e, r29	; 62
    2516:	0f be       	out	0x3f, r0	; 63
    2518:	cd bf       	out	0x3d, r28	; 61
	/* Configure the direction for RS and E pins as output pins */
	GPIO_setupPinDirection(LCD_RS_PORT_ID,LCD_RS_PIN_ID,PIN_OUTPUT);
    251a:	80 e0       	ldi	r24, 0x00	; 0
    251c:	60 e0       	ldi	r22, 0x00	; 0
    251e:	41 e0       	ldi	r20, 0x01	; 1
    2520:	0e 94 45 0f 	call	0x1e8a	; 0x1e8a <GPIO_setupPinDirection>
	GPIO_setupPinDirection(LCD_E_PORT_ID,LCD_E_PIN_ID,PIN_OUTPUT);
    2524:	80 e0       	ldi	r24, 0x00	; 0
    2526:	61 e0       	ldi	r22, 0x01	; 1
    2528:	41 e0       	ldi	r20, 0x01	; 1
    252a:	0e 94 45 0f 	call	0x1e8a	; 0x1e8a <GPIO_setupPinDirection>
    252e:	80 e0       	ldi	r24, 0x00	; 0
    2530:	90 e0       	ldi	r25, 0x00	; 0
    2532:	a0 e4       	ldi	r26, 0x40	; 64
    2534:	b0 e4       	ldi	r27, 0x40	; 64
    2536:	8b 87       	std	Y+11, r24	; 0x0b
    2538:	9c 87       	std	Y+12, r25	; 0x0c
    253a:	ad 87       	std	Y+13, r26	; 0x0d
    253c:	be 87       	std	Y+14, r27	; 0x0e
 */
void
_delay_ms(double __ms)
{
	uint16_t __ticks;
	double __tmp = ((F_CPU) / 4e3) * __ms;
    253e:	6b 85       	ldd	r22, Y+11	; 0x0b
    2540:	7c 85       	ldd	r23, Y+12	; 0x0c
    2542:	8d 85       	ldd	r24, Y+13	; 0x0d
    2544:	9e 85       	ldd	r25, Y+14	; 0x0e
    2546:	20 e0       	ldi	r18, 0x00	; 0
    2548:	30 e0       	ldi	r19, 0x00	; 0
    254a:	4a ef       	ldi	r20, 0xFA	; 250
    254c:	54 e4       	ldi	r21, 0x44	; 68
    254e:	0e 94 c1 0b 	call	0x1782	; 0x1782 <__mulsf3>
    2552:	dc 01       	movw	r26, r24
    2554:	cb 01       	movw	r24, r22
    2556:	8f 83       	std	Y+7, r24	; 0x07
    2558:	98 87       	std	Y+8, r25	; 0x08
    255a:	a9 87       	std	Y+9, r26	; 0x09
    255c:	ba 87       	std	Y+10, r27	; 0x0a
	if (__tmp < 1.0)
    255e:	6f 81       	ldd	r22, Y+7	; 0x07
    2560:	78 85       	ldd	r23, Y+8	; 0x08
    2562:	89 85       	ldd	r24, Y+9	; 0x09
    2564:	9a 85       	ldd	r25, Y+10	; 0x0a
    2566:	20 e0       	ldi	r18, 0x00	; 0
    2568:	30 e0       	ldi	r19, 0x00	; 0
    256a:	40 e8       	ldi	r20, 0x80	; 128
    256c:	5f e3       	ldi	r21, 0x3F	; 63
    256e:	0e 94 1b 0d 	call	0x1a36	; 0x1a36 <__ltsf2>
    2572:	88 23       	and	r24, r24
    2574:	2c f4       	brge	.+10     	; 0x2580 <LCD_init+0x7a>
		__ticks = 1;
    2576:	81 e0       	ldi	r24, 0x01	; 1
    2578:	90 e0       	ldi	r25, 0x00	; 0
    257a:	9e 83       	std	Y+6, r25	; 0x06
    257c:	8d 83       	std	Y+5, r24	; 0x05
    257e:	3f c0       	rjmp	.+126    	; 0x25fe <LCD_init+0xf8>
	else if (__tmp > 65535)
    2580:	6f 81       	ldd	r22, Y+7	; 0x07
    2582:	78 85       	ldd	r23, Y+8	; 0x08
    2584:	89 85       	ldd	r24, Y+9	; 0x09
    2586:	9a 85       	ldd	r25, Y+10	; 0x0a
    2588:	20 e0       	ldi	r18, 0x00	; 0
    258a:	3f ef       	ldi	r19, 0xFF	; 255
    258c:	4f e7       	ldi	r20, 0x7F	; 127
    258e:	57 e4       	ldi	r21, 0x47	; 71
    2590:	0e 94 bb 0c 	call	0x1976	; 0x1976 <__gtsf2>
    2594:	18 16       	cp	r1, r24
    2596:	4c f5       	brge	.+82     	; 0x25ea <LCD_init+0xe4>
	{
		//	__ticks = requested delay in 1/10 ms
		__ticks = (uint16_t) (__ms * 10.0);
    2598:	6b 85       	ldd	r22, Y+11	; 0x0b
    259a:	7c 85       	ldd	r23, Y+12	; 0x0c
    259c:	8d 85       	ldd	r24, Y+13	; 0x0d
    259e:	9e 85       	ldd	r25, Y+14	; 0x0e
    25a0:	20 e0       	ldi	r18, 0x00	; 0
    25a2:	30 e0       	ldi	r19, 0x00	; 0
    25a4:	40 e2       	ldi	r20, 0x20	; 32
    25a6:	51 e4       	ldi	r21, 0x41	; 65
    25a8:	0e 94 c1 0b 	call	0x1782	; 0x1782 <__mulsf3>
    25ac:	dc 01       	movw	r26, r24
    25ae:	cb 01       	movw	r24, r22
    25b0:	bc 01       	movw	r22, r24
    25b2:	cd 01       	movw	r24, r26
    25b4:	0e 94 c3 01 	call	0x386	; 0x386 <__fixunssfsi>
    25b8:	dc 01       	movw	r26, r24
    25ba:	cb 01       	movw	r24, r22
    25bc:	9e 83       	std	Y+6, r25	; 0x06
    25be:	8d 83       	std	Y+5, r24	; 0x05
    25c0:	0f c0       	rjmp	.+30     	; 0x25e0 <LCD_init+0xda>
    25c2:	88 ec       	ldi	r24, 0xC8	; 200
    25c4:	90 e0       	ldi	r25, 0x00	; 0
    25c6:	9c 83       	std	Y+4, r25	; 0x04
    25c8:	8b 83       	std	Y+3, r24	; 0x03
    milliseconds can be achieved.
 */
void
_delay_loop_2(uint16_t __count)
{
	__asm__ volatile (
    25ca:	8b 81       	ldd	r24, Y+3	; 0x03
    25cc:	9c 81       	ldd	r25, Y+4	; 0x04
    25ce:	01 97       	sbiw	r24, 0x01	; 1
    25d0:	f1 f7       	brne	.-4      	; 0x25ce <LCD_init+0xc8>
    25d2:	9c 83       	std	Y+4, r25	; 0x04
    25d4:	8b 83       	std	Y+3, r24	; 0x03
		while(__ticks)
		{
			// wait 1/10 ms
			_delay_loop_2(((F_CPU) / 4e3) / 10);
			__ticks --;
    25d6:	8d 81       	ldd	r24, Y+5	; 0x05
    25d8:	9e 81       	ldd	r25, Y+6	; 0x06
    25da:	01 97       	sbiw	r24, 0x01	; 1
    25dc:	9e 83       	std	Y+6, r25	; 0x06
    25de:	8d 83       	std	Y+5, r24	; 0x05
		__ticks = 1;
	else if (__tmp > 65535)
	{
		//	__ticks = requested delay in 1/10 ms
		__ticks = (uint16_t) (__ms * 10.0);
		while(__ticks)
    25e0:	8d 81       	ldd	r24, Y+5	; 0x05
    25e2:	9e 81       	ldd	r25, Y+6	; 0x06
    25e4:	00 97       	sbiw	r24, 0x00	; 0
    25e6:	69 f7       	brne	.-38     	; 0x25c2 <LCD_init+0xbc>
    25e8:	14 c0       	rjmp	.+40     	; 0x2612 <LCD_init+0x10c>
			__ticks --;
		}
		return;
	}
	else
		__ticks = (uint16_t)__tmp;
    25ea:	6f 81       	ldd	r22, Y+7	; 0x07
    25ec:	78 85       	ldd	r23, Y+8	; 0x08
    25ee:	89 85       	ldd	r24, Y+9	; 0x09
    25f0:	9a 85       	ldd	r25, Y+10	; 0x0a
    25f2:	0e 94 c3 01 	call	0x386	; 0x386 <__fixunssfsi>
    25f6:	dc 01       	movw	r26, r24
    25f8:	cb 01       	movw	r24, r22
    25fa:	9e 83       	std	Y+6, r25	; 0x06
    25fc:	8d 83       	std	Y+5, r24	; 0x05
    25fe:	8d 81       	ldd	r24, Y+5	; 0x05
    2600:	9e 81       	ldd	r25, Y+6	; 0x06
    2602:	9a 83       	std	Y+2, r25	; 0x02
    2604:	89 83       	std	Y+1, r24	; 0x01
    2606:	89 81       	ldd	r24, Y+1	; 0x01
    2608:	9a 81       	ldd	r25, Y+2	; 0x02
    260a:	01 97       	sbiw	r24, 0x01	; 1
    260c:	f1 f7       	brne	.-4      	; 0x260a <LCD_init+0x104>
    260e:	9a 83       	std	Y+2, r25	; 0x02
    2610:	89 83       	std	Y+1, r24	; 0x01
	/* use 2-lines LCD + 4-bits Data Mode + 5*7 dot display Mode */
	LCD_sendCommand(LCD_TWO_LINES_FOUR_BITS_MODE);

#elif(LCD_DATA_BITS_MODE == 8)
	/* Configure the data port as output port */
	GPIO_setupPortDirection(LCD_DATA_PORT_ID,PORT_OUTPUT);
    2612:	82 e0       	ldi	r24, 0x02	; 2
    2614:	6f ef       	ldi	r22, 0xFF	; 255
    2616:	0e 94 b6 11 	call	0x236c	; 0x236c <GPIO_setupPortDirection>

	/* use 2-lines LCD + 8-bits Data Mode + 5*7 dot display Mode */
	LCD_sendCommand(LCD_TWO_LINES_EIGHT_BITS_MODE);
    261a:	88 e3       	ldi	r24, 0x38	; 56
    261c:	0e 94 1f 13 	call	0x263e	; 0x263e <LCD_sendCommand>

#endif

	LCD_sendCommand(LCD_CURSOR_OFF); /* cursor off */
    2620:	8c e0       	ldi	r24, 0x0C	; 12
    2622:	0e 94 1f 13 	call	0x263e	; 0x263e <LCD_sendCommand>
	LCD_sendCommand(LCD_CLEAR_COMMAND); /* clear LCD at the beginning */
    2626:	81 e0       	ldi	r24, 0x01	; 1
    2628:	0e 94 1f 13 	call	0x263e	; 0x263e <LCD_sendCommand>
}
    262c:	2e 96       	adiw	r28, 0x0e	; 14
    262e:	0f b6       	in	r0, 0x3f	; 63
    2630:	f8 94       	cli
    2632:	de bf       	out	0x3e, r29	; 62
    2634:	0f be       	out	0x3f, r0	; 63
    2636:	cd bf       	out	0x3d, r28	; 61
    2638:	cf 91       	pop	r28
    263a:	df 91       	pop	r29
    263c:	08 95       	ret

0000263e <LCD_sendCommand>:
/*
 * Description :
 * Send the required command to the screen
 */
void LCD_sendCommand(uint8 command)
{
    263e:	df 93       	push	r29
    2640:	cf 93       	push	r28
    2642:	cd b7       	in	r28, 0x3d	; 61
    2644:	de b7       	in	r29, 0x3e	; 62
    2646:	2f 97       	sbiw	r28, 0x0f	; 15
    2648:	0f b6       	in	r0, 0x3f	; 63
    264a:	f8 94       	cli
    264c:	de bf       	out	0x3e, r29	; 62
    264e:	0f be       	out	0x3f, r0	; 63
    2650:	cd bf       	out	0x3d, r28	; 61
    2652:	8f 87       	std	Y+15, r24	; 0x0f
	GPIO_writePin(LCD_RS_PORT_ID,LCD_RS_PIN_ID,LOGIC_LOW); /* Instruction Mode RS=0 */
    2654:	80 e0       	ldi	r24, 0x00	; 0
    2656:	60 e0       	ldi	r22, 0x00	; 0
    2658:	40 e0       	ldi	r20, 0x00	; 0
    265a:	0e 94 30 10 	call	0x2060	; 0x2060 <GPIO_writePin>
	//_delay_ms(1); /* delay for processing Tas = 50ns */
	GPIO_writePin(LCD_E_PORT_ID,LCD_E_PIN_ID,LOGIC_HIGH); /* Enable LCD E=1 */
    265e:	80 e0       	ldi	r24, 0x00	; 0
    2660:	61 e0       	ldi	r22, 0x01	; 1
    2662:	41 e0       	ldi	r20, 0x01	; 1
    2664:	0e 94 30 10 	call	0x2060	; 0x2060 <GPIO_writePin>
    2668:	80 e0       	ldi	r24, 0x00	; 0
    266a:	90 e0       	ldi	r25, 0x00	; 0
    266c:	a0 e0       	ldi	r26, 0x00	; 0
    266e:	b0 e4       	ldi	r27, 0x40	; 64
    2670:	8b 87       	std	Y+11, r24	; 0x0b
    2672:	9c 87       	std	Y+12, r25	; 0x0c
    2674:	ad 87       	std	Y+13, r26	; 0x0d
    2676:	be 87       	std	Y+14, r27	; 0x0e
 */
void
_delay_ms(double __ms)
{
	uint16_t __ticks;
	double __tmp = ((F_CPU) / 4e3) * __ms;
    2678:	6b 85       	ldd	r22, Y+11	; 0x0b
    267a:	7c 85       	ldd	r23, Y+12	; 0x0c
    267c:	8d 85       	ldd	r24, Y+13	; 0x0d
    267e:	9e 85       	ldd	r25, Y+14	; 0x0e
    2680:	20 e0       	ldi	r18, 0x00	; 0
    2682:	30 e0       	ldi	r19, 0x00	; 0
    2684:	4a ef       	ldi	r20, 0xFA	; 250
    2686:	54 e4       	ldi	r21, 0x44	; 68
    2688:	0e 94 c1 0b 	call	0x1782	; 0x1782 <__mulsf3>
    268c:	dc 01       	movw	r26, r24
    268e:	cb 01       	movw	r24, r22
    2690:	8f 83       	std	Y+7, r24	; 0x07
    2692:	98 87       	std	Y+8, r25	; 0x08
    2694:	a9 87       	std	Y+9, r26	; 0x09
    2696:	ba 87       	std	Y+10, r27	; 0x0a
	if (__tmp < 1.0)
    2698:	6f 81       	ldd	r22, Y+7	; 0x07
    269a:	78 85       	ldd	r23, Y+8	; 0x08
    269c:	89 85       	ldd	r24, Y+9	; 0x09
    269e:	9a 85       	ldd	r25, Y+10	; 0x0a
    26a0:	20 e0       	ldi	r18, 0x00	; 0
    26a2:	30 e0       	ldi	r19, 0x00	; 0
    26a4:	40 e8       	ldi	r20, 0x80	; 128
    26a6:	5f e3       	ldi	r21, 0x3F	; 63
    26a8:	0e 94 1b 0d 	call	0x1a36	; 0x1a36 <__ltsf2>
    26ac:	88 23       	and	r24, r24
    26ae:	2c f4       	brge	.+10     	; 0x26ba <LCD_sendCommand+0x7c>
		__ticks = 1;
    26b0:	81 e0       	ldi	r24, 0x01	; 1
    26b2:	90 e0       	ldi	r25, 0x00	; 0
    26b4:	9e 83       	std	Y+6, r25	; 0x06
    26b6:	8d 83       	std	Y+5, r24	; 0x05
    26b8:	3f c0       	rjmp	.+126    	; 0x2738 <LCD_sendCommand+0xfa>
	else if (__tmp > 65535)
    26ba:	6f 81       	ldd	r22, Y+7	; 0x07
    26bc:	78 85       	ldd	r23, Y+8	; 0x08
    26be:	89 85       	ldd	r24, Y+9	; 0x09
    26c0:	9a 85       	ldd	r25, Y+10	; 0x0a
    26c2:	20 e0       	ldi	r18, 0x00	; 0
    26c4:	3f ef       	ldi	r19, 0xFF	; 255
    26c6:	4f e7       	ldi	r20, 0x7F	; 127
    26c8:	57 e4       	ldi	r21, 0x47	; 71
    26ca:	0e 94 bb 0c 	call	0x1976	; 0x1976 <__gtsf2>
    26ce:	18 16       	cp	r1, r24
    26d0:	4c f5       	brge	.+82     	; 0x2724 <LCD_sendCommand+0xe6>
	{
		//	__ticks = requested delay in 1/10 ms
		__ticks = (uint16_t) (__ms * 10.0);
    26d2:	6b 85       	ldd	r22, Y+11	; 0x0b
    26d4:	7c 85       	ldd	r23, Y+12	; 0x0c
    26d6:	8d 85       	ldd	r24, Y+13	; 0x0d
    26d8:	9e 85       	ldd	r25, Y+14	; 0x0e
    26da:	20 e0       	ldi	r18, 0x00	; 0
    26dc:	30 e0       	ldi	r19, 0x00	; 0
    26de:	40 e2       	ldi	r20, 0x20	; 32
    26e0:	51 e4       	ldi	r21, 0x41	; 65
    26e2:	0e 94 c1 0b 	call	0x1782	; 0x1782 <__mulsf3>
    26e6:	dc 01       	movw	r26, r24
    26e8:	cb 01       	movw	r24, r22
    26ea:	bc 01       	movw	r22, r24
    26ec:	cd 01       	movw	r24, r26
    26ee:	0e 94 c3 01 	call	0x386	; 0x386 <__fixunssfsi>
    26f2:	dc 01       	movw	r26, r24
    26f4:	cb 01       	movw	r24, r22
    26f6:	9e 83       	std	Y+6, r25	; 0x06
    26f8:	8d 83       	std	Y+5, r24	; 0x05
    26fa:	0f c0       	rjmp	.+30     	; 0x271a <LCD_sendCommand+0xdc>
    26fc:	88 ec       	ldi	r24, 0xC8	; 200
    26fe:	90 e0       	ldi	r25, 0x00	; 0
    2700:	9c 83       	std	Y+4, r25	; 0x04
    2702:	8b 83       	std	Y+3, r24	; 0x03
    2704:	8b 81       	ldd	r24, Y+3	; 0x03
    2706:	9c 81       	ldd	r25, Y+4	; 0x04
    2708:	01 97       	sbiw	r24, 0x01	; 1
    270a:	f1 f7       	brne	.-4      	; 0x2708 <LCD_sendCommand+0xca>
    270c:	9c 83       	std	Y+4, r25	; 0x04
    270e:	8b 83       	std	Y+3, r24	; 0x03
		while(__ticks)
		{
			// wait 1/10 ms
			_delay_loop_2(((F_CPU) / 4e3) / 10);
			__ticks --;
    2710:	8d 81       	ldd	r24, Y+5	; 0x05
    2712:	9e 81       	ldd	r25, Y+6	; 0x06
    2714:	01 97       	sbiw	r24, 0x01	; 1
    2716:	9e 83       	std	Y+6, r25	; 0x06
    2718:	8d 83       	std	Y+5, r24	; 0x05
		__ticks = 1;
	else if (__tmp > 65535)
	{
		//	__ticks = requested delay in 1/10 ms
		__ticks = (uint16_t) (__ms * 10.0);
		while(__ticks)
    271a:	8d 81       	ldd	r24, Y+5	; 0x05
    271c:	9e 81       	ldd	r25, Y+6	; 0x06
    271e:	00 97       	sbiw	r24, 0x00	; 0
    2720:	69 f7       	brne	.-38     	; 0x26fc <LCD_sendCommand+0xbe>
    2722:	14 c0       	rjmp	.+40     	; 0x274c <LCD_sendCommand+0x10e>
			__ticks --;
		}
		return;
	}
	else
		__ticks = (uint16_t)__tmp;
    2724:	6f 81       	ldd	r22, Y+7	; 0x07
    2726:	78 85       	ldd	r23, Y+8	; 0x08
    2728:	89 85       	ldd	r24, Y+9	; 0x09
    272a:	9a 85       	ldd	r25, Y+10	; 0x0a
    272c:	0e 94 c3 01 	call	0x386	; 0x386 <__fixunssfsi>
    2730:	dc 01       	movw	r26, r24
    2732:	cb 01       	movw	r24, r22
    2734:	9e 83       	std	Y+6, r25	; 0x06
    2736:	8d 83       	std	Y+5, r24	; 0x05
    2738:	8d 81       	ldd	r24, Y+5	; 0x05
    273a:	9e 81       	ldd	r25, Y+6	; 0x06
    273c:	9a 83       	std	Y+2, r25	; 0x02
    273e:	89 83       	std	Y+1, r24	; 0x01
    2740:	89 81       	ldd	r24, Y+1	; 0x01
    2742:	9a 81       	ldd	r25, Y+2	; 0x02
    2744:	01 97       	sbiw	r24, 0x01	; 1
    2746:	f1 f7       	brne	.-4      	; 0x2744 <LCD_sendCommand+0x106>
    2748:	9a 83       	std	Y+2, r25	; 0x02
    274a:	89 83       	std	Y+1, r24	; 0x01
	_delay_ms(1); /* delay for processing Tdsw = 100ns */
	GPIO_writePin(LCD_E_PORT_ID,LCD_E_PIN_ID,LOGIC_LOW); /* Disable LCD E=0 */
	_delay_ms(1); /* delay for processing Th = 13ns */

#elif(LCD_DATA_BITS_MODE == 8)
	GPIO_writePort(LCD_DATA_PORT_ID,command); /* out the required command to the data bus D0 --> D7 */
    274c:	82 e0       	ldi	r24, 0x02	; 2
    274e:	6f 85       	ldd	r22, Y+15	; 0x0f
    2750:	0e 94 fa 11 	call	0x23f4	; 0x23f4 <GPIO_writePort>
	//_delay_ms(1); /* delay for processing Tdsw = 100ns */
	GPIO_writePin(LCD_E_PORT_ID,LCD_E_PIN_ID,LOGIC_LOW); /* Disable LCD E=0 */
    2754:	80 e0       	ldi	r24, 0x00	; 0
    2756:	61 e0       	ldi	r22, 0x01	; 1
    2758:	40 e0       	ldi	r20, 0x00	; 0
    275a:	0e 94 30 10 	call	0x2060	; 0x2060 <GPIO_writePin>
	//_delay_ms(1); /* delay for processing Th = 13ns */
#endif
}
    275e:	2f 96       	adiw	r28, 0x0f	; 15
    2760:	0f b6       	in	r0, 0x3f	; 63
    2762:	f8 94       	cli
    2764:	de bf       	out	0x3e, r29	; 62
    2766:	0f be       	out	0x3f, r0	; 63
    2768:	cd bf       	out	0x3d, r28	; 61
    276a:	cf 91       	pop	r28
    276c:	df 91       	pop	r29
    276e:	08 95       	ret

00002770 <LCD_displayCharacter>:
/*
 * Description :
 * Display the required character on the screen
 */
void LCD_displayCharacter(uint8 data)
{
    2770:	df 93       	push	r29
    2772:	cf 93       	push	r28
    2774:	cd b7       	in	r28, 0x3d	; 61
    2776:	de b7       	in	r29, 0x3e	; 62
    2778:	ab 97       	sbiw	r28, 0x2b	; 43
    277a:	0f b6       	in	r0, 0x3f	; 63
    277c:	f8 94       	cli
    277e:	de bf       	out	0x3e, r29	; 62
    2780:	0f be       	out	0x3f, r0	; 63
    2782:	cd bf       	out	0x3d, r28	; 61
    2784:	8b a7       	std	Y+43, r24	; 0x2b
	GPIO_writePin(LCD_RS_PORT_ID,LCD_RS_PIN_ID,LOGIC_HIGH); /* Data Mode RS=1 */
    2786:	80 e0       	ldi	r24, 0x00	; 0
    2788:	60 e0       	ldi	r22, 0x00	; 0
    278a:	41 e0       	ldi	r20, 0x01	; 1
    278c:	0e 94 30 10 	call	0x2060	; 0x2060 <GPIO_writePin>
	//_delay_ms(1); /* delay for processing Tas = 50ns */
	GPIO_writePin(LCD_E_PORT_ID,LCD_E_PIN_ID,LOGIC_HIGH); /* Enable LCD E=1 */
    2790:	80 e0       	ldi	r24, 0x00	; 0
    2792:	61 e0       	ldi	r22, 0x01	; 1
    2794:	41 e0       	ldi	r20, 0x01	; 1
    2796:	0e 94 30 10 	call	0x2060	; 0x2060 <GPIO_writePin>
    279a:	80 e0       	ldi	r24, 0x00	; 0
    279c:	90 e0       	ldi	r25, 0x00	; 0
    279e:	a0 e8       	ldi	r26, 0x80	; 128
    27a0:	bf e3       	ldi	r27, 0x3F	; 63
    27a2:	8f a3       	std	Y+39, r24	; 0x27
    27a4:	98 a7       	std	Y+40, r25	; 0x28
    27a6:	a9 a7       	std	Y+41, r26	; 0x29
    27a8:	ba a7       	std	Y+42, r27	; 0x2a
 */
void
_delay_ms(double __ms)
{
	uint16_t __ticks;
	double __tmp = ((F_CPU) / 4e3) * __ms;
    27aa:	6f a1       	ldd	r22, Y+39	; 0x27
    27ac:	78 a5       	ldd	r23, Y+40	; 0x28
    27ae:	89 a5       	ldd	r24, Y+41	; 0x29
    27b0:	9a a5       	ldd	r25, Y+42	; 0x2a
    27b2:	20 e0       	ldi	r18, 0x00	; 0
    27b4:	30 e0       	ldi	r19, 0x00	; 0
    27b6:	4a ef       	ldi	r20, 0xFA	; 250
    27b8:	54 e4       	ldi	r21, 0x44	; 68
    27ba:	0e 94 c1 0b 	call	0x1782	; 0x1782 <__mulsf3>
    27be:	dc 01       	movw	r26, r24
    27c0:	cb 01       	movw	r24, r22
    27c2:	8b a3       	std	Y+35, r24	; 0x23
    27c4:	9c a3       	std	Y+36, r25	; 0x24
    27c6:	ad a3       	std	Y+37, r26	; 0x25
    27c8:	be a3       	std	Y+38, r27	; 0x26
	if (__tmp < 1.0)
    27ca:	6b a1       	ldd	r22, Y+35	; 0x23
    27cc:	7c a1       	ldd	r23, Y+36	; 0x24
    27ce:	8d a1       	ldd	r24, Y+37	; 0x25
    27d0:	9e a1       	ldd	r25, Y+38	; 0x26
    27d2:	20 e0       	ldi	r18, 0x00	; 0
    27d4:	30 e0       	ldi	r19, 0x00	; 0
    27d6:	40 e8       	ldi	r20, 0x80	; 128
    27d8:	5f e3       	ldi	r21, 0x3F	; 63
    27da:	0e 94 1b 0d 	call	0x1a36	; 0x1a36 <__ltsf2>
    27de:	88 23       	and	r24, r24
    27e0:	2c f4       	brge	.+10     	; 0x27ec <LCD_displayCharacter+0x7c>
		__ticks = 1;
    27e2:	81 e0       	ldi	r24, 0x01	; 1
    27e4:	90 e0       	ldi	r25, 0x00	; 0
    27e6:	9a a3       	std	Y+34, r25	; 0x22
    27e8:	89 a3       	std	Y+33, r24	; 0x21
    27ea:	3f c0       	rjmp	.+126    	; 0x286a <LCD_displayCharacter+0xfa>
	else if (__tmp > 65535)
    27ec:	6b a1       	ldd	r22, Y+35	; 0x23
    27ee:	7c a1       	ldd	r23, Y+36	; 0x24
    27f0:	8d a1       	ldd	r24, Y+37	; 0x25
    27f2:	9e a1       	ldd	r25, Y+38	; 0x26
    27f4:	20 e0       	ldi	r18, 0x00	; 0
    27f6:	3f ef       	ldi	r19, 0xFF	; 255
    27f8:	4f e7       	ldi	r20, 0x7F	; 127
    27fa:	57 e4       	ldi	r21, 0x47	; 71
    27fc:	0e 94 bb 0c 	call	0x1976	; 0x1976 <__gtsf2>
    2800:	18 16       	cp	r1, r24
    2802:	4c f5       	brge	.+82     	; 0x2856 <LCD_displayCharacter+0xe6>
	{
		//	__ticks = requested delay in 1/10 ms
		__ticks = (uint16_t) (__ms * 10.0);
    2804:	6f a1       	ldd	r22, Y+39	; 0x27
    2806:	78 a5       	ldd	r23, Y+40	; 0x28
    2808:	89 a5       	ldd	r24, Y+41	; 0x29
    280a:	9a a5       	ldd	r25, Y+42	; 0x2a
    280c:	20 e0       	ldi	r18, 0x00	; 0
    280e:	30 e0       	ldi	r19, 0x00	; 0
    2810:	40 e2       	ldi	r20, 0x20	; 32
    2812:	51 e4       	ldi	r21, 0x41	; 65
    2814:	0e 94 c1 0b 	call	0x1782	; 0x1782 <__mulsf3>
    2818:	dc 01       	movw	r26, r24
    281a:	cb 01       	movw	r24, r22
    281c:	bc 01       	movw	r22, r24
    281e:	cd 01       	movw	r24, r26
    2820:	0e 94 c3 01 	call	0x386	; 0x386 <__fixunssfsi>
    2824:	dc 01       	movw	r26, r24
    2826:	cb 01       	movw	r24, r22
    2828:	9a a3       	std	Y+34, r25	; 0x22
    282a:	89 a3       	std	Y+33, r24	; 0x21
    282c:	0f c0       	rjmp	.+30     	; 0x284c <LCD_displayCharacter+0xdc>
    282e:	88 ec       	ldi	r24, 0xC8	; 200
    2830:	90 e0       	ldi	r25, 0x00	; 0
    2832:	98 a3       	std	Y+32, r25	; 0x20
    2834:	8f 8f       	std	Y+31, r24	; 0x1f
    2836:	8f 8d       	ldd	r24, Y+31	; 0x1f
    2838:	98 a1       	ldd	r25, Y+32	; 0x20
    283a:	01 97       	sbiw	r24, 0x01	; 1
    283c:	f1 f7       	brne	.-4      	; 0x283a <LCD_displayCharacter+0xca>
    283e:	98 a3       	std	Y+32, r25	; 0x20
    2840:	8f 8f       	std	Y+31, r24	; 0x1f
		while(__ticks)
		{
			// wait 1/10 ms
			_delay_loop_2(((F_CPU) / 4e3) / 10);
			__ticks --;
    2842:	89 a1       	ldd	r24, Y+33	; 0x21
    2844:	9a a1       	ldd	r25, Y+34	; 0x22
    2846:	01 97       	sbiw	r24, 0x01	; 1
    2848:	9a a3       	std	Y+34, r25	; 0x22
    284a:	89 a3       	std	Y+33, r24	; 0x21
		__ticks = 1;
	else if (__tmp > 65535)
	{
		//	__ticks = requested delay in 1/10 ms
		__ticks = (uint16_t) (__ms * 10.0);
		while(__ticks)
    284c:	89 a1       	ldd	r24, Y+33	; 0x21
    284e:	9a a1       	ldd	r25, Y+34	; 0x22
    2850:	00 97       	sbiw	r24, 0x00	; 0
    2852:	69 f7       	brne	.-38     	; 0x282e <LCD_displayCharacter+0xbe>
    2854:	14 c0       	rjmp	.+40     	; 0x287e <LCD_displayCharacter+0x10e>
			__ticks --;
		}
		return;
	}
	else
		__ticks = (uint16_t)__tmp;
    2856:	6b a1       	ldd	r22, Y+35	; 0x23
    2858:	7c a1       	ldd	r23, Y+36	; 0x24
    285a:	8d a1       	ldd	r24, Y+37	; 0x25
    285c:	9e a1       	ldd	r25, Y+38	; 0x26
    285e:	0e 94 c3 01 	call	0x386	; 0x386 <__fixunssfsi>
    2862:	dc 01       	movw	r26, r24
    2864:	cb 01       	movw	r24, r22
    2866:	9a a3       	std	Y+34, r25	; 0x22
    2868:	89 a3       	std	Y+33, r24	; 0x21
    286a:	89 a1       	ldd	r24, Y+33	; 0x21
    286c:	9a a1       	ldd	r25, Y+34	; 0x22
    286e:	9e 8f       	std	Y+30, r25	; 0x1e
    2870:	8d 8f       	std	Y+29, r24	; 0x1d
    2872:	8d 8d       	ldd	r24, Y+29	; 0x1d
    2874:	9e 8d       	ldd	r25, Y+30	; 0x1e
    2876:	01 97       	sbiw	r24, 0x01	; 1
    2878:	f1 f7       	brne	.-4      	; 0x2876 <LCD_displayCharacter+0x106>
    287a:	9e 8f       	std	Y+30, r25	; 0x1e
    287c:	8d 8f       	std	Y+29, r24	; 0x1d
	_delay_ms(1); /* delay for processing Tdsw = 100ns */
	GPIO_writePin(LCD_E_PORT_ID,LCD_E_PIN_ID,LOGIC_LOW); /* Disable LCD E=0 */
	_delay_ms(1); /* delay for processing Th = 13ns */

#elif(LCD_DATA_BITS_MODE == 8)
	GPIO_writePort(LCD_DATA_PORT_ID,data); /* out the required command to the data bus D0 --> D7 */
    287e:	82 e0       	ldi	r24, 0x02	; 2
    2880:	6b a5       	ldd	r22, Y+43	; 0x2b
    2882:	0e 94 fa 11 	call	0x23f4	; 0x23f4 <GPIO_writePort>
    2886:	80 e0       	ldi	r24, 0x00	; 0
    2888:	90 e0       	ldi	r25, 0x00	; 0
    288a:	a0 e8       	ldi	r26, 0x80	; 128
    288c:	bf e3       	ldi	r27, 0x3F	; 63
    288e:	89 8f       	std	Y+25, r24	; 0x19
    2890:	9a 8f       	std	Y+26, r25	; 0x1a
    2892:	ab 8f       	std	Y+27, r26	; 0x1b
    2894:	bc 8f       	std	Y+28, r27	; 0x1c
 */
void
_delay_ms(double __ms)
{
	uint16_t __ticks;
	double __tmp = ((F_CPU) / 4e3) * __ms;
    2896:	69 8d       	ldd	r22, Y+25	; 0x19
    2898:	7a 8d       	ldd	r23, Y+26	; 0x1a
    289a:	8b 8d       	ldd	r24, Y+27	; 0x1b
    289c:	9c 8d       	ldd	r25, Y+28	; 0x1c
    289e:	20 e0       	ldi	r18, 0x00	; 0
    28a0:	30 e0       	ldi	r19, 0x00	; 0
    28a2:	4a ef       	ldi	r20, 0xFA	; 250
    28a4:	54 e4       	ldi	r21, 0x44	; 68
    28a6:	0e 94 c1 0b 	call	0x1782	; 0x1782 <__mulsf3>
    28aa:	dc 01       	movw	r26, r24
    28ac:	cb 01       	movw	r24, r22
    28ae:	8d 8b       	std	Y+21, r24	; 0x15
    28b0:	9e 8b       	std	Y+22, r25	; 0x16
    28b2:	af 8b       	std	Y+23, r26	; 0x17
    28b4:	b8 8f       	std	Y+24, r27	; 0x18
	if (__tmp < 1.0)
    28b6:	6d 89       	ldd	r22, Y+21	; 0x15
    28b8:	7e 89       	ldd	r23, Y+22	; 0x16
    28ba:	8f 89       	ldd	r24, Y+23	; 0x17
    28bc:	98 8d       	ldd	r25, Y+24	; 0x18
    28be:	20 e0       	ldi	r18, 0x00	; 0
    28c0:	30 e0       	ldi	r19, 0x00	; 0
    28c2:	40 e8       	ldi	r20, 0x80	; 128
    28c4:	5f e3       	ldi	r21, 0x3F	; 63
    28c6:	0e 94 1b 0d 	call	0x1a36	; 0x1a36 <__ltsf2>
    28ca:	88 23       	and	r24, r24
    28cc:	2c f4       	brge	.+10     	; 0x28d8 <LCD_displayCharacter+0x168>
		__ticks = 1;
    28ce:	81 e0       	ldi	r24, 0x01	; 1
    28d0:	90 e0       	ldi	r25, 0x00	; 0
    28d2:	9c 8b       	std	Y+20, r25	; 0x14
    28d4:	8b 8b       	std	Y+19, r24	; 0x13
    28d6:	3f c0       	rjmp	.+126    	; 0x2956 <LCD_displayCharacter+0x1e6>
	else if (__tmp > 65535)
    28d8:	6d 89       	ldd	r22, Y+21	; 0x15
    28da:	7e 89       	ldd	r23, Y+22	; 0x16
    28dc:	8f 89       	ldd	r24, Y+23	; 0x17
    28de:	98 8d       	ldd	r25, Y+24	; 0x18
    28e0:	20 e0       	ldi	r18, 0x00	; 0
    28e2:	3f ef       	ldi	r19, 0xFF	; 255
    28e4:	4f e7       	ldi	r20, 0x7F	; 127
    28e6:	57 e4       	ldi	r21, 0x47	; 71
    28e8:	0e 94 bb 0c 	call	0x1976	; 0x1976 <__gtsf2>
    28ec:	18 16       	cp	r1, r24
    28ee:	4c f5       	brge	.+82     	; 0x2942 <LCD_displayCharacter+0x1d2>
	{
		//	__ticks = requested delay in 1/10 ms
		__ticks = (uint16_t) (__ms * 10.0);
    28f0:	69 8d       	ldd	r22, Y+25	; 0x19
    28f2:	7a 8d       	ldd	r23, Y+26	; 0x1a
    28f4:	8b 8d       	ldd	r24, Y+27	; 0x1b
    28f6:	9c 8d       	ldd	r25, Y+28	; 0x1c
    28f8:	20 e0       	ldi	r18, 0x00	; 0
    28fa:	30 e0       	ldi	r19, 0x00	; 0
    28fc:	40 e2       	ldi	r20, 0x20	; 32
    28fe:	51 e4       	ldi	r21, 0x41	; 65
    2900:	0e 94 c1 0b 	call	0x1782	; 0x1782 <__mulsf3>
    2904:	dc 01       	movw	r26, r24
    2906:	cb 01       	movw	r24, r22
    2908:	bc 01       	movw	r22, r24
    290a:	cd 01       	movw	r24, r26
    290c:	0e 94 c3 01 	call	0x386	; 0x386 <__fixunssfsi>
    2910:	dc 01       	movw	r26, r24
    2912:	cb 01       	movw	r24, r22
    2914:	9c 8b       	std	Y+20, r25	; 0x14
    2916:	8b 8b       	std	Y+19, r24	; 0x13
    2918:	0f c0       	rjmp	.+30     	; 0x2938 <LCD_displayCharacter+0x1c8>
    291a:	88 ec       	ldi	r24, 0xC8	; 200
    291c:	90 e0       	ldi	r25, 0x00	; 0
    291e:	9a 8b       	std	Y+18, r25	; 0x12
    2920:	89 8b       	std	Y+17, r24	; 0x11
    2922:	89 89       	ldd	r24, Y+17	; 0x11
    2924:	9a 89       	ldd	r25, Y+18	; 0x12
    2926:	01 97       	sbiw	r24, 0x01	; 1
    2928:	f1 f7       	brne	.-4      	; 0x2926 <LCD_displayCharacter+0x1b6>
    292a:	9a 8b       	std	Y+18, r25	; 0x12
    292c:	89 8b       	std	Y+17, r24	; 0x11
		while(__ticks)
		{
			// wait 1/10 ms
			_delay_loop_2(((F_CPU) / 4e3) / 10);
			__ticks --;
    292e:	8b 89       	ldd	r24, Y+19	; 0x13
    2930:	9c 89       	ldd	r25, Y+20	; 0x14
    2932:	01 97       	sbiw	r24, 0x01	; 1
    2934:	9c 8b       	std	Y+20, r25	; 0x14
    2936:	8b 8b       	std	Y+19, r24	; 0x13
		__ticks = 1;
	else if (__tmp > 65535)
	{
		//	__ticks = requested delay in 1/10 ms
		__ticks = (uint16_t) (__ms * 10.0);
		while(__ticks)
    2938:	8b 89       	ldd	r24, Y+19	; 0x13
    293a:	9c 89       	ldd	r25, Y+20	; 0x14
    293c:	00 97       	sbiw	r24, 0x00	; 0
    293e:	69 f7       	brne	.-38     	; 0x291a <LCD_displayCharacter+0x1aa>
    2940:	14 c0       	rjmp	.+40     	; 0x296a <LCD_displayCharacter+0x1fa>
			__ticks --;
		}
		return;
	}
	else
		__ticks = (uint16_t)__tmp;
    2942:	6d 89       	ldd	r22, Y+21	; 0x15
    2944:	7e 89       	ldd	r23, Y+22	; 0x16
    2946:	8f 89       	ldd	r24, Y+23	; 0x17
    2948:	98 8d       	ldd	r25, Y+24	; 0x18
    294a:	0e 94 c3 01 	call	0x386	; 0x386 <__fixunssfsi>
    294e:	dc 01       	movw	r26, r24
    2950:	cb 01       	movw	r24, r22
    2952:	9c 8b       	std	Y+20, r25	; 0x14
    2954:	8b 8b       	std	Y+19, r24	; 0x13
    2956:	8b 89       	ldd	r24, Y+19	; 0x13
    2958:	9c 89       	ldd	r25, Y+20	; 0x14
    295a:	98 8b       	std	Y+16, r25	; 0x10
    295c:	8f 87       	std	Y+15, r24	; 0x0f
    295e:	8f 85       	ldd	r24, Y+15	; 0x0f
    2960:	98 89       	ldd	r25, Y+16	; 0x10
    2962:	01 97       	sbiw	r24, 0x01	; 1
    2964:	f1 f7       	brne	.-4      	; 0x2962 <LCD_displayCharacter+0x1f2>
    2966:	98 8b       	std	Y+16, r25	; 0x10
    2968:	8f 87       	std	Y+15, r24	; 0x0f
	_delay_ms(1); /* delay for processing Tdsw = 100ns */
	GPIO_writePin(LCD_E_PORT_ID,LCD_E_PIN_ID,LOGIC_LOW); /* Disable LCD E=0 */
    296a:	80 e0       	ldi	r24, 0x00	; 0
    296c:	61 e0       	ldi	r22, 0x01	; 1
    296e:	40 e0       	ldi	r20, 0x00	; 0
    2970:	0e 94 30 10 	call	0x2060	; 0x2060 <GPIO_writePin>
    2974:	80 e0       	ldi	r24, 0x00	; 0
    2976:	90 e0       	ldi	r25, 0x00	; 0
    2978:	a0 e8       	ldi	r26, 0x80	; 128
    297a:	bf e3       	ldi	r27, 0x3F	; 63
    297c:	8b 87       	std	Y+11, r24	; 0x0b
    297e:	9c 87       	std	Y+12, r25	; 0x0c
    2980:	ad 87       	std	Y+13, r26	; 0x0d
    2982:	be 87       	std	Y+14, r27	; 0x0e
 */
void
_delay_ms(double __ms)
{
	uint16_t __ticks;
	double __tmp = ((F_CPU) / 4e3) * __ms;
    2984:	6b 85       	ldd	r22, Y+11	; 0x0b
    2986:	7c 85       	ldd	r23, Y+12	; 0x0c
    2988:	8d 85       	ldd	r24, Y+13	; 0x0d
    298a:	9e 85       	ldd	r25, Y+14	; 0x0e
    298c:	20 e0       	ldi	r18, 0x00	; 0
    298e:	30 e0       	ldi	r19, 0x00	; 0
    2990:	4a ef       	ldi	r20, 0xFA	; 250
    2992:	54 e4       	ldi	r21, 0x44	; 68
    2994:	0e 94 c1 0b 	call	0x1782	; 0x1782 <__mulsf3>
    2998:	dc 01       	movw	r26, r24
    299a:	cb 01       	movw	r24, r22
    299c:	8f 83       	std	Y+7, r24	; 0x07
    299e:	98 87       	std	Y+8, r25	; 0x08
    29a0:	a9 87       	std	Y+9, r26	; 0x09
    29a2:	ba 87       	std	Y+10, r27	; 0x0a
	if (__tmp < 1.0)
    29a4:	6f 81       	ldd	r22, Y+7	; 0x07
    29a6:	78 85       	ldd	r23, Y+8	; 0x08
    29a8:	89 85       	ldd	r24, Y+9	; 0x09
    29aa:	9a 85       	ldd	r25, Y+10	; 0x0a
    29ac:	20 e0       	ldi	r18, 0x00	; 0
    29ae:	30 e0       	ldi	r19, 0x00	; 0
    29b0:	40 e8       	ldi	r20, 0x80	; 128
    29b2:	5f e3       	ldi	r21, 0x3F	; 63
    29b4:	0e 94 1b 0d 	call	0x1a36	; 0x1a36 <__ltsf2>
    29b8:	88 23       	and	r24, r24
    29ba:	2c f4       	brge	.+10     	; 0x29c6 <LCD_displayCharacter+0x256>
		__ticks = 1;
    29bc:	81 e0       	ldi	r24, 0x01	; 1
    29be:	90 e0       	ldi	r25, 0x00	; 0
    29c0:	9e 83       	std	Y+6, r25	; 0x06
    29c2:	8d 83       	std	Y+5, r24	; 0x05
    29c4:	3f c0       	rjmp	.+126    	; 0x2a44 <LCD_displayCharacter+0x2d4>
	else if (__tmp > 65535)
    29c6:	6f 81       	ldd	r22, Y+7	; 0x07
    29c8:	78 85       	ldd	r23, Y+8	; 0x08
    29ca:	89 85       	ldd	r24, Y+9	; 0x09
    29cc:	9a 85       	ldd	r25, Y+10	; 0x0a
    29ce:	20 e0       	ldi	r18, 0x00	; 0
    29d0:	3f ef       	ldi	r19, 0xFF	; 255
    29d2:	4f e7       	ldi	r20, 0x7F	; 127
    29d4:	57 e4       	ldi	r21, 0x47	; 71
    29d6:	0e 94 bb 0c 	call	0x1976	; 0x1976 <__gtsf2>
    29da:	18 16       	cp	r1, r24
    29dc:	4c f5       	brge	.+82     	; 0x2a30 <LCD_displayCharacter+0x2c0>
	{
		//	__ticks = requested delay in 1/10 ms
		__ticks = (uint16_t) (__ms * 10.0);
    29de:	6b 85       	ldd	r22, Y+11	; 0x0b
    29e0:	7c 85       	ldd	r23, Y+12	; 0x0c
    29e2:	8d 85       	ldd	r24, Y+13	; 0x0d
    29e4:	9e 85       	ldd	r25, Y+14	; 0x0e
    29e6:	20 e0       	ldi	r18, 0x00	; 0
    29e8:	30 e0       	ldi	r19, 0x00	; 0
    29ea:	40 e2       	ldi	r20, 0x20	; 32
    29ec:	51 e4       	ldi	r21, 0x41	; 65
    29ee:	0e 94 c1 0b 	call	0x1782	; 0x1782 <__mulsf3>
    29f2:	dc 01       	movw	r26, r24
    29f4:	cb 01       	movw	r24, r22
    29f6:	bc 01       	movw	r22, r24
    29f8:	cd 01       	movw	r24, r26
    29fa:	0e 94 c3 01 	call	0x386	; 0x386 <__fixunssfsi>
    29fe:	dc 01       	movw	r26, r24
    2a00:	cb 01       	movw	r24, r22
    2a02:	9e 83       	std	Y+6, r25	; 0x06
    2a04:	8d 83       	std	Y+5, r24	; 0x05
    2a06:	0f c0       	rjmp	.+30     	; 0x2a26 <LCD_displayCharacter+0x2b6>
    2a08:	88 ec       	ldi	r24, 0xC8	; 200
    2a0a:	90 e0       	ldi	r25, 0x00	; 0
    2a0c:	9c 83       	std	Y+4, r25	; 0x04
    2a0e:	8b 83       	std	Y+3, r24	; 0x03
    2a10:	8b 81       	ldd	r24, Y+3	; 0x03
    2a12:	9c 81       	ldd	r25, Y+4	; 0x04
    2a14:	01 97       	sbiw	r24, 0x01	; 1
    2a16:	f1 f7       	brne	.-4      	; 0x2a14 <LCD_displayCharacter+0x2a4>
    2a18:	9c 83       	std	Y+4, r25	; 0x04
    2a1a:	8b 83       	std	Y+3, r24	; 0x03
		while(__ticks)
		{
			// wait 1/10 ms
			_delay_loop_2(((F_CPU) / 4e3) / 10);
			__ticks --;
    2a1c:	8d 81       	ldd	r24, Y+5	; 0x05
    2a1e:	9e 81       	ldd	r25, Y+6	; 0x06
    2a20:	01 97       	sbiw	r24, 0x01	; 1
    2a22:	9e 83       	std	Y+6, r25	; 0x06
    2a24:	8d 83       	std	Y+5, r24	; 0x05
		__ticks = 1;
	else if (__tmp > 65535)
	{
		//	__ticks = requested delay in 1/10 ms
		__ticks = (uint16_t) (__ms * 10.0);
		while(__ticks)
    2a26:	8d 81       	ldd	r24, Y+5	; 0x05
    2a28:	9e 81       	ldd	r25, Y+6	; 0x06
    2a2a:	00 97       	sbiw	r24, 0x00	; 0
    2a2c:	69 f7       	brne	.-38     	; 0x2a08 <LCD_displayCharacter+0x298>
    2a2e:	14 c0       	rjmp	.+40     	; 0x2a58 <LCD_displayCharacter+0x2e8>
			__ticks --;
		}
		return;
	}
	else
		__ticks = (uint16_t)__tmp;
    2a30:	6f 81       	ldd	r22, Y+7	; 0x07
    2a32:	78 85       	ldd	r23, Y+8	; 0x08
    2a34:	89 85       	ldd	r24, Y+9	; 0x09
    2a36:	9a 85       	ldd	r25, Y+10	; 0x0a
    2a38:	0e 94 c3 01 	call	0x386	; 0x386 <__fixunssfsi>
    2a3c:	dc 01       	movw	r26, r24
    2a3e:	cb 01       	movw	r24, r22
    2a40:	9e 83       	std	Y+6, r25	; 0x06
    2a42:	8d 83       	std	Y+5, r24	; 0x05
    2a44:	8d 81       	ldd	r24, Y+5	; 0x05
    2a46:	9e 81       	ldd	r25, Y+6	; 0x06
    2a48:	9a 83       	std	Y+2, r25	; 0x02
    2a4a:	89 83       	std	Y+1, r24	; 0x01
    2a4c:	89 81       	ldd	r24, Y+1	; 0x01
    2a4e:	9a 81       	ldd	r25, Y+2	; 0x02
    2a50:	01 97       	sbiw	r24, 0x01	; 1
    2a52:	f1 f7       	brne	.-4      	; 0x2a50 <LCD_displayCharacter+0x2e0>
    2a54:	9a 83       	std	Y+2, r25	; 0x02
    2a56:	89 83       	std	Y+1, r24	; 0x01
	_delay_ms(1); /* delay for processing Th = 13ns */
#endif
}
    2a58:	ab 96       	adiw	r28, 0x2b	; 43
    2a5a:	0f b6       	in	r0, 0x3f	; 63
    2a5c:	f8 94       	cli
    2a5e:	de bf       	out	0x3e, r29	; 62
    2a60:	0f be       	out	0x3f, r0	; 63
    2a62:	cd bf       	out	0x3d, r28	; 61
    2a64:	cf 91       	pop	r28
    2a66:	df 91       	pop	r29
    2a68:	08 95       	ret

00002a6a <LCD_displayString>:
/*
 * Description :
 * Display the required string on the screen
 */
void LCD_displayString(const char *Str)
{
    2a6a:	df 93       	push	r29
    2a6c:	cf 93       	push	r28
    2a6e:	00 d0       	rcall	.+0      	; 0x2a70 <LCD_displayString+0x6>
    2a70:	0f 92       	push	r0
    2a72:	cd b7       	in	r28, 0x3d	; 61
    2a74:	de b7       	in	r29, 0x3e	; 62
    2a76:	9b 83       	std	Y+3, r25	; 0x03
    2a78:	8a 83       	std	Y+2, r24	; 0x02
	uint8 i = 0;
    2a7a:	19 82       	std	Y+1, r1	; 0x01
    2a7c:	0e c0       	rjmp	.+28     	; 0x2a9a <LCD_displayString+0x30>
	while(Str[i] != '\0')
	{
		LCD_displayCharacter(Str[i]);
    2a7e:	89 81       	ldd	r24, Y+1	; 0x01
    2a80:	28 2f       	mov	r18, r24
    2a82:	30 e0       	ldi	r19, 0x00	; 0
    2a84:	8a 81       	ldd	r24, Y+2	; 0x02
    2a86:	9b 81       	ldd	r25, Y+3	; 0x03
    2a88:	fc 01       	movw	r30, r24
    2a8a:	e2 0f       	add	r30, r18
    2a8c:	f3 1f       	adc	r31, r19
    2a8e:	80 81       	ld	r24, Z
    2a90:	0e 94 b8 13 	call	0x2770	; 0x2770 <LCD_displayCharacter>
		i++;
    2a94:	89 81       	ldd	r24, Y+1	; 0x01
    2a96:	8f 5f       	subi	r24, 0xFF	; 255
    2a98:	89 83       	std	Y+1, r24	; 0x01
 * Display the required string on the screen
 */
void LCD_displayString(const char *Str)
{
	uint8 i = 0;
	while(Str[i] != '\0')
    2a9a:	89 81       	ldd	r24, Y+1	; 0x01
    2a9c:	28 2f       	mov	r18, r24
    2a9e:	30 e0       	ldi	r19, 0x00	; 0
    2aa0:	8a 81       	ldd	r24, Y+2	; 0x02
    2aa2:	9b 81       	ldd	r25, Y+3	; 0x03
    2aa4:	fc 01       	movw	r30, r24
    2aa6:	e2 0f       	add	r30, r18
    2aa8:	f3 1f       	adc	r31, r19
    2aaa:	80 81       	ld	r24, Z
    2aac:	88 23       	and	r24, r24
    2aae:	39 f7       	brne	.-50     	; 0x2a7e <LCD_displayString+0x14>
	{
		LCD_displayCharacter(*Str);
		Str++;
	}		
	*********************************************************/
}
    2ab0:	0f 90       	pop	r0
    2ab2:	0f 90       	pop	r0
    2ab4:	0f 90       	pop	r0
    2ab6:	cf 91       	pop	r28
    2ab8:	df 91       	pop	r29
    2aba:	08 95       	ret

00002abc <LCD_moveCursor>:
/*
 * Description :
 * Move the cursor to a specified row and column index on the screen
 */
void LCD_moveCursor(uint8 row,uint8 col)
{
    2abc:	df 93       	push	r29
    2abe:	cf 93       	push	r28
    2ac0:	00 d0       	rcall	.+0      	; 0x2ac2 <LCD_moveCursor+0x6>
    2ac2:	00 d0       	rcall	.+0      	; 0x2ac4 <LCD_moveCursor+0x8>
    2ac4:	0f 92       	push	r0
    2ac6:	cd b7       	in	r28, 0x3d	; 61
    2ac8:	de b7       	in	r29, 0x3e	; 62
    2aca:	8a 83       	std	Y+2, r24	; 0x02
    2acc:	6b 83       	std	Y+3, r22	; 0x03
	uint8 lcd_memory_address;
	
	/* Calculate the required address in the LCD DDRAM */
	switch(row)
    2ace:	8a 81       	ldd	r24, Y+2	; 0x02
    2ad0:	28 2f       	mov	r18, r24
    2ad2:	30 e0       	ldi	r19, 0x00	; 0
    2ad4:	3d 83       	std	Y+5, r19	; 0x05
    2ad6:	2c 83       	std	Y+4, r18	; 0x04
    2ad8:	8c 81       	ldd	r24, Y+4	; 0x04
    2ada:	9d 81       	ldd	r25, Y+5	; 0x05
    2adc:	81 30       	cpi	r24, 0x01	; 1
    2ade:	91 05       	cpc	r25, r1
    2ae0:	c1 f0       	breq	.+48     	; 0x2b12 <LCD_moveCursor+0x56>
    2ae2:	2c 81       	ldd	r18, Y+4	; 0x04
    2ae4:	3d 81       	ldd	r19, Y+5	; 0x05
    2ae6:	22 30       	cpi	r18, 0x02	; 2
    2ae8:	31 05       	cpc	r19, r1
    2aea:	2c f4       	brge	.+10     	; 0x2af6 <LCD_moveCursor+0x3a>
    2aec:	8c 81       	ldd	r24, Y+4	; 0x04
    2aee:	9d 81       	ldd	r25, Y+5	; 0x05
    2af0:	00 97       	sbiw	r24, 0x00	; 0
    2af2:	61 f0       	breq	.+24     	; 0x2b0c <LCD_moveCursor+0x50>
    2af4:	19 c0       	rjmp	.+50     	; 0x2b28 <LCD_moveCursor+0x6c>
    2af6:	2c 81       	ldd	r18, Y+4	; 0x04
    2af8:	3d 81       	ldd	r19, Y+5	; 0x05
    2afa:	22 30       	cpi	r18, 0x02	; 2
    2afc:	31 05       	cpc	r19, r1
    2afe:	69 f0       	breq	.+26     	; 0x2b1a <LCD_moveCursor+0x5e>
    2b00:	8c 81       	ldd	r24, Y+4	; 0x04
    2b02:	9d 81       	ldd	r25, Y+5	; 0x05
    2b04:	83 30       	cpi	r24, 0x03	; 3
    2b06:	91 05       	cpc	r25, r1
    2b08:	61 f0       	breq	.+24     	; 0x2b22 <LCD_moveCursor+0x66>
    2b0a:	0e c0       	rjmp	.+28     	; 0x2b28 <LCD_moveCursor+0x6c>
	{
		case 0:
			lcd_memory_address=col;
    2b0c:	8b 81       	ldd	r24, Y+3	; 0x03
    2b0e:	89 83       	std	Y+1, r24	; 0x01
    2b10:	0b c0       	rjmp	.+22     	; 0x2b28 <LCD_moveCursor+0x6c>
				break;
		case 1:
			lcd_memory_address=col+0x40;
    2b12:	8b 81       	ldd	r24, Y+3	; 0x03
    2b14:	80 5c       	subi	r24, 0xC0	; 192
    2b16:	89 83       	std	Y+1, r24	; 0x01
    2b18:	07 c0       	rjmp	.+14     	; 0x2b28 <LCD_moveCursor+0x6c>
				break;
		case 2:
			lcd_memory_address=col+0x10;
    2b1a:	8b 81       	ldd	r24, Y+3	; 0x03
    2b1c:	80 5f       	subi	r24, 0xF0	; 240
    2b1e:	89 83       	std	Y+1, r24	; 0x01
    2b20:	03 c0       	rjmp	.+6      	; 0x2b28 <LCD_moveCursor+0x6c>
				break;
		case 3:
			lcd_memory_address=col+0x50;
    2b22:	8b 81       	ldd	r24, Y+3	; 0x03
    2b24:	80 5b       	subi	r24, 0xB0	; 176
    2b26:	89 83       	std	Y+1, r24	; 0x01
				break;
	}					
	/* Move the LCD cursor to this specific address */
	LCD_sendCommand(lcd_memory_address | LCD_SET_CURSOR_LOCATION);
    2b28:	89 81       	ldd	r24, Y+1	; 0x01
    2b2a:	80 68       	ori	r24, 0x80	; 128
    2b2c:	0e 94 1f 13 	call	0x263e	; 0x263e <LCD_sendCommand>
}
    2b30:	0f 90       	pop	r0
    2b32:	0f 90       	pop	r0
    2b34:	0f 90       	pop	r0
    2b36:	0f 90       	pop	r0
    2b38:	0f 90       	pop	r0
    2b3a:	cf 91       	pop	r28
    2b3c:	df 91       	pop	r29
    2b3e:	08 95       	ret

00002b40 <LCD_displayStringRowColumn>:
/*
 * Description :
 * Display the required string in a specified row and column index on the screen
 */
void LCD_displayStringRowColumn(uint8 row,uint8 col,const char *Str)
{
    2b40:	df 93       	push	r29
    2b42:	cf 93       	push	r28
    2b44:	00 d0       	rcall	.+0      	; 0x2b46 <LCD_displayStringRowColumn+0x6>
    2b46:	00 d0       	rcall	.+0      	; 0x2b48 <LCD_displayStringRowColumn+0x8>
    2b48:	cd b7       	in	r28, 0x3d	; 61
    2b4a:	de b7       	in	r29, 0x3e	; 62
    2b4c:	89 83       	std	Y+1, r24	; 0x01
    2b4e:	6a 83       	std	Y+2, r22	; 0x02
    2b50:	5c 83       	std	Y+4, r21	; 0x04
    2b52:	4b 83       	std	Y+3, r20	; 0x03
	LCD_moveCursor(row,col); /* go to to the required LCD position */
    2b54:	89 81       	ldd	r24, Y+1	; 0x01
    2b56:	6a 81       	ldd	r22, Y+2	; 0x02
    2b58:	0e 94 5e 15 	call	0x2abc	; 0x2abc <LCD_moveCursor>
	LCD_displayString(Str); /* display the string */
    2b5c:	8b 81       	ldd	r24, Y+3	; 0x03
    2b5e:	9c 81       	ldd	r25, Y+4	; 0x04
    2b60:	0e 94 35 15 	call	0x2a6a	; 0x2a6a <LCD_displayString>
}
    2b64:	0f 90       	pop	r0
    2b66:	0f 90       	pop	r0
    2b68:	0f 90       	pop	r0
    2b6a:	0f 90       	pop	r0
    2b6c:	cf 91       	pop	r28
    2b6e:	df 91       	pop	r29
    2b70:	08 95       	ret

00002b72 <LCD_intgerToString>:
/*
 * Description :
 * Display the required decimal value on the screen
 */
void LCD_intgerToString(sint64 data)
{
    2b72:	df 93       	push	r29
    2b74:	cf 93       	push	r28
    2b76:	cd b7       	in	r28, 0x3d	; 61
    2b78:	de b7       	in	r29, 0x3e	; 62
    2b7a:	68 97       	sbiw	r28, 0x18	; 24
    2b7c:	0f b6       	in	r0, 0x3f	; 63
    2b7e:	f8 94       	cli
    2b80:	de bf       	out	0x3e, r29	; 62
    2b82:	0f be       	out	0x3f, r0	; 63
    2b84:	cd bf       	out	0x3d, r28	; 61
    2b86:	29 8b       	std	Y+17, r18	; 0x11
    2b88:	3a 8b       	std	Y+18, r19	; 0x12
    2b8a:	4b 8b       	std	Y+19, r20	; 0x13
    2b8c:	5c 8b       	std	Y+20, r21	; 0x14
    2b8e:	6d 8b       	std	Y+21, r22	; 0x15
    2b90:	7e 8b       	std	Y+22, r23	; 0x16
    2b92:	8f 8b       	std	Y+23, r24	; 0x17
    2b94:	98 8f       	std	Y+24, r25	; 0x18
   char buff[16]; /* String to hold the ascii result */

   sprintf(buff,"%ld",data);//itoa(data,buff,10); /* Use itoa C function to convert the data to its corresponding ASCII value, 10 for decimal */
    2b96:	8d b7       	in	r24, 0x3d	; 61
    2b98:	9e b7       	in	r25, 0x3e	; 62
    2b9a:	0c 97       	sbiw	r24, 0x0c	; 12
    2b9c:	0f b6       	in	r0, 0x3f	; 63
    2b9e:	f8 94       	cli
    2ba0:	9e bf       	out	0x3e, r25	; 62
    2ba2:	0f be       	out	0x3f, r0	; 63
    2ba4:	8d bf       	out	0x3d, r24	; 61
    2ba6:	ed b7       	in	r30, 0x3d	; 61
    2ba8:	fe b7       	in	r31, 0x3e	; 62
    2baa:	31 96       	adiw	r30, 0x01	; 1
    2bac:	ce 01       	movw	r24, r28
    2bae:	01 96       	adiw	r24, 0x01	; 1
    2bb0:	91 83       	std	Z+1, r25	; 0x01
    2bb2:	80 83       	st	Z, r24
    2bb4:	80 e6       	ldi	r24, 0x60	; 96
    2bb6:	90 e0       	ldi	r25, 0x00	; 0
    2bb8:	93 83       	std	Z+3, r25	; 0x03
    2bba:	82 83       	std	Z+2, r24	; 0x02
    2bbc:	89 89       	ldd	r24, Y+17	; 0x11
    2bbe:	84 83       	std	Z+4, r24	; 0x04
    2bc0:	8a 89       	ldd	r24, Y+18	; 0x12
    2bc2:	85 83       	std	Z+5, r24	; 0x05
    2bc4:	8b 89       	ldd	r24, Y+19	; 0x13
    2bc6:	86 83       	std	Z+6, r24	; 0x06
    2bc8:	8c 89       	ldd	r24, Y+20	; 0x14
    2bca:	87 83       	std	Z+7, r24	; 0x07
    2bcc:	8d 89       	ldd	r24, Y+21	; 0x15
    2bce:	80 87       	std	Z+8, r24	; 0x08
    2bd0:	8e 89       	ldd	r24, Y+22	; 0x16
    2bd2:	81 87       	std	Z+9, r24	; 0x09
    2bd4:	8f 89       	ldd	r24, Y+23	; 0x17
    2bd6:	82 87       	std	Z+10, r24	; 0x0a
    2bd8:	88 8d       	ldd	r24, Y+24	; 0x18
    2bda:	83 87       	std	Z+11, r24	; 0x0b
    2bdc:	0e 94 58 2a 	call	0x54b0	; 0x54b0 <sprintf>
    2be0:	8d b7       	in	r24, 0x3d	; 61
    2be2:	9e b7       	in	r25, 0x3e	; 62
    2be4:	0c 96       	adiw	r24, 0x0c	; 12
    2be6:	0f b6       	in	r0, 0x3f	; 63
    2be8:	f8 94       	cli
    2bea:	9e bf       	out	0x3e, r25	; 62
    2bec:	0f be       	out	0x3f, r0	; 63
    2bee:	8d bf       	out	0x3d, r24	; 61
   LCD_displayString(buff); /* Display the string */
    2bf0:	ce 01       	movw	r24, r28
    2bf2:	01 96       	adiw	r24, 0x01	; 1
    2bf4:	0e 94 35 15 	call	0x2a6a	; 0x2a6a <LCD_displayString>
}
    2bf8:	68 96       	adiw	r28, 0x18	; 24
    2bfa:	0f b6       	in	r0, 0x3f	; 63
    2bfc:	f8 94       	cli
    2bfe:	de bf       	out	0x3e, r29	; 62
    2c00:	0f be       	out	0x3f, r0	; 63
    2c02:	cd bf       	out	0x3d, r28	; 61
    2c04:	cf 91       	pop	r28
    2c06:	df 91       	pop	r29
    2c08:	08 95       	ret

00002c0a <LCD_clearScreen>:
/*
 * Description :
 * Send the clear screen command
 */
void LCD_clearScreen(void)
{
    2c0a:	df 93       	push	r29
    2c0c:	cf 93       	push	r28
    2c0e:	cd b7       	in	r28, 0x3d	; 61
    2c10:	de b7       	in	r29, 0x3e	; 62
	LCD_sendCommand(LCD_CLEAR_COMMAND); /* Send clear display command */
    2c12:	81 e0       	ldi	r24, 0x01	; 1
    2c14:	0e 94 1f 13 	call	0x263e	; 0x263e <LCD_sendCommand>
}
    2c18:	cf 91       	pop	r28
    2c1a:	df 91       	pop	r29
    2c1c:	08 95       	ret

00002c1e <KEYPAD_voidInit>:
#include "../../MCAL/GPIO/gpio.h"

const uint8 KEYPAD [4][4]= KPD_VALUES;

void KEYPAD_voidInit(void)
{
    2c1e:	df 93       	push	r29
    2c20:	cf 93       	push	r28
    2c22:	cd b7       	in	r28, 0x3d	; 61
    2c24:	de b7       	in	r29, 0x3e	; 62
	/*Set the Raw port as input with PORT=1 to activate the internal pull up */
	GPIO_setupPortDirection(KEYPAD_ROW_PORT,ROW_PORT_INPUT);
    2c26:	81 e0       	ldi	r24, 0x01	; 1
    2c28:	60 e0       	ldi	r22, 0x00	; 0
    2c2a:	0e 94 b6 11 	call	0x236c	; 0x236c <GPIO_setupPortDirection>
	GPIO_writePort(KEYPAD_ROW_PORT,0x0F);
    2c2e:	81 e0       	ldi	r24, 0x01	; 1
    2c30:	6f e0       	ldi	r22, 0x0F	; 15
    2c32:	0e 94 fa 11 	call	0x23f4	; 0x23f4 <GPIO_writePort>
	/*Set the COL port as output with Initial value =LOGIC HIGH*/
	GPIO_setupPortDirection(KEYPAD_COL_PORT,COL_PORT_OUTPUT);
    2c36:	83 e0       	ldi	r24, 0x03	; 3
    2c38:	6f e0       	ldi	r22, 0x0F	; 15
    2c3a:	0e 94 b6 11 	call	0x236c	; 0x236c <GPIO_setupPortDirection>
	GPIO_writePort(KEYPAD_COL_PORT,0x0F);
    2c3e:	83 e0       	ldi	r24, 0x03	; 3
    2c40:	6f e0       	ldi	r22, 0x0F	; 15
    2c42:	0e 94 fa 11 	call	0x23f4	; 0x23f4 <GPIO_writePort>
}
    2c46:	cf 91       	pop	r28
    2c48:	df 91       	pop	r29
    2c4a:	08 95       	ret

00002c4c <KEYPAD_READ>:

uint8 KEYPAD_READ(void) {
    2c4c:	df 93       	push	r29
    2c4e:	cf 93       	push	r28
    2c50:	cd b7       	in	r28, 0x3d	; 61
    2c52:	de b7       	in	r29, 0x3e	; 62
    2c54:	62 97       	sbiw	r28, 0x12	; 18
    2c56:	0f b6       	in	r0, 0x3f	; 63
    2c58:	f8 94       	cli
    2c5a:	de bf       	out	0x3e, r29	; 62
    2c5c:	0f be       	out	0x3f, r0	; 63
    2c5e:	cd bf       	out	0x3d, r28	; 61
		uint8 row = 0;
    2c60:	19 8a       	std	Y+17, r1	; 0x11
		uint8 col = 0;
    2c62:	18 8a       	std	Y+16, r1	; 0x10
    GPIO_writePort(KEYPAD_COL_PORT,0x0F);
    2c64:	83 e0       	ldi	r24, 0x03	; 3
    2c66:	6f e0       	ldi	r22, 0x0F	; 15
    2c68:	0e 94 fa 11 	call	0x23f4	; 0x23f4 <GPIO_writePort>
    GPIO_writePort(KEYPAD_ROW_PORT,0x0F);
    2c6c:	81 e0       	ldi	r24, 0x01	; 1
    2c6e:	6f e0       	ldi	r22, 0x0F	; 15
    2c70:	0e 94 fa 11 	call	0x23f4	; 0x23f4 <GPIO_writePort>
    for (col = 0; col < 4; col++) {
    2c74:	18 8a       	std	Y+16, r1	; 0x10
    2c76:	ba c0       	rjmp	.+372    	; 0x2dec <KEYPAD_READ+0x1a0>
        // Drive the current column low
        GPIO_writePin(KEYPAD_COL_PORT, col, 0);
    2c78:	83 e0       	ldi	r24, 0x03	; 3
    2c7a:	68 89       	ldd	r22, Y+16	; 0x10
    2c7c:	40 e0       	ldi	r20, 0x00	; 0
    2c7e:	0e 94 30 10 	call	0x2060	; 0x2060 <GPIO_writePin>
        for (row = 0; row < 4; row++) {
    2c82:	19 8a       	std	Y+17, r1	; 0x11
    2c84:	a7 c0       	rjmp	.+334    	; 0x2dd4 <KEYPAD_READ+0x188>
            uint8 val;
            val = GPIO_readPin(KEYPAD_ROW_PORT, row);
    2c86:	81 e0       	ldi	r24, 0x01	; 1
    2c88:	69 89       	ldd	r22, Y+17	; 0x11
    2c8a:	0e 94 1b 11 	call	0x2236	; 0x2236 <GPIO_readPin>
    2c8e:	8f 87       	std	Y+15, r24	; 0x0f

            if (val == 0) {
    2c90:	8f 85       	ldd	r24, Y+15	; 0x0f
    2c92:	88 23       	and	r24, r24
    2c94:	09 f0       	breq	.+2      	; 0x2c98 <KEYPAD_READ+0x4c>
    2c96:	9b c0       	rjmp	.+310    	; 0x2dce <KEYPAD_READ+0x182>
    2c98:	80 e0       	ldi	r24, 0x00	; 0
    2c9a:	90 e0       	ldi	r25, 0x00	; 0
    2c9c:	a0 e2       	ldi	r26, 0x20	; 32
    2c9e:	b1 e4       	ldi	r27, 0x41	; 65
    2ca0:	8b 87       	std	Y+11, r24	; 0x0b
    2ca2:	9c 87       	std	Y+12, r25	; 0x0c
    2ca4:	ad 87       	std	Y+13, r26	; 0x0d
    2ca6:	be 87       	std	Y+14, r27	; 0x0e
 */
void
_delay_ms(double __ms)
{
	uint16_t __ticks;
	double __tmp = ((F_CPU) / 4e3) * __ms;
    2ca8:	6b 85       	ldd	r22, Y+11	; 0x0b
    2caa:	7c 85       	ldd	r23, Y+12	; 0x0c
    2cac:	8d 85       	ldd	r24, Y+13	; 0x0d
    2cae:	9e 85       	ldd	r25, Y+14	; 0x0e
    2cb0:	20 e0       	ldi	r18, 0x00	; 0
    2cb2:	30 e0       	ldi	r19, 0x00	; 0
    2cb4:	4a ef       	ldi	r20, 0xFA	; 250
    2cb6:	54 e4       	ldi	r21, 0x44	; 68
    2cb8:	0e 94 c1 0b 	call	0x1782	; 0x1782 <__mulsf3>
    2cbc:	dc 01       	movw	r26, r24
    2cbe:	cb 01       	movw	r24, r22
    2cc0:	8f 83       	std	Y+7, r24	; 0x07
    2cc2:	98 87       	std	Y+8, r25	; 0x08
    2cc4:	a9 87       	std	Y+9, r26	; 0x09
    2cc6:	ba 87       	std	Y+10, r27	; 0x0a
	if (__tmp < 1.0)
    2cc8:	6f 81       	ldd	r22, Y+7	; 0x07
    2cca:	78 85       	ldd	r23, Y+8	; 0x08
    2ccc:	89 85       	ldd	r24, Y+9	; 0x09
    2cce:	9a 85       	ldd	r25, Y+10	; 0x0a
    2cd0:	20 e0       	ldi	r18, 0x00	; 0
    2cd2:	30 e0       	ldi	r19, 0x00	; 0
    2cd4:	40 e8       	ldi	r20, 0x80	; 128
    2cd6:	5f e3       	ldi	r21, 0x3F	; 63
    2cd8:	0e 94 1b 0d 	call	0x1a36	; 0x1a36 <__ltsf2>
    2cdc:	88 23       	and	r24, r24
    2cde:	2c f4       	brge	.+10     	; 0x2cea <KEYPAD_READ+0x9e>
		__ticks = 1;
    2ce0:	81 e0       	ldi	r24, 0x01	; 1
    2ce2:	90 e0       	ldi	r25, 0x00	; 0
    2ce4:	9e 83       	std	Y+6, r25	; 0x06
    2ce6:	8d 83       	std	Y+5, r24	; 0x05
    2ce8:	3f c0       	rjmp	.+126    	; 0x2d68 <KEYPAD_READ+0x11c>
	else if (__tmp > 65535)
    2cea:	6f 81       	ldd	r22, Y+7	; 0x07
    2cec:	78 85       	ldd	r23, Y+8	; 0x08
    2cee:	89 85       	ldd	r24, Y+9	; 0x09
    2cf0:	9a 85       	ldd	r25, Y+10	; 0x0a
    2cf2:	20 e0       	ldi	r18, 0x00	; 0
    2cf4:	3f ef       	ldi	r19, 0xFF	; 255
    2cf6:	4f e7       	ldi	r20, 0x7F	; 127
    2cf8:	57 e4       	ldi	r21, 0x47	; 71
    2cfa:	0e 94 bb 0c 	call	0x1976	; 0x1976 <__gtsf2>
    2cfe:	18 16       	cp	r1, r24
    2d00:	4c f5       	brge	.+82     	; 0x2d54 <KEYPAD_READ+0x108>
	{
		//	__ticks = requested delay in 1/10 ms
		__ticks = (uint16_t) (__ms * 10.0);
    2d02:	6b 85       	ldd	r22, Y+11	; 0x0b
    2d04:	7c 85       	ldd	r23, Y+12	; 0x0c
    2d06:	8d 85       	ldd	r24, Y+13	; 0x0d
    2d08:	9e 85       	ldd	r25, Y+14	; 0x0e
    2d0a:	20 e0       	ldi	r18, 0x00	; 0
    2d0c:	30 e0       	ldi	r19, 0x00	; 0
    2d0e:	40 e2       	ldi	r20, 0x20	; 32
    2d10:	51 e4       	ldi	r21, 0x41	; 65
    2d12:	0e 94 c1 0b 	call	0x1782	; 0x1782 <__mulsf3>
    2d16:	dc 01       	movw	r26, r24
    2d18:	cb 01       	movw	r24, r22
    2d1a:	bc 01       	movw	r22, r24
    2d1c:	cd 01       	movw	r24, r26
    2d1e:	0e 94 c3 01 	call	0x386	; 0x386 <__fixunssfsi>
    2d22:	dc 01       	movw	r26, r24
    2d24:	cb 01       	movw	r24, r22
    2d26:	9e 83       	std	Y+6, r25	; 0x06
    2d28:	8d 83       	std	Y+5, r24	; 0x05
    2d2a:	0f c0       	rjmp	.+30     	; 0x2d4a <KEYPAD_READ+0xfe>
    2d2c:	88 ec       	ldi	r24, 0xC8	; 200
    2d2e:	90 e0       	ldi	r25, 0x00	; 0
    2d30:	9c 83       	std	Y+4, r25	; 0x04
    2d32:	8b 83       	std	Y+3, r24	; 0x03
    2d34:	8b 81       	ldd	r24, Y+3	; 0x03
    2d36:	9c 81       	ldd	r25, Y+4	; 0x04
    2d38:	01 97       	sbiw	r24, 0x01	; 1
    2d3a:	f1 f7       	brne	.-4      	; 0x2d38 <KEYPAD_READ+0xec>
    2d3c:	9c 83       	std	Y+4, r25	; 0x04
    2d3e:	8b 83       	std	Y+3, r24	; 0x03
		while(__ticks)
		{
			// wait 1/10 ms
			_delay_loop_2(((F_CPU) / 4e3) / 10);
			__ticks --;
    2d40:	8d 81       	ldd	r24, Y+5	; 0x05
    2d42:	9e 81       	ldd	r25, Y+6	; 0x06
    2d44:	01 97       	sbiw	r24, 0x01	; 1
    2d46:	9e 83       	std	Y+6, r25	; 0x06
    2d48:	8d 83       	std	Y+5, r24	; 0x05
		__ticks = 1;
	else if (__tmp > 65535)
	{
		//	__ticks = requested delay in 1/10 ms
		__ticks = (uint16_t) (__ms * 10.0);
		while(__ticks)
    2d4a:	8d 81       	ldd	r24, Y+5	; 0x05
    2d4c:	9e 81       	ldd	r25, Y+6	; 0x06
    2d4e:	00 97       	sbiw	r24, 0x00	; 0
    2d50:	69 f7       	brne	.-38     	; 0x2d2c <KEYPAD_READ+0xe0>
    2d52:	14 c0       	rjmp	.+40     	; 0x2d7c <KEYPAD_READ+0x130>
			__ticks --;
		}
		return;
	}
	else
		__ticks = (uint16_t)__tmp;
    2d54:	6f 81       	ldd	r22, Y+7	; 0x07
    2d56:	78 85       	ldd	r23, Y+8	; 0x08
    2d58:	89 85       	ldd	r24, Y+9	; 0x09
    2d5a:	9a 85       	ldd	r25, Y+10	; 0x0a
    2d5c:	0e 94 c3 01 	call	0x386	; 0x386 <__fixunssfsi>
    2d60:	dc 01       	movw	r26, r24
    2d62:	cb 01       	movw	r24, r22
    2d64:	9e 83       	std	Y+6, r25	; 0x06
    2d66:	8d 83       	std	Y+5, r24	; 0x05
    2d68:	8d 81       	ldd	r24, Y+5	; 0x05
    2d6a:	9e 81       	ldd	r25, Y+6	; 0x06
    2d6c:	9a 83       	std	Y+2, r25	; 0x02
    2d6e:	89 83       	std	Y+1, r24	; 0x01
    2d70:	89 81       	ldd	r24, Y+1	; 0x01
    2d72:	9a 81       	ldd	r25, Y+2	; 0x02
    2d74:	01 97       	sbiw	r24, 0x01	; 1
    2d76:	f1 f7       	brne	.-4      	; 0x2d74 <KEYPAD_READ+0x128>
    2d78:	9a 83       	std	Y+2, r25	; 0x02
    2d7a:	89 83       	std	Y+1, r24	; 0x01
                // Debounce
                _delay_ms(10);  // Assuming you have a delay function
                val = GPIO_readPin(KEYPAD_ROW_PORT, row);
    2d7c:	81 e0       	ldi	r24, 0x01	; 1
    2d7e:	69 89       	ldd	r22, Y+17	; 0x11
    2d80:	0e 94 1b 11 	call	0x2236	; 0x2236 <GPIO_readPin>
    2d84:	8f 87       	std	Y+15, r24	; 0x0f

                if (val == 0) {
    2d86:	8f 85       	ldd	r24, Y+15	; 0x0f
    2d88:	88 23       	and	r24, r24
    2d8a:	09 f5       	brne	.+66     	; 0x2dce <KEYPAD_READ+0x182>
    2d8c:	05 c0       	rjmp	.+10     	; 0x2d98 <KEYPAD_READ+0x14c>
                    // Wait until the key is released
                    while (val == 0) {
						val = GPIO_readPin(KEYPAD_ROW_PORT, row);
    2d8e:	81 e0       	ldi	r24, 0x01	; 1
    2d90:	69 89       	ldd	r22, Y+17	; 0x11
    2d92:	0e 94 1b 11 	call	0x2236	; 0x2236 <GPIO_readPin>
    2d96:	8f 87       	std	Y+15, r24	; 0x0f
                _delay_ms(10);  // Assuming you have a delay function
                val = GPIO_readPin(KEYPAD_ROW_PORT, row);

                if (val == 0) {
                    // Wait until the key is released
                    while (val == 0) {
    2d98:	8f 85       	ldd	r24, Y+15	; 0x0f
    2d9a:	88 23       	and	r24, r24
    2d9c:	c1 f3       	breq	.-16     	; 0x2d8e <KEYPAD_READ+0x142>
						val = GPIO_readPin(KEYPAD_ROW_PORT, row);
                    }
                    GPIO_writePin(KEYPAD_COL_PORT, col, 1); // Reset the column
    2d9e:	83 e0       	ldi	r24, 0x03	; 3
    2da0:	68 89       	ldd	r22, Y+16	; 0x10
    2da2:	41 e0       	ldi	r20, 0x01	; 1
    2da4:	0e 94 30 10 	call	0x2060	; 0x2060 <GPIO_writePin>
                    return KEYPAD[row][col];  // Return the corresponding character from the keymap
    2da8:	89 89       	ldd	r24, Y+17	; 0x11
    2daa:	48 2f       	mov	r20, r24
    2dac:	50 e0       	ldi	r21, 0x00	; 0
    2dae:	88 89       	ldd	r24, Y+16	; 0x10
    2db0:	28 2f       	mov	r18, r24
    2db2:	30 e0       	ldi	r19, 0x00	; 0
    2db4:	ca 01       	movw	r24, r20
    2db6:	88 0f       	add	r24, r24
    2db8:	99 1f       	adc	r25, r25
    2dba:	88 0f       	add	r24, r24
    2dbc:	99 1f       	adc	r25, r25
    2dbe:	82 0f       	add	r24, r18
    2dc0:	93 1f       	adc	r25, r19
    2dc2:	fc 01       	movw	r30, r24
    2dc4:	ea 54       	subi	r30, 0x4A	; 74
    2dc6:	fe 4f       	sbci	r31, 0xFE	; 254
    2dc8:	80 81       	ld	r24, Z
    2dca:	8a 8b       	std	Y+18, r24	; 0x12
    2dcc:	15 c0       	rjmp	.+42     	; 0x2df8 <KEYPAD_READ+0x1ac>
    GPIO_writePort(KEYPAD_COL_PORT,0x0F);
    GPIO_writePort(KEYPAD_ROW_PORT,0x0F);
    for (col = 0; col < 4; col++) {
        // Drive the current column low
        GPIO_writePin(KEYPAD_COL_PORT, col, 0);
        for (row = 0; row < 4; row++) {
    2dce:	89 89       	ldd	r24, Y+17	; 0x11
    2dd0:	8f 5f       	subi	r24, 0xFF	; 255
    2dd2:	89 8b       	std	Y+17, r24	; 0x11
    2dd4:	89 89       	ldd	r24, Y+17	; 0x11
    2dd6:	84 30       	cpi	r24, 0x04	; 4
    2dd8:	08 f4       	brcc	.+2      	; 0x2ddc <KEYPAD_READ+0x190>
    2dda:	55 cf       	rjmp	.-342    	; 0x2c86 <KEYPAD_READ+0x3a>
                }
            }
        }

        // Reset the column back high
        GPIO_writePin(KEYPAD_COL_PORT, col, 1);
    2ddc:	83 e0       	ldi	r24, 0x03	; 3
    2dde:	68 89       	ldd	r22, Y+16	; 0x10
    2de0:	41 e0       	ldi	r20, 0x01	; 1
    2de2:	0e 94 30 10 	call	0x2060	; 0x2060 <GPIO_writePin>
uint8 KEYPAD_READ(void) {
		uint8 row = 0;
		uint8 col = 0;
    GPIO_writePort(KEYPAD_COL_PORT,0x0F);
    GPIO_writePort(KEYPAD_ROW_PORT,0x0F);
    for (col = 0; col < 4; col++) {
    2de6:	88 89       	ldd	r24, Y+16	; 0x10
    2de8:	8f 5f       	subi	r24, 0xFF	; 255
    2dea:	88 8b       	std	Y+16, r24	; 0x10
    2dec:	88 89       	ldd	r24, Y+16	; 0x10
    2dee:	84 30       	cpi	r24, 0x04	; 4
    2df0:	08 f4       	brcc	.+2      	; 0x2df4 <KEYPAD_READ+0x1a8>
    2df2:	42 cf       	rjmp	.-380    	; 0x2c78 <KEYPAD_READ+0x2c>
        }

        // Reset the column back high
        GPIO_writePin(KEYPAD_COL_PORT, col, 1);
    }
    return 'x';  // Indicate no key press
    2df4:	88 e7       	ldi	r24, 0x78	; 120
    2df6:	8a 8b       	std	Y+18, r24	; 0x12
    2df8:	8a 89       	ldd	r24, Y+18	; 0x12
}
    2dfa:	62 96       	adiw	r28, 0x12	; 18
    2dfc:	0f b6       	in	r0, 0x3f	; 63
    2dfe:	f8 94       	cli
    2e00:	de bf       	out	0x3e, r29	; 62
    2e02:	0f be       	out	0x3f, r0	; 63
    2e04:	cd bf       	out	0x3d, r28	; 61
    2e06:	cf 91       	pop	r28
    2e08:	df 91       	pop	r29
    2e0a:	08 95       	ret

00002e0c <HAL_Init>:
uint8 operations_counter = 0, whole_numbers_counter = 0;
sint64 old_num = 0;
uint8 input;

void HAL_Init(void)
{
    2e0c:	df 93       	push	r29
    2e0e:	cf 93       	push	r28
    2e10:	cd b7       	in	r28, 0x3d	; 61
    2e12:	de b7       	in	r29, 0x3e	; 62
	LCD_init();
    2e14:	0e 94 83 12 	call	0x2506	; 0x2506 <LCD_init>
	KEYPAD_voidInit();
    2e18:	0e 94 0f 16 	call	0x2c1e	; 0x2c1e <KEYPAD_voidInit>
}
    2e1c:	cf 91       	pop	r28
    2e1e:	df 91       	pop	r29
    2e20:	08 95       	ret

00002e22 <LCD_init_msg>:

void LCD_init_msg()
{
    2e22:	df 93       	push	r29
    2e24:	cf 93       	push	r28
    2e26:	cd b7       	in	r28, 0x3d	; 61
    2e28:	de b7       	in	r29, 0x3e	; 62
    2e2a:	2e 97       	sbiw	r28, 0x0e	; 14
    2e2c:	0f b6       	in	r0, 0x3f	; 63
    2e2e:	f8 94       	cli
    2e30:	de bf       	out	0x3e, r29	; 62
    2e32:	0f be       	out	0x3f, r0	; 63
    2e34:	cd bf       	out	0x3d, r28	; 61
	LCD_displayString("Initializing");
    2e36:	84 e6       	ldi	r24, 0x64	; 100
    2e38:	90 e0       	ldi	r25, 0x00	; 0
    2e3a:	0e 94 35 15 	call	0x2a6a	; 0x2a6a <LCD_displayString>
	LCD_moveCursor(1,0);
    2e3e:	81 e0       	ldi	r24, 0x01	; 1
    2e40:	60 e0       	ldi	r22, 0x00	; 0
    2e42:	0e 94 5e 15 	call	0x2abc	; 0x2abc <LCD_moveCursor>
	LCD_displayString("Calculator..");
    2e46:	81 e7       	ldi	r24, 0x71	; 113
    2e48:	90 e0       	ldi	r25, 0x00	; 0
    2e4a:	0e 94 35 15 	call	0x2a6a	; 0x2a6a <LCD_displayString>
    2e4e:	80 e0       	ldi	r24, 0x00	; 0
    2e50:	90 e0       	ldi	r25, 0x00	; 0
    2e52:	aa e7       	ldi	r26, 0x7A	; 122
    2e54:	b4 e4       	ldi	r27, 0x44	; 68
    2e56:	8b 87       	std	Y+11, r24	; 0x0b
    2e58:	9c 87       	std	Y+12, r25	; 0x0c
    2e5a:	ad 87       	std	Y+13, r26	; 0x0d
    2e5c:	be 87       	std	Y+14, r27	; 0x0e
 */
void
_delay_ms(double __ms)
{
	uint16_t __ticks;
	double __tmp = ((F_CPU) / 4e3) * __ms;
    2e5e:	6b 85       	ldd	r22, Y+11	; 0x0b
    2e60:	7c 85       	ldd	r23, Y+12	; 0x0c
    2e62:	8d 85       	ldd	r24, Y+13	; 0x0d
    2e64:	9e 85       	ldd	r25, Y+14	; 0x0e
    2e66:	20 e0       	ldi	r18, 0x00	; 0
    2e68:	30 e0       	ldi	r19, 0x00	; 0
    2e6a:	4a ef       	ldi	r20, 0xFA	; 250
    2e6c:	54 e4       	ldi	r21, 0x44	; 68
    2e6e:	0e 94 c1 0b 	call	0x1782	; 0x1782 <__mulsf3>
    2e72:	dc 01       	movw	r26, r24
    2e74:	cb 01       	movw	r24, r22
    2e76:	8f 83       	std	Y+7, r24	; 0x07
    2e78:	98 87       	std	Y+8, r25	; 0x08
    2e7a:	a9 87       	std	Y+9, r26	; 0x09
    2e7c:	ba 87       	std	Y+10, r27	; 0x0a
	if (__tmp < 1.0)
    2e7e:	6f 81       	ldd	r22, Y+7	; 0x07
    2e80:	78 85       	ldd	r23, Y+8	; 0x08
    2e82:	89 85       	ldd	r24, Y+9	; 0x09
    2e84:	9a 85       	ldd	r25, Y+10	; 0x0a
    2e86:	20 e0       	ldi	r18, 0x00	; 0
    2e88:	30 e0       	ldi	r19, 0x00	; 0
    2e8a:	40 e8       	ldi	r20, 0x80	; 128
    2e8c:	5f e3       	ldi	r21, 0x3F	; 63
    2e8e:	0e 94 1b 0d 	call	0x1a36	; 0x1a36 <__ltsf2>
    2e92:	88 23       	and	r24, r24
    2e94:	2c f4       	brge	.+10     	; 0x2ea0 <LCD_init_msg+0x7e>
		__ticks = 1;
    2e96:	81 e0       	ldi	r24, 0x01	; 1
    2e98:	90 e0       	ldi	r25, 0x00	; 0
    2e9a:	9e 83       	std	Y+6, r25	; 0x06
    2e9c:	8d 83       	std	Y+5, r24	; 0x05
    2e9e:	3f c0       	rjmp	.+126    	; 0x2f1e <LCD_init_msg+0xfc>
	else if (__tmp > 65535)
    2ea0:	6f 81       	ldd	r22, Y+7	; 0x07
    2ea2:	78 85       	ldd	r23, Y+8	; 0x08
    2ea4:	89 85       	ldd	r24, Y+9	; 0x09
    2ea6:	9a 85       	ldd	r25, Y+10	; 0x0a
    2ea8:	20 e0       	ldi	r18, 0x00	; 0
    2eaa:	3f ef       	ldi	r19, 0xFF	; 255
    2eac:	4f e7       	ldi	r20, 0x7F	; 127
    2eae:	57 e4       	ldi	r21, 0x47	; 71
    2eb0:	0e 94 bb 0c 	call	0x1976	; 0x1976 <__gtsf2>
    2eb4:	18 16       	cp	r1, r24
    2eb6:	4c f5       	brge	.+82     	; 0x2f0a <LCD_init_msg+0xe8>
	{
		//	__ticks = requested delay in 1/10 ms
		__ticks = (uint16_t) (__ms * 10.0);
    2eb8:	6b 85       	ldd	r22, Y+11	; 0x0b
    2eba:	7c 85       	ldd	r23, Y+12	; 0x0c
    2ebc:	8d 85       	ldd	r24, Y+13	; 0x0d
    2ebe:	9e 85       	ldd	r25, Y+14	; 0x0e
    2ec0:	20 e0       	ldi	r18, 0x00	; 0
    2ec2:	30 e0       	ldi	r19, 0x00	; 0
    2ec4:	40 e2       	ldi	r20, 0x20	; 32
    2ec6:	51 e4       	ldi	r21, 0x41	; 65
    2ec8:	0e 94 c1 0b 	call	0x1782	; 0x1782 <__mulsf3>
    2ecc:	dc 01       	movw	r26, r24
    2ece:	cb 01       	movw	r24, r22
    2ed0:	bc 01       	movw	r22, r24
    2ed2:	cd 01       	movw	r24, r26
    2ed4:	0e 94 c3 01 	call	0x386	; 0x386 <__fixunssfsi>
    2ed8:	dc 01       	movw	r26, r24
    2eda:	cb 01       	movw	r24, r22
    2edc:	9e 83       	std	Y+6, r25	; 0x06
    2ede:	8d 83       	std	Y+5, r24	; 0x05
    2ee0:	0f c0       	rjmp	.+30     	; 0x2f00 <LCD_init_msg+0xde>
    2ee2:	88 ec       	ldi	r24, 0xC8	; 200
    2ee4:	90 e0       	ldi	r25, 0x00	; 0
    2ee6:	9c 83       	std	Y+4, r25	; 0x04
    2ee8:	8b 83       	std	Y+3, r24	; 0x03
    2eea:	8b 81       	ldd	r24, Y+3	; 0x03
    2eec:	9c 81       	ldd	r25, Y+4	; 0x04
    2eee:	01 97       	sbiw	r24, 0x01	; 1
    2ef0:	f1 f7       	brne	.-4      	; 0x2eee <LCD_init_msg+0xcc>
    2ef2:	9c 83       	std	Y+4, r25	; 0x04
    2ef4:	8b 83       	std	Y+3, r24	; 0x03
		while(__ticks)
		{
			// wait 1/10 ms
			_delay_loop_2(((F_CPU) / 4e3) / 10);
			__ticks --;
    2ef6:	8d 81       	ldd	r24, Y+5	; 0x05
    2ef8:	9e 81       	ldd	r25, Y+6	; 0x06
    2efa:	01 97       	sbiw	r24, 0x01	; 1
    2efc:	9e 83       	std	Y+6, r25	; 0x06
    2efe:	8d 83       	std	Y+5, r24	; 0x05
		__ticks = 1;
	else if (__tmp > 65535)
	{
		//	__ticks = requested delay in 1/10 ms
		__ticks = (uint16_t) (__ms * 10.0);
		while(__ticks)
    2f00:	8d 81       	ldd	r24, Y+5	; 0x05
    2f02:	9e 81       	ldd	r25, Y+6	; 0x06
    2f04:	00 97       	sbiw	r24, 0x00	; 0
    2f06:	69 f7       	brne	.-38     	; 0x2ee2 <LCD_init_msg+0xc0>
    2f08:	14 c0       	rjmp	.+40     	; 0x2f32 <LCD_init_msg+0x110>
			__ticks --;
		}
		return;
	}
	else
		__ticks = (uint16_t)__tmp;
    2f0a:	6f 81       	ldd	r22, Y+7	; 0x07
    2f0c:	78 85       	ldd	r23, Y+8	; 0x08
    2f0e:	89 85       	ldd	r24, Y+9	; 0x09
    2f10:	9a 85       	ldd	r25, Y+10	; 0x0a
    2f12:	0e 94 c3 01 	call	0x386	; 0x386 <__fixunssfsi>
    2f16:	dc 01       	movw	r26, r24
    2f18:	cb 01       	movw	r24, r22
    2f1a:	9e 83       	std	Y+6, r25	; 0x06
    2f1c:	8d 83       	std	Y+5, r24	; 0x05
    2f1e:	8d 81       	ldd	r24, Y+5	; 0x05
    2f20:	9e 81       	ldd	r25, Y+6	; 0x06
    2f22:	9a 83       	std	Y+2, r25	; 0x02
    2f24:	89 83       	std	Y+1, r24	; 0x01
    2f26:	89 81       	ldd	r24, Y+1	; 0x01
    2f28:	9a 81       	ldd	r25, Y+2	; 0x02
    2f2a:	01 97       	sbiw	r24, 0x01	; 1
    2f2c:	f1 f7       	brne	.-4      	; 0x2f2a <LCD_init_msg+0x108>
    2f2e:	9a 83       	std	Y+2, r25	; 0x02
    2f30:	89 83       	std	Y+1, r24	; 0x01
	_delay_ms(1000);
	LCD_clearScreen();
    2f32:	0e 94 05 16 	call	0x2c0a	; 0x2c0a <LCD_clearScreen>
	LCD_moveCursor(0,0);
    2f36:	80 e0       	ldi	r24, 0x00	; 0
    2f38:	60 e0       	ldi	r22, 0x00	; 0
    2f3a:	0e 94 5e 15 	call	0x2abc	; 0x2abc <LCD_moveCursor>
}
    2f3e:	2e 96       	adiw	r28, 0x0e	; 14
    2f40:	0f b6       	in	r0, 0x3f	; 63
    2f42:	f8 94       	cli
    2f44:	de bf       	out	0x3e, r29	; 62
    2f46:	0f be       	out	0x3f, r0	; 63
    2f48:	cd bf       	out	0x3d, r28	; 61
    2f4a:	cf 91       	pop	r28
    2f4c:	df 91       	pop	r29
    2f4e:	08 95       	ret

00002f50 <ConvertCharToInt>:

uint8 ConvertCharToInt(uint8 input)
{
    2f50:	df 93       	push	r29
    2f52:	cf 93       	push	r28
    2f54:	0f 92       	push	r0
    2f56:	cd b7       	in	r28, 0x3d	; 61
    2f58:	de b7       	in	r29, 0x3e	; 62
    2f5a:	89 83       	std	Y+1, r24	; 0x01
	return (input-'0');
    2f5c:	89 81       	ldd	r24, Y+1	; 0x01
    2f5e:	80 53       	subi	r24, 0x30	; 48
}
    2f60:	0f 90       	pop	r0
    2f62:	cf 91       	pop	r28
    2f64:	df 91       	pop	r29
    2f66:	08 95       	ret

00002f68 <Get_Keypad_Input>:

uint8 Get_Keypad_Input()
{
    2f68:	df 93       	push	r29
    2f6a:	cf 93       	push	r28
    2f6c:	0f 92       	push	r0
    2f6e:	cd b7       	in	r28, 0x3d	; 61
    2f70:	de b7       	in	r29, 0x3e	; 62
	uint8 input = 'x';
    2f72:	88 e7       	ldi	r24, 0x78	; 120
    2f74:	89 83       	std	Y+1, r24	; 0x01
    2f76:	03 c0       	rjmp	.+6      	; 0x2f7e <Get_Keypad_Input+0x16>
	while(input == 'x')
		input = KEYPAD_READ();
    2f78:	0e 94 26 16 	call	0x2c4c	; 0x2c4c <KEYPAD_READ>
    2f7c:	89 83       	std	Y+1, r24	; 0x01
}

uint8 Get_Keypad_Input()
{
	uint8 input = 'x';
	while(input == 'x')
    2f7e:	89 81       	ldd	r24, Y+1	; 0x01
    2f80:	88 37       	cpi	r24, 0x78	; 120
    2f82:	d1 f3       	breq	.-12     	; 0x2f78 <Get_Keypad_Input+0x10>
		input = KEYPAD_READ();
	return input;
    2f84:	89 81       	ldd	r24, Y+1	; 0x01
}
    2f86:	0f 90       	pop	r0
    2f88:	cf 91       	pop	r28
    2f8a:	df 91       	pop	r29
    2f8c:	08 95       	ret

00002f8e <User_Formula_Input>:

void User_Formula_Input(void)
{
    2f8e:	af 92       	push	r10
    2f90:	bf 92       	push	r11
    2f92:	cf 92       	push	r12
    2f94:	df 92       	push	r13
    2f96:	ef 92       	push	r14
    2f98:	ff 92       	push	r15
    2f9a:	0f 93       	push	r16
    2f9c:	1f 93       	push	r17
    2f9e:	df 93       	push	r29
    2fa0:	cf 93       	push	r28
    2fa2:	cd b7       	in	r28, 0x3d	; 61
    2fa4:	de b7       	in	r29, 0x3e	; 62
    2fa6:	c3 5b       	subi	r28, 0xB3	; 179
    2fa8:	d0 40       	sbci	r29, 0x00	; 0
    2faa:	0f b6       	in	r0, 0x3f	; 63
    2fac:	f8 94       	cli
    2fae:	de bf       	out	0x3e, r29	; 62
    2fb0:	0f be       	out	0x3f, r0	; 63
    2fb2:	cd bf       	out	0x3d, r28	; 61
	uint8 prev_input=0,neg_flag = 0;
    2fb4:	1a 82       	std	Y+2, r1	; 0x02
    2fb6:	19 82       	std	Y+1, r1	; 0x01
	while(1)
	{
		input =  Get_Keypad_Input();
    2fb8:	0e 94 b4 17 	call	0x2f68	; 0x2f68 <Get_Keypad_Input>
    2fbc:	80 93 c2 03 	sts	0x03C2, r24
		LCD_displayCharacter(input);
    2fc0:	80 91 c2 03 	lds	r24, 0x03C2
    2fc4:	0e 94 b8 13 	call	0x2770	; 0x2770 <LCD_displayCharacter>
		if( (prev_input == '+' || prev_input == '*' || prev_input == '/') && input == '-')
    2fc8:	8a 81       	ldd	r24, Y+2	; 0x02
    2fca:	8b 32       	cpi	r24, 0x2B	; 43
    2fcc:	31 f0       	breq	.+12     	; 0x2fda <User_Formula_Input+0x4c>
    2fce:	8a 81       	ldd	r24, Y+2	; 0x02
    2fd0:	8a 32       	cpi	r24, 0x2A	; 42
    2fd2:	19 f0       	breq	.+6      	; 0x2fda <User_Formula_Input+0x4c>
    2fd4:	8a 81       	ldd	r24, Y+2	; 0x02
    2fd6:	8f 32       	cpi	r24, 0x2F	; 47
    2fd8:	39 f4       	brne	.+14     	; 0x2fe8 <User_Formula_Input+0x5a>
    2fda:	80 91 c2 03 	lds	r24, 0x03C2
    2fde:	8d 32       	cpi	r24, 0x2D	; 45
    2fe0:	19 f4       	brne	.+6      	; 0x2fe8 <User_Formula_Input+0x5a>
		{
			neg_flag = 1;
    2fe2:	81 e0       	ldi	r24, 0x01	; 1
    2fe4:	89 83       	std	Y+1, r24	; 0x01
    2fe6:	e8 cf       	rjmp	.-48     	; 0x2fb8 <User_Formula_Input+0x2a>
			continue;
		}
		else if(prev_input == '-' && input == '-')
    2fe8:	8a 81       	ldd	r24, Y+2	; 0x02
    2fea:	8d 32       	cpi	r24, 0x2D	; 45
    2fec:	39 f4       	brne	.+14     	; 0x2ffc <User_Formula_Input+0x6e>
    2fee:	80 91 c2 03 	lds	r24, 0x03C2
    2ff2:	8d 32       	cpi	r24, 0x2D	; 45
    2ff4:	19 f4       	brne	.+6      	; 0x2ffc <User_Formula_Input+0x6e>
		{
			input = '+';
    2ff6:	8b e2       	ldi	r24, 0x2B	; 43
    2ff8:	80 93 c2 03 	sts	0x03C2, r24
		}
		if(input == '+' || input == '-' || input == '/' || input == '*')
    2ffc:	80 91 c2 03 	lds	r24, 0x03C2
    3000:	8b 32       	cpi	r24, 0x2B	; 43
    3002:	69 f0       	breq	.+26     	; 0x301e <User_Formula_Input+0x90>
    3004:	80 91 c2 03 	lds	r24, 0x03C2
    3008:	8d 32       	cpi	r24, 0x2D	; 45
    300a:	49 f0       	breq	.+18     	; 0x301e <User_Formula_Input+0x90>
    300c:	80 91 c2 03 	lds	r24, 0x03C2
    3010:	8f 32       	cpi	r24, 0x2F	; 47
    3012:	29 f0       	breq	.+10     	; 0x301e <User_Formula_Input+0x90>
    3014:	80 91 c2 03 	lds	r24, 0x03C2
    3018:	8a 32       	cpi	r24, 0x2A	; 42
    301a:	09 f0       	breq	.+2      	; 0x301e <User_Formula_Input+0x90>
    301c:	aa c1       	rjmp	.+852    	; 0x3372 <User_Formula_Input+0x3e4>
		{
			if(neg_flag)
    301e:	89 81       	ldd	r24, Y+1	; 0x01
    3020:	88 23       	and	r24, r24
    3022:	09 f4       	brne	.+2      	; 0x3026 <User_Formula_Input+0x98>
    3024:	5f c1       	rjmp	.+702    	; 0x32e4 <User_Formula_Input+0x356>
			{
				operations[operations_counter++] = input;
    3026:	30 91 b8 03 	lds	r19, 0x03B8
    302a:	83 2f       	mov	r24, r19
    302c:	90 e0       	ldi	r25, 0x00	; 0
    302e:	20 91 c2 03 	lds	r18, 0x03C2
    3032:	fc 01       	movw	r30, r24
    3034:	e2 55       	subi	r30, 0x52	; 82
    3036:	fc 4f       	sbci	r31, 0xFC	; 252
    3038:	20 83       	st	Z, r18
    303a:	83 2f       	mov	r24, r19
    303c:	8f 5f       	subi	r24, 0xFF	; 255
    303e:	80 93 b8 03 	sts	0x03B8, r24
				whole_numbers[whole_numbers_counter++] = -1*old_num;
    3042:	00 91 b9 03 	lds	r16, 0x03B9
    3046:	0f a3       	std	Y+39, r16	; 0x27
    3048:	3f a1       	ldd	r19, Y+39	; 0x27
    304a:	23 2f       	mov	r18, r19
    304c:	30 e0       	ldi	r19, 0x00	; 0
    304e:	3e a3       	std	Y+38, r19	; 0x26
    3050:	2d a3       	std	Y+37, r18	; 0x25
    3052:	40 91 ba 03 	lds	r20, 0x03BA
    3056:	4d 8f       	std	Y+29, r20	; 0x1d
    3058:	50 91 bb 03 	lds	r21, 0x03BB
    305c:	5e 8f       	std	Y+30, r21	; 0x1e
    305e:	60 91 bc 03 	lds	r22, 0x03BC
    3062:	6f 8f       	std	Y+31, r22	; 0x1f
    3064:	70 91 bd 03 	lds	r23, 0x03BD
    3068:	78 a3       	std	Y+32, r23	; 0x20
    306a:	80 91 be 03 	lds	r24, 0x03BE
    306e:	89 a3       	std	Y+33, r24	; 0x21
    3070:	90 91 bf 03 	lds	r25, 0x03BF
    3074:	9a a3       	std	Y+34, r25	; 0x22
    3076:	00 91 c0 03 	lds	r16, 0x03C0
    307a:	0b a3       	std	Y+35, r16	; 0x23
    307c:	10 91 c1 03 	lds	r17, 0x03C1
    3080:	1c a3       	std	Y+36, r17	; 0x24
    3082:	18 a6       	std	Y+40, r1	; 0x28
    3084:	19 a6       	std	Y+41, r1	; 0x29
    3086:	1a a6       	std	Y+42, r1	; 0x2a
    3088:	1b a6       	std	Y+43, r1	; 0x2b
    308a:	1c a6       	std	Y+44, r1	; 0x2c
    308c:	1d a6       	std	Y+45, r1	; 0x2d
    308e:	1e a6       	std	Y+46, r1	; 0x2e
    3090:	1f a6       	std	Y+47, r1	; 0x2f
    3092:	28 a5       	ldd	r18, Y+40	; 0x28
    3094:	3d 8d       	ldd	r19, Y+29	; 0x1d
    3096:	23 1b       	sub	r18, r19
    3098:	28 ab       	std	Y+48, r18	; 0x30
    309a:	41 e0       	ldi	r20, 0x01	; 1
    309c:	48 af       	std	Y+56, r20	; 0x38
    309e:	58 a9       	ldd	r21, Y+48	; 0x30
    30a0:	68 a5       	ldd	r22, Y+40	; 0x28
    30a2:	65 17       	cp	r22, r21
    30a4:	08 f0       	brcs	.+2      	; 0x30a8 <User_Formula_Input+0x11a>
    30a6:	18 ae       	std	Y+56, r1	; 0x38
    30a8:	79 a5       	ldd	r23, Y+41	; 0x29
    30aa:	8e 8d       	ldd	r24, Y+30	; 0x1e
    30ac:	78 1b       	sub	r23, r24
    30ae:	79 ab       	std	Y+49, r23	; 0x31
    30b0:	91 e0       	ldi	r25, 0x01	; 1
    30b2:	99 af       	std	Y+57, r25	; 0x39
    30b4:	09 a9       	ldd	r16, Y+49	; 0x31
    30b6:	19 a5       	ldd	r17, Y+41	; 0x29
    30b8:	10 17       	cp	r17, r16
    30ba:	08 f0       	brcs	.+2      	; 0x30be <User_Formula_Input+0x130>
    30bc:	19 ae       	std	Y+57, r1	; 0x39
    30be:	29 a9       	ldd	r18, Y+49	; 0x31
    30c0:	38 ad       	ldd	r19, Y+56	; 0x38
    30c2:	23 1b       	sub	r18, r19
    30c4:	2a af       	std	Y+58, r18	; 0x3a
    30c6:	41 e0       	ldi	r20, 0x01	; 1
    30c8:	4b af       	std	Y+59, r20	; 0x3b
    30ca:	5a ad       	ldd	r21, Y+58	; 0x3a
    30cc:	69 a9       	ldd	r22, Y+49	; 0x31
    30ce:	65 17       	cp	r22, r21
    30d0:	08 f0       	brcs	.+2      	; 0x30d4 <User_Formula_Input+0x146>
    30d2:	1b ae       	std	Y+59, r1	; 0x3b
    30d4:	79 ad       	ldd	r23, Y+57	; 0x39
    30d6:	8b ad       	ldd	r24, Y+59	; 0x3b
    30d8:	78 2b       	or	r23, r24
    30da:	79 af       	std	Y+57, r23	; 0x39
    30dc:	9a ad       	ldd	r25, Y+58	; 0x3a
    30de:	99 ab       	std	Y+49, r25	; 0x31
    30e0:	0a a5       	ldd	r16, Y+42	; 0x2a
    30e2:	1f 8d       	ldd	r17, Y+31	; 0x1f
    30e4:	01 1b       	sub	r16, r17
    30e6:	0a ab       	std	Y+50, r16	; 0x32
    30e8:	21 e0       	ldi	r18, 0x01	; 1
    30ea:	2c af       	std	Y+60, r18	; 0x3c
    30ec:	3a a9       	ldd	r19, Y+50	; 0x32
    30ee:	4a a5       	ldd	r20, Y+42	; 0x2a
    30f0:	43 17       	cp	r20, r19
    30f2:	08 f0       	brcs	.+2      	; 0x30f6 <User_Formula_Input+0x168>
    30f4:	1c ae       	std	Y+60, r1	; 0x3c
    30f6:	5a a9       	ldd	r21, Y+50	; 0x32
    30f8:	69 ad       	ldd	r22, Y+57	; 0x39
    30fa:	56 1b       	sub	r21, r22
    30fc:	5d af       	std	Y+61, r21	; 0x3d
    30fe:	71 e0       	ldi	r23, 0x01	; 1
    3100:	7e af       	std	Y+62, r23	; 0x3e
    3102:	8d ad       	ldd	r24, Y+61	; 0x3d
    3104:	9a a9       	ldd	r25, Y+50	; 0x32
    3106:	98 17       	cp	r25, r24
    3108:	08 f0       	brcs	.+2      	; 0x310c <User_Formula_Input+0x17e>
    310a:	1e ae       	std	Y+62, r1	; 0x3e
    310c:	0c ad       	ldd	r16, Y+60	; 0x3c
    310e:	1e ad       	ldd	r17, Y+62	; 0x3e
    3110:	01 2b       	or	r16, r17
    3112:	0c af       	std	Y+60, r16	; 0x3c
    3114:	2d ad       	ldd	r18, Y+61	; 0x3d
    3116:	2a ab       	std	Y+50, r18	; 0x32
    3118:	3b a5       	ldd	r19, Y+43	; 0x2b
    311a:	48 a1       	ldd	r20, Y+32	; 0x20
    311c:	34 1b       	sub	r19, r20
    311e:	3b ab       	std	Y+51, r19	; 0x33
    3120:	51 e0       	ldi	r21, 0x01	; 1
    3122:	5f af       	std	Y+63, r21	; 0x3f
    3124:	6b a9       	ldd	r22, Y+51	; 0x33
    3126:	7b a5       	ldd	r23, Y+43	; 0x2b
    3128:	76 17       	cp	r23, r22
    312a:	08 f0       	brcs	.+2      	; 0x312e <User_Formula_Input+0x1a0>
    312c:	1f ae       	std	Y+63, r1	; 0x3f
    312e:	8b a9       	ldd	r24, Y+51	; 0x33
    3130:	9c ad       	ldd	r25, Y+60	; 0x3c
    3132:	89 1b       	sub	r24, r25
    3134:	21 96       	adiw	r28, 0x01	; 1
    3136:	8f af       	std	Y+63, r24	; 0x3f
    3138:	21 97       	sbiw	r28, 0x01	; 1
    313a:	01 e0       	ldi	r16, 0x01	; 1
    313c:	22 96       	adiw	r28, 0x02	; 2
    313e:	0f af       	std	Y+63, r16	; 0x3f
    3140:	22 97       	sbiw	r28, 0x02	; 2
    3142:	21 96       	adiw	r28, 0x01	; 1
    3144:	1f ad       	ldd	r17, Y+63	; 0x3f
    3146:	21 97       	sbiw	r28, 0x01	; 1
    3148:	2b a9       	ldd	r18, Y+51	; 0x33
    314a:	21 17       	cp	r18, r17
    314c:	18 f0       	brcs	.+6      	; 0x3154 <User_Formula_Input+0x1c6>
    314e:	22 96       	adiw	r28, 0x02	; 2
    3150:	1f ae       	std	Y+63, r1	; 0x3f
    3152:	22 97       	sbiw	r28, 0x02	; 2
    3154:	3f ad       	ldd	r19, Y+63	; 0x3f
    3156:	22 96       	adiw	r28, 0x02	; 2
    3158:	4f ad       	ldd	r20, Y+63	; 0x3f
    315a:	22 97       	sbiw	r28, 0x02	; 2
    315c:	34 2b       	or	r19, r20
    315e:	3f af       	std	Y+63, r19	; 0x3f
    3160:	21 96       	adiw	r28, 0x01	; 1
    3162:	5f ad       	ldd	r21, Y+63	; 0x3f
    3164:	21 97       	sbiw	r28, 0x01	; 1
    3166:	5b ab       	std	Y+51, r21	; 0x33
    3168:	6c a5       	ldd	r22, Y+44	; 0x2c
    316a:	79 a1       	ldd	r23, Y+33	; 0x21
    316c:	67 1b       	sub	r22, r23
    316e:	6c ab       	std	Y+52, r22	; 0x34
    3170:	81 e0       	ldi	r24, 0x01	; 1
    3172:	23 96       	adiw	r28, 0x03	; 3
    3174:	8f af       	std	Y+63, r24	; 0x3f
    3176:	23 97       	sbiw	r28, 0x03	; 3
    3178:	9c a9       	ldd	r25, Y+52	; 0x34
    317a:	0c a5       	ldd	r16, Y+44	; 0x2c
    317c:	09 17       	cp	r16, r25
    317e:	18 f0       	brcs	.+6      	; 0x3186 <User_Formula_Input+0x1f8>
    3180:	23 96       	adiw	r28, 0x03	; 3
    3182:	1f ae       	std	Y+63, r1	; 0x3f
    3184:	23 97       	sbiw	r28, 0x03	; 3
    3186:	1c a9       	ldd	r17, Y+52	; 0x34
    3188:	2f ad       	ldd	r18, Y+63	; 0x3f
    318a:	12 1b       	sub	r17, r18
    318c:	24 96       	adiw	r28, 0x04	; 4
    318e:	1f af       	std	Y+63, r17	; 0x3f
    3190:	24 97       	sbiw	r28, 0x04	; 4
    3192:	31 e0       	ldi	r19, 0x01	; 1
    3194:	25 96       	adiw	r28, 0x05	; 5
    3196:	3f af       	std	Y+63, r19	; 0x3f
    3198:	25 97       	sbiw	r28, 0x05	; 5
    319a:	24 96       	adiw	r28, 0x04	; 4
    319c:	4f ad       	ldd	r20, Y+63	; 0x3f
    319e:	24 97       	sbiw	r28, 0x04	; 4
    31a0:	5c a9       	ldd	r21, Y+52	; 0x34
    31a2:	54 17       	cp	r21, r20
    31a4:	18 f0       	brcs	.+6      	; 0x31ac <User_Formula_Input+0x21e>
    31a6:	25 96       	adiw	r28, 0x05	; 5
    31a8:	1f ae       	std	Y+63, r1	; 0x3f
    31aa:	25 97       	sbiw	r28, 0x05	; 5
    31ac:	23 96       	adiw	r28, 0x03	; 3
    31ae:	6f ad       	ldd	r22, Y+63	; 0x3f
    31b0:	23 97       	sbiw	r28, 0x03	; 3
    31b2:	25 96       	adiw	r28, 0x05	; 5
    31b4:	7f ad       	ldd	r23, Y+63	; 0x3f
    31b6:	25 97       	sbiw	r28, 0x05	; 5
    31b8:	67 2b       	or	r22, r23
    31ba:	23 96       	adiw	r28, 0x03	; 3
    31bc:	6f af       	std	Y+63, r22	; 0x3f
    31be:	23 97       	sbiw	r28, 0x03	; 3
    31c0:	24 96       	adiw	r28, 0x04	; 4
    31c2:	8f ad       	ldd	r24, Y+63	; 0x3f
    31c4:	24 97       	sbiw	r28, 0x04	; 4
    31c6:	8c ab       	std	Y+52, r24	; 0x34
    31c8:	9d a5       	ldd	r25, Y+45	; 0x2d
    31ca:	0a a1       	ldd	r16, Y+34	; 0x22
    31cc:	90 1b       	sub	r25, r16
    31ce:	9d ab       	std	Y+53, r25	; 0x35
    31d0:	11 e0       	ldi	r17, 0x01	; 1
    31d2:	26 96       	adiw	r28, 0x06	; 6
    31d4:	1f af       	std	Y+63, r17	; 0x3f
    31d6:	26 97       	sbiw	r28, 0x06	; 6
    31d8:	2d a9       	ldd	r18, Y+53	; 0x35
    31da:	3d a5       	ldd	r19, Y+45	; 0x2d
    31dc:	32 17       	cp	r19, r18
    31de:	18 f0       	brcs	.+6      	; 0x31e6 <User_Formula_Input+0x258>
    31e0:	26 96       	adiw	r28, 0x06	; 6
    31e2:	1f ae       	std	Y+63, r1	; 0x3f
    31e4:	26 97       	sbiw	r28, 0x06	; 6
    31e6:	4d a9       	ldd	r20, Y+53	; 0x35
    31e8:	23 96       	adiw	r28, 0x03	; 3
    31ea:	5f ad       	ldd	r21, Y+63	; 0x3f
    31ec:	23 97       	sbiw	r28, 0x03	; 3
    31ee:	45 1b       	sub	r20, r21
    31f0:	27 96       	adiw	r28, 0x07	; 7
    31f2:	4f af       	std	Y+63, r20	; 0x3f
    31f4:	27 97       	sbiw	r28, 0x07	; 7
    31f6:	61 e0       	ldi	r22, 0x01	; 1
    31f8:	28 96       	adiw	r28, 0x08	; 8
    31fa:	6f af       	std	Y+63, r22	; 0x3f
    31fc:	28 97       	sbiw	r28, 0x08	; 8
    31fe:	27 96       	adiw	r28, 0x07	; 7
    3200:	7f ad       	ldd	r23, Y+63	; 0x3f
    3202:	27 97       	sbiw	r28, 0x07	; 7
    3204:	8d a9       	ldd	r24, Y+53	; 0x35
    3206:	87 17       	cp	r24, r23
    3208:	18 f0       	brcs	.+6      	; 0x3210 <User_Formula_Input+0x282>
    320a:	28 96       	adiw	r28, 0x08	; 8
    320c:	1f ae       	std	Y+63, r1	; 0x3f
    320e:	28 97       	sbiw	r28, 0x08	; 8
    3210:	26 96       	adiw	r28, 0x06	; 6
    3212:	9f ad       	ldd	r25, Y+63	; 0x3f
    3214:	26 97       	sbiw	r28, 0x06	; 6
    3216:	28 96       	adiw	r28, 0x08	; 8
    3218:	0f ad       	ldd	r16, Y+63	; 0x3f
    321a:	28 97       	sbiw	r28, 0x08	; 8
    321c:	90 2b       	or	r25, r16
    321e:	26 96       	adiw	r28, 0x06	; 6
    3220:	9f af       	std	Y+63, r25	; 0x3f
    3222:	26 97       	sbiw	r28, 0x06	; 6
    3224:	27 96       	adiw	r28, 0x07	; 7
    3226:	1f ad       	ldd	r17, Y+63	; 0x3f
    3228:	27 97       	sbiw	r28, 0x07	; 7
    322a:	1d ab       	std	Y+53, r17	; 0x35
    322c:	2e a5       	ldd	r18, Y+46	; 0x2e
    322e:	3b a1       	ldd	r19, Y+35	; 0x23
    3230:	23 1b       	sub	r18, r19
    3232:	2e ab       	std	Y+54, r18	; 0x36
    3234:	41 e0       	ldi	r20, 0x01	; 1
    3236:	29 96       	adiw	r28, 0x09	; 9
    3238:	4f af       	std	Y+63, r20	; 0x3f
    323a:	29 97       	sbiw	r28, 0x09	; 9
    323c:	5e a9       	ldd	r21, Y+54	; 0x36
    323e:	6e a5       	ldd	r22, Y+46	; 0x2e
    3240:	65 17       	cp	r22, r21
    3242:	18 f0       	brcs	.+6      	; 0x324a <User_Formula_Input+0x2bc>
    3244:	29 96       	adiw	r28, 0x09	; 9
    3246:	1f ae       	std	Y+63, r1	; 0x3f
    3248:	29 97       	sbiw	r28, 0x09	; 9
    324a:	7e a9       	ldd	r23, Y+54	; 0x36
    324c:	26 96       	adiw	r28, 0x06	; 6
    324e:	8f ad       	ldd	r24, Y+63	; 0x3f
    3250:	26 97       	sbiw	r28, 0x06	; 6
    3252:	78 1b       	sub	r23, r24
    3254:	2a 96       	adiw	r28, 0x0a	; 10
    3256:	7f af       	std	Y+63, r23	; 0x3f
    3258:	2a 97       	sbiw	r28, 0x0a	; 10
    325a:	91 e0       	ldi	r25, 0x01	; 1
    325c:	2b 96       	adiw	r28, 0x0b	; 11
    325e:	9f af       	std	Y+63, r25	; 0x3f
    3260:	2b 97       	sbiw	r28, 0x0b	; 11
    3262:	2a 96       	adiw	r28, 0x0a	; 10
    3264:	0f ad       	ldd	r16, Y+63	; 0x3f
    3266:	2a 97       	sbiw	r28, 0x0a	; 10
    3268:	1e a9       	ldd	r17, Y+54	; 0x36
    326a:	10 17       	cp	r17, r16
    326c:	18 f0       	brcs	.+6      	; 0x3274 <User_Formula_Input+0x2e6>
    326e:	2b 96       	adiw	r28, 0x0b	; 11
    3270:	1f ae       	std	Y+63, r1	; 0x3f
    3272:	2b 97       	sbiw	r28, 0x0b	; 11
    3274:	29 96       	adiw	r28, 0x09	; 9
    3276:	2f ad       	ldd	r18, Y+63	; 0x3f
    3278:	29 97       	sbiw	r28, 0x09	; 9
    327a:	2b 96       	adiw	r28, 0x0b	; 11
    327c:	3f ad       	ldd	r19, Y+63	; 0x3f
    327e:	2b 97       	sbiw	r28, 0x0b	; 11
    3280:	23 2b       	or	r18, r19
    3282:	29 96       	adiw	r28, 0x09	; 9
    3284:	2f af       	std	Y+63, r18	; 0x3f
    3286:	29 97       	sbiw	r28, 0x09	; 9
    3288:	2a 96       	adiw	r28, 0x0a	; 10
    328a:	4f ad       	ldd	r20, Y+63	; 0x3f
    328c:	2a 97       	sbiw	r28, 0x0a	; 10
    328e:	4e ab       	std	Y+54, r20	; 0x36
    3290:	5f a5       	ldd	r21, Y+47	; 0x2f
    3292:	6c a1       	ldd	r22, Y+36	; 0x24
    3294:	56 1b       	sub	r21, r22
    3296:	5f ab       	std	Y+55, r21	; 0x37
    3298:	8f a9       	ldd	r24, Y+55	; 0x37
    329a:	29 96       	adiw	r28, 0x09	; 9
    329c:	7f ad       	ldd	r23, Y+63	; 0x3f
    329e:	29 97       	sbiw	r28, 0x09	; 9
    32a0:	87 1b       	sub	r24, r23
    32a2:	8f ab       	std	Y+55, r24	; 0x37
    32a4:	28 a9       	ldd	r18, Y+48	; 0x30
    32a6:	39 a9       	ldd	r19, Y+49	; 0x31
    32a8:	4a a9       	ldd	r20, Y+50	; 0x32
    32aa:	5b a9       	ldd	r21, Y+51	; 0x33
    32ac:	6c a9       	ldd	r22, Y+52	; 0x34
    32ae:	7d a9       	ldd	r23, Y+53	; 0x35
    32b0:	8e a9       	ldd	r24, Y+54	; 0x36
    32b2:	9f a9       	ldd	r25, Y+55	; 0x37
    32b4:	ed a1       	ldd	r30, Y+37	; 0x25
    32b6:	fe a1       	ldd	r31, Y+38	; 0x26
    32b8:	ee 0f       	add	r30, r30
    32ba:	ff 1f       	adc	r31, r31
    32bc:	ee 0f       	add	r30, r30
    32be:	ff 1f       	adc	r31, r31
    32c0:	ee 0f       	add	r30, r30
    32c2:	ff 1f       	adc	r31, r31
    32c4:	ea 53       	subi	r30, 0x3A	; 58
    32c6:	fe 4f       	sbci	r31, 0xFE	; 254
    32c8:	20 83       	st	Z, r18
    32ca:	31 83       	std	Z+1, r19	; 0x01
    32cc:	42 83       	std	Z+2, r20	; 0x02
    32ce:	53 83       	std	Z+3, r21	; 0x03
    32d0:	64 83       	std	Z+4, r22	; 0x04
    32d2:	75 83       	std	Z+5, r23	; 0x05
    32d4:	86 83       	std	Z+6, r24	; 0x06
    32d6:	97 83       	std	Z+7, r25	; 0x07
    32d8:	8f a1       	ldd	r24, Y+39	; 0x27
    32da:	8f 5f       	subi	r24, 0xFF	; 255
    32dc:	80 93 b9 03 	sts	0x03B9, r24
				neg_flag = 0;
    32e0:	19 82       	std	Y+1, r1	; 0x01
    32e2:	36 c0       	rjmp	.+108    	; 0x3350 <User_Formula_Input+0x3c2>
			}
			else
			{
				operations[operations_counter++] = input;
    32e4:	30 91 b8 03 	lds	r19, 0x03B8
    32e8:	83 2f       	mov	r24, r19
    32ea:	90 e0       	ldi	r25, 0x00	; 0
    32ec:	20 91 c2 03 	lds	r18, 0x03C2
    32f0:	fc 01       	movw	r30, r24
    32f2:	e2 55       	subi	r30, 0x52	; 82
    32f4:	fc 4f       	sbci	r31, 0xFC	; 252
    32f6:	20 83       	st	Z, r18
    32f8:	83 2f       	mov	r24, r19
    32fa:	8f 5f       	subi	r24, 0xFF	; 255
    32fc:	80 93 b8 03 	sts	0x03B8, r24
				whole_numbers[whole_numbers_counter++] = old_num;
    3300:	a0 91 b9 03 	lds	r26, 0x03B9
    3304:	ea 2f       	mov	r30, r26
    3306:	f0 e0       	ldi	r31, 0x00	; 0
    3308:	20 91 ba 03 	lds	r18, 0x03BA
    330c:	30 91 bb 03 	lds	r19, 0x03BB
    3310:	40 91 bc 03 	lds	r20, 0x03BC
    3314:	50 91 bd 03 	lds	r21, 0x03BD
    3318:	60 91 be 03 	lds	r22, 0x03BE
    331c:	70 91 bf 03 	lds	r23, 0x03BF
    3320:	80 91 c0 03 	lds	r24, 0x03C0
    3324:	90 91 c1 03 	lds	r25, 0x03C1
    3328:	ee 0f       	add	r30, r30
    332a:	ff 1f       	adc	r31, r31
    332c:	ee 0f       	add	r30, r30
    332e:	ff 1f       	adc	r31, r31
    3330:	ee 0f       	add	r30, r30
    3332:	ff 1f       	adc	r31, r31
    3334:	ea 53       	subi	r30, 0x3A	; 58
    3336:	fe 4f       	sbci	r31, 0xFE	; 254
    3338:	20 83       	st	Z, r18
    333a:	31 83       	std	Z+1, r19	; 0x01
    333c:	42 83       	std	Z+2, r20	; 0x02
    333e:	53 83       	std	Z+3, r21	; 0x03
    3340:	64 83       	std	Z+4, r22	; 0x04
    3342:	75 83       	std	Z+5, r23	; 0x05
    3344:	86 83       	std	Z+6, r24	; 0x06
    3346:	97 83       	std	Z+7, r25	; 0x07
    3348:	8a 2f       	mov	r24, r26
    334a:	8f 5f       	subi	r24, 0xFF	; 255
    334c:	80 93 b9 03 	sts	0x03B9, r24
			}
			old_num = 0;
    3350:	10 92 ba 03 	sts	0x03BA, r1
    3354:	10 92 bb 03 	sts	0x03BB, r1
    3358:	10 92 bc 03 	sts	0x03BC, r1
    335c:	10 92 bd 03 	sts	0x03BD, r1
    3360:	10 92 be 03 	sts	0x03BE, r1
    3364:	10 92 bf 03 	sts	0x03BF, r1
    3368:	10 92 c0 03 	sts	0x03C0, r1
    336c:	10 92 c1 03 	sts	0x03C1, r1
    3370:	db c4       	rjmp	.+2486   	; 0x3d28 <User_Formula_Input+0xd9a>
		}
		else if(input == '=')
    3372:	80 91 c2 03 	lds	r24, 0x03C2
    3376:	8d 33       	cpi	r24, 0x3D	; 61
    3378:	f1 f5       	brne	.+124    	; 0x33f6 <User_Formula_Input+0x468>
		{
			whole_numbers[whole_numbers_counter++] = old_num;
    337a:	a0 91 b9 03 	lds	r26, 0x03B9
    337e:	ea 2f       	mov	r30, r26
    3380:	f0 e0       	ldi	r31, 0x00	; 0
    3382:	20 91 ba 03 	lds	r18, 0x03BA
    3386:	30 91 bb 03 	lds	r19, 0x03BB
    338a:	40 91 bc 03 	lds	r20, 0x03BC
    338e:	50 91 bd 03 	lds	r21, 0x03BD
    3392:	60 91 be 03 	lds	r22, 0x03BE
    3396:	70 91 bf 03 	lds	r23, 0x03BF
    339a:	80 91 c0 03 	lds	r24, 0x03C0
    339e:	90 91 c1 03 	lds	r25, 0x03C1
    33a2:	ee 0f       	add	r30, r30
    33a4:	ff 1f       	adc	r31, r31
    33a6:	ee 0f       	add	r30, r30
    33a8:	ff 1f       	adc	r31, r31
    33aa:	ee 0f       	add	r30, r30
    33ac:	ff 1f       	adc	r31, r31
    33ae:	ea 53       	subi	r30, 0x3A	; 58
    33b0:	fe 4f       	sbci	r31, 0xFE	; 254
    33b2:	20 83       	st	Z, r18
    33b4:	31 83       	std	Z+1, r19	; 0x01
    33b6:	42 83       	std	Z+2, r20	; 0x02
    33b8:	53 83       	std	Z+3, r21	; 0x03
    33ba:	64 83       	std	Z+4, r22	; 0x04
    33bc:	75 83       	std	Z+5, r23	; 0x05
    33be:	86 83       	std	Z+6, r24	; 0x06
    33c0:	97 83       	std	Z+7, r25	; 0x07
    33c2:	8a 2f       	mov	r24, r26
    33c4:	8f 5f       	subi	r24, 0xFF	; 255
    33c6:	80 93 b9 03 	sts	0x03B9, r24
			old_num = 0;
    33ca:	10 92 ba 03 	sts	0x03BA, r1
    33ce:	10 92 bb 03 	sts	0x03BB, r1
    33d2:	10 92 bc 03 	sts	0x03BC, r1
    33d6:	10 92 bd 03 	sts	0x03BD, r1
    33da:	10 92 be 03 	sts	0x03BE, r1
    33de:	10 92 bf 03 	sts	0x03BF, r1
    33e2:	10 92 c0 03 	sts	0x03C0, r1
    33e6:	10 92 c1 03 	sts	0x03C1, r1
		{
			old_num = old_num*10UL + ConvertCharToInt(input);
		}
		prev_input = input;
	}
	if(neg_flag)
    33ea:	89 81       	ldd	r24, Y+1	; 0x01
    33ec:	88 23       	and	r24, r24
    33ee:	09 f0       	breq	.+2      	; 0x33f2 <User_Formula_Input+0x464>
    33f0:	9f c4       	rjmp	.+2366   	; 0x3d30 <User_Formula_Input+0xda2>
    33f2:	0c 94 b8 21 	jmp	0x4370	; 0x4370 <User_Formula_Input+0x13e2>
		{
			whole_numbers[whole_numbers_counter++] = old_num;
			old_num = 0;
			break;
		}
		else if(input == 'c')
    33f6:	80 91 c2 03 	lds	r24, 0x03C2
    33fa:	83 36       	cpi	r24, 0x63	; 99
    33fc:	19 f4       	brne	.+6      	; 0x3404 <User_Formula_Input+0x476>
		{
			User_Clearing_Screen();
    33fe:	0e 94 3d 29 	call	0x527a	; 0x527a <User_Clearing_Screen>
    3402:	92 c4       	rjmp	.+2340   	; 0x3d28 <User_Formula_Input+0xd9a>
		}
		else
		{
			old_num = old_num*10UL + ConvertCharToInt(input);
    3404:	20 91 ba 03 	lds	r18, 0x03BA
    3408:	30 91 bb 03 	lds	r19, 0x03BB
    340c:	40 91 bc 03 	lds	r20, 0x03BC
    3410:	50 91 bd 03 	lds	r21, 0x03BD
    3414:	60 91 be 03 	lds	r22, 0x03BE
    3418:	70 91 bf 03 	lds	r23, 0x03BF
    341c:	80 91 c0 03 	lds	r24, 0x03C0
    3420:	90 91 c1 03 	lds	r25, 0x03C1
    3424:	a2 2e       	mov	r10, r18
    3426:	b3 2e       	mov	r11, r19
    3428:	c4 2e       	mov	r12, r20
    342a:	d5 2e       	mov	r13, r21
    342c:	e6 2e       	mov	r14, r22
    342e:	f7 2e       	mov	r15, r23
    3430:	08 2f       	mov	r16, r24
    3432:	19 2f       	mov	r17, r25
    3434:	2a 2d       	mov	r18, r10
    3436:	3b 2d       	mov	r19, r11
    3438:	4c 2d       	mov	r20, r12
    343a:	5d 2d       	mov	r21, r13
    343c:	6e 2d       	mov	r22, r14
    343e:	7f 2d       	mov	r23, r15
    3440:	80 2f       	mov	r24, r16
    3442:	91 2f       	mov	r25, r17
    3444:	01 e0       	ldi	r16, 0x01	; 1
    3446:	0e 94 44 01 	call	0x288	; 0x288 <__ashldi3>
    344a:	2c 96       	adiw	r28, 0x0c	; 12
    344c:	2f af       	std	Y+63, r18	; 0x3f
    344e:	2c 97       	sbiw	r28, 0x0c	; 12
    3450:	2d 96       	adiw	r28, 0x0d	; 13
    3452:	3f af       	std	Y+63, r19	; 0x3f
    3454:	2d 97       	sbiw	r28, 0x0d	; 13
    3456:	2e 96       	adiw	r28, 0x0e	; 14
    3458:	4f af       	std	Y+63, r20	; 0x3f
    345a:	2e 97       	sbiw	r28, 0x0e	; 14
    345c:	2f 96       	adiw	r28, 0x0f	; 15
    345e:	5f af       	std	Y+63, r21	; 0x3f
    3460:	2f 97       	sbiw	r28, 0x0f	; 15
    3462:	60 96       	adiw	r28, 0x10	; 16
    3464:	6f af       	std	Y+63, r22	; 0x3f
    3466:	60 97       	sbiw	r28, 0x10	; 16
    3468:	61 96       	adiw	r28, 0x11	; 17
    346a:	7f af       	std	Y+63, r23	; 0x3f
    346c:	61 97       	sbiw	r28, 0x11	; 17
    346e:	62 96       	adiw	r28, 0x12	; 18
    3470:	8f af       	std	Y+63, r24	; 0x3f
    3472:	62 97       	sbiw	r28, 0x12	; 18
    3474:	63 96       	adiw	r28, 0x13	; 19
    3476:	9f af       	std	Y+63, r25	; 0x3f
    3478:	63 97       	sbiw	r28, 0x13	; 19
    347a:	2c 96       	adiw	r28, 0x0c	; 12
    347c:	2f ad       	ldd	r18, Y+63	; 0x3f
    347e:	2c 97       	sbiw	r28, 0x0c	; 12
    3480:	2d 96       	adiw	r28, 0x0d	; 13
    3482:	3f ad       	ldd	r19, Y+63	; 0x3f
    3484:	2d 97       	sbiw	r28, 0x0d	; 13
    3486:	2e 96       	adiw	r28, 0x0e	; 14
    3488:	4f ad       	ldd	r20, Y+63	; 0x3f
    348a:	2e 97       	sbiw	r28, 0x0e	; 14
    348c:	2f 96       	adiw	r28, 0x0f	; 15
    348e:	5f ad       	ldd	r21, Y+63	; 0x3f
    3490:	2f 97       	sbiw	r28, 0x0f	; 15
    3492:	60 96       	adiw	r28, 0x10	; 16
    3494:	6f ad       	ldd	r22, Y+63	; 0x3f
    3496:	60 97       	sbiw	r28, 0x10	; 16
    3498:	61 96       	adiw	r28, 0x11	; 17
    349a:	7f ad       	ldd	r23, Y+63	; 0x3f
    349c:	61 97       	sbiw	r28, 0x11	; 17
    349e:	62 96       	adiw	r28, 0x12	; 18
    34a0:	8f ad       	ldd	r24, Y+63	; 0x3f
    34a2:	62 97       	sbiw	r28, 0x12	; 18
    34a4:	63 96       	adiw	r28, 0x13	; 19
    34a6:	9f ad       	ldd	r25, Y+63	; 0x3f
    34a8:	63 97       	sbiw	r28, 0x13	; 19
    34aa:	02 e0       	ldi	r16, 0x02	; 2
    34ac:	0e 94 44 01 	call	0x288	; 0x288 <__ashldi3>
    34b0:	64 96       	adiw	r28, 0x14	; 20
    34b2:	2f af       	std	Y+63, r18	; 0x3f
    34b4:	64 97       	sbiw	r28, 0x14	; 20
    34b6:	65 96       	adiw	r28, 0x15	; 21
    34b8:	3f af       	std	Y+63, r19	; 0x3f
    34ba:	65 97       	sbiw	r28, 0x15	; 21
    34bc:	66 96       	adiw	r28, 0x16	; 22
    34be:	4f af       	std	Y+63, r20	; 0x3f
    34c0:	66 97       	sbiw	r28, 0x16	; 22
    34c2:	67 96       	adiw	r28, 0x17	; 23
    34c4:	5f af       	std	Y+63, r21	; 0x3f
    34c6:	67 97       	sbiw	r28, 0x17	; 23
    34c8:	68 96       	adiw	r28, 0x18	; 24
    34ca:	6f af       	std	Y+63, r22	; 0x3f
    34cc:	68 97       	sbiw	r28, 0x18	; 24
    34ce:	69 96       	adiw	r28, 0x19	; 25
    34d0:	7f af       	std	Y+63, r23	; 0x3f
    34d2:	69 97       	sbiw	r28, 0x19	; 25
    34d4:	6a 96       	adiw	r28, 0x1a	; 26
    34d6:	8f af       	std	Y+63, r24	; 0x3f
    34d8:	6a 97       	sbiw	r28, 0x1a	; 26
    34da:	6b 96       	adiw	r28, 0x1b	; 27
    34dc:	9f af       	std	Y+63, r25	; 0x3f
    34de:	6b 97       	sbiw	r28, 0x1b	; 27
    34e0:	2c 96       	adiw	r28, 0x0c	; 12
    34e2:	8f ad       	ldd	r24, Y+63	; 0x3f
    34e4:	2c 97       	sbiw	r28, 0x0c	; 12
    34e6:	64 96       	adiw	r28, 0x14	; 20
    34e8:	9f ad       	ldd	r25, Y+63	; 0x3f
    34ea:	64 97       	sbiw	r28, 0x14	; 20
    34ec:	89 0f       	add	r24, r25
    34ee:	6c 96       	adiw	r28, 0x1c	; 28
    34f0:	8f af       	std	Y+63, r24	; 0x3f
    34f2:	6c 97       	sbiw	r28, 0x1c	; 28
    34f4:	01 e0       	ldi	r16, 0x01	; 1
    34f6:	a4 96       	adiw	r28, 0x24	; 36
    34f8:	0f af       	std	Y+63, r16	; 0x3f
    34fa:	a4 97       	sbiw	r28, 0x24	; 36
    34fc:	6c 96       	adiw	r28, 0x1c	; 28
    34fe:	1f ad       	ldd	r17, Y+63	; 0x3f
    3500:	6c 97       	sbiw	r28, 0x1c	; 28
    3502:	2c 96       	adiw	r28, 0x0c	; 12
    3504:	2f ad       	ldd	r18, Y+63	; 0x3f
    3506:	2c 97       	sbiw	r28, 0x0c	; 12
    3508:	12 17       	cp	r17, r18
    350a:	18 f0       	brcs	.+6      	; 0x3512 <User_Formula_Input+0x584>
    350c:	a4 96       	adiw	r28, 0x24	; 36
    350e:	1f ae       	std	Y+63, r1	; 0x3f
    3510:	a4 97       	sbiw	r28, 0x24	; 36
    3512:	2d 96       	adiw	r28, 0x0d	; 13
    3514:	3f ad       	ldd	r19, Y+63	; 0x3f
    3516:	2d 97       	sbiw	r28, 0x0d	; 13
    3518:	65 96       	adiw	r28, 0x15	; 21
    351a:	4f ad       	ldd	r20, Y+63	; 0x3f
    351c:	65 97       	sbiw	r28, 0x15	; 21
    351e:	34 0f       	add	r19, r20
    3520:	6d 96       	adiw	r28, 0x1d	; 29
    3522:	3f af       	std	Y+63, r19	; 0x3f
    3524:	6d 97       	sbiw	r28, 0x1d	; 29
    3526:	51 e0       	ldi	r21, 0x01	; 1
    3528:	a5 96       	adiw	r28, 0x25	; 37
    352a:	5f af       	std	Y+63, r21	; 0x3f
    352c:	a5 97       	sbiw	r28, 0x25	; 37
    352e:	6d 96       	adiw	r28, 0x1d	; 29
    3530:	6f ad       	ldd	r22, Y+63	; 0x3f
    3532:	6d 97       	sbiw	r28, 0x1d	; 29
    3534:	2d 96       	adiw	r28, 0x0d	; 13
    3536:	7f ad       	ldd	r23, Y+63	; 0x3f
    3538:	2d 97       	sbiw	r28, 0x0d	; 13
    353a:	67 17       	cp	r22, r23
    353c:	18 f0       	brcs	.+6      	; 0x3544 <User_Formula_Input+0x5b6>
    353e:	a5 96       	adiw	r28, 0x25	; 37
    3540:	1f ae       	std	Y+63, r1	; 0x3f
    3542:	a5 97       	sbiw	r28, 0x25	; 37
    3544:	a4 96       	adiw	r28, 0x24	; 36
    3546:	8f ad       	ldd	r24, Y+63	; 0x3f
    3548:	a4 97       	sbiw	r28, 0x24	; 36
    354a:	6d 96       	adiw	r28, 0x1d	; 29
    354c:	9f ad       	ldd	r25, Y+63	; 0x3f
    354e:	6d 97       	sbiw	r28, 0x1d	; 29
    3550:	89 0f       	add	r24, r25
    3552:	a6 96       	adiw	r28, 0x26	; 38
    3554:	8f af       	std	Y+63, r24	; 0x3f
    3556:	a6 97       	sbiw	r28, 0x26	; 38
    3558:	01 e0       	ldi	r16, 0x01	; 1
    355a:	a7 96       	adiw	r28, 0x27	; 39
    355c:	0f af       	std	Y+63, r16	; 0x3f
    355e:	a7 97       	sbiw	r28, 0x27	; 39
    3560:	a6 96       	adiw	r28, 0x26	; 38
    3562:	1f ad       	ldd	r17, Y+63	; 0x3f
    3564:	a6 97       	sbiw	r28, 0x26	; 38
    3566:	6d 96       	adiw	r28, 0x1d	; 29
    3568:	2f ad       	ldd	r18, Y+63	; 0x3f
    356a:	6d 97       	sbiw	r28, 0x1d	; 29
    356c:	12 17       	cp	r17, r18
    356e:	18 f0       	brcs	.+6      	; 0x3576 <User_Formula_Input+0x5e8>
    3570:	a7 96       	adiw	r28, 0x27	; 39
    3572:	1f ae       	std	Y+63, r1	; 0x3f
    3574:	a7 97       	sbiw	r28, 0x27	; 39
    3576:	a5 96       	adiw	r28, 0x25	; 37
    3578:	3f ad       	ldd	r19, Y+63	; 0x3f
    357a:	a5 97       	sbiw	r28, 0x25	; 37
    357c:	a7 96       	adiw	r28, 0x27	; 39
    357e:	4f ad       	ldd	r20, Y+63	; 0x3f
    3580:	a7 97       	sbiw	r28, 0x27	; 39
    3582:	34 2b       	or	r19, r20
    3584:	a5 96       	adiw	r28, 0x25	; 37
    3586:	3f af       	std	Y+63, r19	; 0x3f
    3588:	a5 97       	sbiw	r28, 0x25	; 37
    358a:	a6 96       	adiw	r28, 0x26	; 38
    358c:	5f ad       	ldd	r21, Y+63	; 0x3f
    358e:	a6 97       	sbiw	r28, 0x26	; 38
    3590:	6d 96       	adiw	r28, 0x1d	; 29
    3592:	5f af       	std	Y+63, r21	; 0x3f
    3594:	6d 97       	sbiw	r28, 0x1d	; 29
    3596:	2e 96       	adiw	r28, 0x0e	; 14
    3598:	6f ad       	ldd	r22, Y+63	; 0x3f
    359a:	2e 97       	sbiw	r28, 0x0e	; 14
    359c:	66 96       	adiw	r28, 0x16	; 22
    359e:	7f ad       	ldd	r23, Y+63	; 0x3f
    35a0:	66 97       	sbiw	r28, 0x16	; 22
    35a2:	67 0f       	add	r22, r23
    35a4:	6e 96       	adiw	r28, 0x1e	; 30
    35a6:	6f af       	std	Y+63, r22	; 0x3f
    35a8:	6e 97       	sbiw	r28, 0x1e	; 30
    35aa:	81 e0       	ldi	r24, 0x01	; 1
    35ac:	a8 96       	adiw	r28, 0x28	; 40
    35ae:	8f af       	std	Y+63, r24	; 0x3f
    35b0:	a8 97       	sbiw	r28, 0x28	; 40
    35b2:	6e 96       	adiw	r28, 0x1e	; 30
    35b4:	9f ad       	ldd	r25, Y+63	; 0x3f
    35b6:	6e 97       	sbiw	r28, 0x1e	; 30
    35b8:	2e 96       	adiw	r28, 0x0e	; 14
    35ba:	0f ad       	ldd	r16, Y+63	; 0x3f
    35bc:	2e 97       	sbiw	r28, 0x0e	; 14
    35be:	90 17       	cp	r25, r16
    35c0:	18 f0       	brcs	.+6      	; 0x35c8 <User_Formula_Input+0x63a>
    35c2:	a8 96       	adiw	r28, 0x28	; 40
    35c4:	1f ae       	std	Y+63, r1	; 0x3f
    35c6:	a8 97       	sbiw	r28, 0x28	; 40
    35c8:	a5 96       	adiw	r28, 0x25	; 37
    35ca:	1f ad       	ldd	r17, Y+63	; 0x3f
    35cc:	a5 97       	sbiw	r28, 0x25	; 37
    35ce:	6e 96       	adiw	r28, 0x1e	; 30
    35d0:	2f ad       	ldd	r18, Y+63	; 0x3f
    35d2:	6e 97       	sbiw	r28, 0x1e	; 30
    35d4:	12 0f       	add	r17, r18
    35d6:	a9 96       	adiw	r28, 0x29	; 41
    35d8:	1f af       	std	Y+63, r17	; 0x3f
    35da:	a9 97       	sbiw	r28, 0x29	; 41
    35dc:	31 e0       	ldi	r19, 0x01	; 1
    35de:	aa 96       	adiw	r28, 0x2a	; 42
    35e0:	3f af       	std	Y+63, r19	; 0x3f
    35e2:	aa 97       	sbiw	r28, 0x2a	; 42
    35e4:	a9 96       	adiw	r28, 0x29	; 41
    35e6:	4f ad       	ldd	r20, Y+63	; 0x3f
    35e8:	a9 97       	sbiw	r28, 0x29	; 41
    35ea:	6e 96       	adiw	r28, 0x1e	; 30
    35ec:	5f ad       	ldd	r21, Y+63	; 0x3f
    35ee:	6e 97       	sbiw	r28, 0x1e	; 30
    35f0:	45 17       	cp	r20, r21
    35f2:	18 f0       	brcs	.+6      	; 0x35fa <User_Formula_Input+0x66c>
    35f4:	aa 96       	adiw	r28, 0x2a	; 42
    35f6:	1f ae       	std	Y+63, r1	; 0x3f
    35f8:	aa 97       	sbiw	r28, 0x2a	; 42
    35fa:	a8 96       	adiw	r28, 0x28	; 40
    35fc:	6f ad       	ldd	r22, Y+63	; 0x3f
    35fe:	a8 97       	sbiw	r28, 0x28	; 40
    3600:	aa 96       	adiw	r28, 0x2a	; 42
    3602:	7f ad       	ldd	r23, Y+63	; 0x3f
    3604:	aa 97       	sbiw	r28, 0x2a	; 42
    3606:	67 2b       	or	r22, r23
    3608:	a8 96       	adiw	r28, 0x28	; 40
    360a:	6f af       	std	Y+63, r22	; 0x3f
    360c:	a8 97       	sbiw	r28, 0x28	; 40
    360e:	a9 96       	adiw	r28, 0x29	; 41
    3610:	8f ad       	ldd	r24, Y+63	; 0x3f
    3612:	a9 97       	sbiw	r28, 0x29	; 41
    3614:	6e 96       	adiw	r28, 0x1e	; 30
    3616:	8f af       	std	Y+63, r24	; 0x3f
    3618:	6e 97       	sbiw	r28, 0x1e	; 30
    361a:	2f 96       	adiw	r28, 0x0f	; 15
    361c:	9f ad       	ldd	r25, Y+63	; 0x3f
    361e:	2f 97       	sbiw	r28, 0x0f	; 15
    3620:	67 96       	adiw	r28, 0x17	; 23
    3622:	0f ad       	ldd	r16, Y+63	; 0x3f
    3624:	67 97       	sbiw	r28, 0x17	; 23
    3626:	90 0f       	add	r25, r16
    3628:	6f 96       	adiw	r28, 0x1f	; 31
    362a:	9f af       	std	Y+63, r25	; 0x3f
    362c:	6f 97       	sbiw	r28, 0x1f	; 31
    362e:	11 e0       	ldi	r17, 0x01	; 1
    3630:	ab 96       	adiw	r28, 0x2b	; 43
    3632:	1f af       	std	Y+63, r17	; 0x3f
    3634:	ab 97       	sbiw	r28, 0x2b	; 43
    3636:	6f 96       	adiw	r28, 0x1f	; 31
    3638:	2f ad       	ldd	r18, Y+63	; 0x3f
    363a:	6f 97       	sbiw	r28, 0x1f	; 31
    363c:	2f 96       	adiw	r28, 0x0f	; 15
    363e:	3f ad       	ldd	r19, Y+63	; 0x3f
    3640:	2f 97       	sbiw	r28, 0x0f	; 15
    3642:	23 17       	cp	r18, r19
    3644:	18 f0       	brcs	.+6      	; 0x364c <User_Formula_Input+0x6be>
    3646:	ab 96       	adiw	r28, 0x2b	; 43
    3648:	1f ae       	std	Y+63, r1	; 0x3f
    364a:	ab 97       	sbiw	r28, 0x2b	; 43
    364c:	a8 96       	adiw	r28, 0x28	; 40
    364e:	4f ad       	ldd	r20, Y+63	; 0x3f
    3650:	a8 97       	sbiw	r28, 0x28	; 40
    3652:	6f 96       	adiw	r28, 0x1f	; 31
    3654:	5f ad       	ldd	r21, Y+63	; 0x3f
    3656:	6f 97       	sbiw	r28, 0x1f	; 31
    3658:	45 0f       	add	r20, r21
    365a:	ac 96       	adiw	r28, 0x2c	; 44
    365c:	4f af       	std	Y+63, r20	; 0x3f
    365e:	ac 97       	sbiw	r28, 0x2c	; 44
    3660:	61 e0       	ldi	r22, 0x01	; 1
    3662:	ad 96       	adiw	r28, 0x2d	; 45
    3664:	6f af       	std	Y+63, r22	; 0x3f
    3666:	ad 97       	sbiw	r28, 0x2d	; 45
    3668:	ac 96       	adiw	r28, 0x2c	; 44
    366a:	7f ad       	ldd	r23, Y+63	; 0x3f
    366c:	ac 97       	sbiw	r28, 0x2c	; 44
    366e:	6f 96       	adiw	r28, 0x1f	; 31
    3670:	8f ad       	ldd	r24, Y+63	; 0x3f
    3672:	6f 97       	sbiw	r28, 0x1f	; 31
    3674:	78 17       	cp	r23, r24
    3676:	18 f0       	brcs	.+6      	; 0x367e <User_Formula_Input+0x6f0>
    3678:	ad 96       	adiw	r28, 0x2d	; 45
    367a:	1f ae       	std	Y+63, r1	; 0x3f
    367c:	ad 97       	sbiw	r28, 0x2d	; 45
    367e:	ab 96       	adiw	r28, 0x2b	; 43
    3680:	9f ad       	ldd	r25, Y+63	; 0x3f
    3682:	ab 97       	sbiw	r28, 0x2b	; 43
    3684:	ad 96       	adiw	r28, 0x2d	; 45
    3686:	0f ad       	ldd	r16, Y+63	; 0x3f
    3688:	ad 97       	sbiw	r28, 0x2d	; 45
    368a:	90 2b       	or	r25, r16
    368c:	ab 96       	adiw	r28, 0x2b	; 43
    368e:	9f af       	std	Y+63, r25	; 0x3f
    3690:	ab 97       	sbiw	r28, 0x2b	; 43
    3692:	ac 96       	adiw	r28, 0x2c	; 44
    3694:	1f ad       	ldd	r17, Y+63	; 0x3f
    3696:	ac 97       	sbiw	r28, 0x2c	; 44
    3698:	6f 96       	adiw	r28, 0x1f	; 31
    369a:	1f af       	std	Y+63, r17	; 0x3f
    369c:	6f 97       	sbiw	r28, 0x1f	; 31
    369e:	60 96       	adiw	r28, 0x10	; 16
    36a0:	2f ad       	ldd	r18, Y+63	; 0x3f
    36a2:	60 97       	sbiw	r28, 0x10	; 16
    36a4:	68 96       	adiw	r28, 0x18	; 24
    36a6:	3f ad       	ldd	r19, Y+63	; 0x3f
    36a8:	68 97       	sbiw	r28, 0x18	; 24
    36aa:	23 0f       	add	r18, r19
    36ac:	a0 96       	adiw	r28, 0x20	; 32
    36ae:	2f af       	std	Y+63, r18	; 0x3f
    36b0:	a0 97       	sbiw	r28, 0x20	; 32
    36b2:	41 e0       	ldi	r20, 0x01	; 1
    36b4:	ae 96       	adiw	r28, 0x2e	; 46
    36b6:	4f af       	std	Y+63, r20	; 0x3f
    36b8:	ae 97       	sbiw	r28, 0x2e	; 46
    36ba:	a0 96       	adiw	r28, 0x20	; 32
    36bc:	5f ad       	ldd	r21, Y+63	; 0x3f
    36be:	a0 97       	sbiw	r28, 0x20	; 32
    36c0:	60 96       	adiw	r28, 0x10	; 16
    36c2:	6f ad       	ldd	r22, Y+63	; 0x3f
    36c4:	60 97       	sbiw	r28, 0x10	; 16
    36c6:	56 17       	cp	r21, r22
    36c8:	18 f0       	brcs	.+6      	; 0x36d0 <User_Formula_Input+0x742>
    36ca:	ae 96       	adiw	r28, 0x2e	; 46
    36cc:	1f ae       	std	Y+63, r1	; 0x3f
    36ce:	ae 97       	sbiw	r28, 0x2e	; 46
    36d0:	ab 96       	adiw	r28, 0x2b	; 43
    36d2:	7f ad       	ldd	r23, Y+63	; 0x3f
    36d4:	ab 97       	sbiw	r28, 0x2b	; 43
    36d6:	a0 96       	adiw	r28, 0x20	; 32
    36d8:	8f ad       	ldd	r24, Y+63	; 0x3f
    36da:	a0 97       	sbiw	r28, 0x20	; 32
    36dc:	78 0f       	add	r23, r24
    36de:	af 96       	adiw	r28, 0x2f	; 47
    36e0:	7f af       	std	Y+63, r23	; 0x3f
    36e2:	af 97       	sbiw	r28, 0x2f	; 47
    36e4:	91 e0       	ldi	r25, 0x01	; 1
    36e6:	e0 96       	adiw	r28, 0x30	; 48
    36e8:	9f af       	std	Y+63, r25	; 0x3f
    36ea:	e0 97       	sbiw	r28, 0x30	; 48
    36ec:	af 96       	adiw	r28, 0x2f	; 47
    36ee:	0f ad       	ldd	r16, Y+63	; 0x3f
    36f0:	af 97       	sbiw	r28, 0x2f	; 47
    36f2:	a0 96       	adiw	r28, 0x20	; 32
    36f4:	1f ad       	ldd	r17, Y+63	; 0x3f
    36f6:	a0 97       	sbiw	r28, 0x20	; 32
    36f8:	01 17       	cp	r16, r17
    36fa:	18 f0       	brcs	.+6      	; 0x3702 <User_Formula_Input+0x774>
    36fc:	e0 96       	adiw	r28, 0x30	; 48
    36fe:	1f ae       	std	Y+63, r1	; 0x3f
    3700:	e0 97       	sbiw	r28, 0x30	; 48
    3702:	ae 96       	adiw	r28, 0x2e	; 46
    3704:	2f ad       	ldd	r18, Y+63	; 0x3f
    3706:	ae 97       	sbiw	r28, 0x2e	; 46
    3708:	e0 96       	adiw	r28, 0x30	; 48
    370a:	3f ad       	ldd	r19, Y+63	; 0x3f
    370c:	e0 97       	sbiw	r28, 0x30	; 48
    370e:	23 2b       	or	r18, r19
    3710:	ae 96       	adiw	r28, 0x2e	; 46
    3712:	2f af       	std	Y+63, r18	; 0x3f
    3714:	ae 97       	sbiw	r28, 0x2e	; 46
    3716:	af 96       	adiw	r28, 0x2f	; 47
    3718:	4f ad       	ldd	r20, Y+63	; 0x3f
    371a:	af 97       	sbiw	r28, 0x2f	; 47
    371c:	a0 96       	adiw	r28, 0x20	; 32
    371e:	4f af       	std	Y+63, r20	; 0x3f
    3720:	a0 97       	sbiw	r28, 0x20	; 32
    3722:	61 96       	adiw	r28, 0x11	; 17
    3724:	5f ad       	ldd	r21, Y+63	; 0x3f
    3726:	61 97       	sbiw	r28, 0x11	; 17
    3728:	69 96       	adiw	r28, 0x19	; 25
    372a:	6f ad       	ldd	r22, Y+63	; 0x3f
    372c:	69 97       	sbiw	r28, 0x19	; 25
    372e:	56 0f       	add	r21, r22
    3730:	a1 96       	adiw	r28, 0x21	; 33
    3732:	5f af       	std	Y+63, r21	; 0x3f
    3734:	a1 97       	sbiw	r28, 0x21	; 33
    3736:	71 e0       	ldi	r23, 0x01	; 1
    3738:	e1 96       	adiw	r28, 0x31	; 49
    373a:	7f af       	std	Y+63, r23	; 0x3f
    373c:	e1 97       	sbiw	r28, 0x31	; 49
    373e:	a1 96       	adiw	r28, 0x21	; 33
    3740:	8f ad       	ldd	r24, Y+63	; 0x3f
    3742:	a1 97       	sbiw	r28, 0x21	; 33
    3744:	61 96       	adiw	r28, 0x11	; 17
    3746:	9f ad       	ldd	r25, Y+63	; 0x3f
    3748:	61 97       	sbiw	r28, 0x11	; 17
    374a:	89 17       	cp	r24, r25
    374c:	18 f0       	brcs	.+6      	; 0x3754 <User_Formula_Input+0x7c6>
    374e:	e1 96       	adiw	r28, 0x31	; 49
    3750:	1f ae       	std	Y+63, r1	; 0x3f
    3752:	e1 97       	sbiw	r28, 0x31	; 49
    3754:	ae 96       	adiw	r28, 0x2e	; 46
    3756:	0f ad       	ldd	r16, Y+63	; 0x3f
    3758:	ae 97       	sbiw	r28, 0x2e	; 46
    375a:	a1 96       	adiw	r28, 0x21	; 33
    375c:	1f ad       	ldd	r17, Y+63	; 0x3f
    375e:	a1 97       	sbiw	r28, 0x21	; 33
    3760:	01 0f       	add	r16, r17
    3762:	e2 96       	adiw	r28, 0x32	; 50
    3764:	0f af       	std	Y+63, r16	; 0x3f
    3766:	e2 97       	sbiw	r28, 0x32	; 50
    3768:	21 e0       	ldi	r18, 0x01	; 1
    376a:	e3 96       	adiw	r28, 0x33	; 51
    376c:	2f af       	std	Y+63, r18	; 0x3f
    376e:	e3 97       	sbiw	r28, 0x33	; 51
    3770:	e2 96       	adiw	r28, 0x32	; 50
    3772:	3f ad       	ldd	r19, Y+63	; 0x3f
    3774:	e2 97       	sbiw	r28, 0x32	; 50
    3776:	a1 96       	adiw	r28, 0x21	; 33
    3778:	4f ad       	ldd	r20, Y+63	; 0x3f
    377a:	a1 97       	sbiw	r28, 0x21	; 33
    377c:	34 17       	cp	r19, r20
    377e:	18 f0       	brcs	.+6      	; 0x3786 <User_Formula_Input+0x7f8>
    3780:	e3 96       	adiw	r28, 0x33	; 51
    3782:	1f ae       	std	Y+63, r1	; 0x3f
    3784:	e3 97       	sbiw	r28, 0x33	; 51
    3786:	e1 96       	adiw	r28, 0x31	; 49
    3788:	5f ad       	ldd	r21, Y+63	; 0x3f
    378a:	e1 97       	sbiw	r28, 0x31	; 49
    378c:	e3 96       	adiw	r28, 0x33	; 51
    378e:	6f ad       	ldd	r22, Y+63	; 0x3f
    3790:	e3 97       	sbiw	r28, 0x33	; 51
    3792:	56 2b       	or	r21, r22
    3794:	e1 96       	adiw	r28, 0x31	; 49
    3796:	5f af       	std	Y+63, r21	; 0x3f
    3798:	e1 97       	sbiw	r28, 0x31	; 49
    379a:	e2 96       	adiw	r28, 0x32	; 50
    379c:	7f ad       	ldd	r23, Y+63	; 0x3f
    379e:	e2 97       	sbiw	r28, 0x32	; 50
    37a0:	a1 96       	adiw	r28, 0x21	; 33
    37a2:	7f af       	std	Y+63, r23	; 0x3f
    37a4:	a1 97       	sbiw	r28, 0x21	; 33
    37a6:	62 96       	adiw	r28, 0x12	; 18
    37a8:	8f ad       	ldd	r24, Y+63	; 0x3f
    37aa:	62 97       	sbiw	r28, 0x12	; 18
    37ac:	6a 96       	adiw	r28, 0x1a	; 26
    37ae:	9f ad       	ldd	r25, Y+63	; 0x3f
    37b0:	6a 97       	sbiw	r28, 0x1a	; 26
    37b2:	89 0f       	add	r24, r25
    37b4:	a2 96       	adiw	r28, 0x22	; 34
    37b6:	8f af       	std	Y+63, r24	; 0x3f
    37b8:	a2 97       	sbiw	r28, 0x22	; 34
    37ba:	01 e0       	ldi	r16, 0x01	; 1
    37bc:	e4 96       	adiw	r28, 0x34	; 52
    37be:	0f af       	std	Y+63, r16	; 0x3f
    37c0:	e4 97       	sbiw	r28, 0x34	; 52
    37c2:	a2 96       	adiw	r28, 0x22	; 34
    37c4:	1f ad       	ldd	r17, Y+63	; 0x3f
    37c6:	a2 97       	sbiw	r28, 0x22	; 34
    37c8:	62 96       	adiw	r28, 0x12	; 18
    37ca:	2f ad       	ldd	r18, Y+63	; 0x3f
    37cc:	62 97       	sbiw	r28, 0x12	; 18
    37ce:	12 17       	cp	r17, r18
    37d0:	18 f0       	brcs	.+6      	; 0x37d8 <User_Formula_Input+0x84a>
    37d2:	e4 96       	adiw	r28, 0x34	; 52
    37d4:	1f ae       	std	Y+63, r1	; 0x3f
    37d6:	e4 97       	sbiw	r28, 0x34	; 52
    37d8:	e1 96       	adiw	r28, 0x31	; 49
    37da:	3f ad       	ldd	r19, Y+63	; 0x3f
    37dc:	e1 97       	sbiw	r28, 0x31	; 49
    37de:	a2 96       	adiw	r28, 0x22	; 34
    37e0:	4f ad       	ldd	r20, Y+63	; 0x3f
    37e2:	a2 97       	sbiw	r28, 0x22	; 34
    37e4:	34 0f       	add	r19, r20
    37e6:	e5 96       	adiw	r28, 0x35	; 53
    37e8:	3f af       	std	Y+63, r19	; 0x3f
    37ea:	e5 97       	sbiw	r28, 0x35	; 53
    37ec:	51 e0       	ldi	r21, 0x01	; 1
    37ee:	e6 96       	adiw	r28, 0x36	; 54
    37f0:	5f af       	std	Y+63, r21	; 0x3f
    37f2:	e6 97       	sbiw	r28, 0x36	; 54
    37f4:	e5 96       	adiw	r28, 0x35	; 53
    37f6:	6f ad       	ldd	r22, Y+63	; 0x3f
    37f8:	e5 97       	sbiw	r28, 0x35	; 53
    37fa:	a2 96       	adiw	r28, 0x22	; 34
    37fc:	7f ad       	ldd	r23, Y+63	; 0x3f
    37fe:	a2 97       	sbiw	r28, 0x22	; 34
    3800:	67 17       	cp	r22, r23
    3802:	18 f0       	brcs	.+6      	; 0x380a <User_Formula_Input+0x87c>
    3804:	e6 96       	adiw	r28, 0x36	; 54
    3806:	1f ae       	std	Y+63, r1	; 0x3f
    3808:	e6 97       	sbiw	r28, 0x36	; 54
    380a:	e4 96       	adiw	r28, 0x34	; 52
    380c:	8f ad       	ldd	r24, Y+63	; 0x3f
    380e:	e4 97       	sbiw	r28, 0x34	; 52
    3810:	e6 96       	adiw	r28, 0x36	; 54
    3812:	9f ad       	ldd	r25, Y+63	; 0x3f
    3814:	e6 97       	sbiw	r28, 0x36	; 54
    3816:	89 2b       	or	r24, r25
    3818:	e4 96       	adiw	r28, 0x34	; 52
    381a:	8f af       	std	Y+63, r24	; 0x3f
    381c:	e4 97       	sbiw	r28, 0x34	; 52
    381e:	e5 96       	adiw	r28, 0x35	; 53
    3820:	0f ad       	ldd	r16, Y+63	; 0x3f
    3822:	e5 97       	sbiw	r28, 0x35	; 53
    3824:	a2 96       	adiw	r28, 0x22	; 34
    3826:	0f af       	std	Y+63, r16	; 0x3f
    3828:	a2 97       	sbiw	r28, 0x22	; 34
    382a:	63 96       	adiw	r28, 0x13	; 19
    382c:	1f ad       	ldd	r17, Y+63	; 0x3f
    382e:	63 97       	sbiw	r28, 0x13	; 19
    3830:	6b 96       	adiw	r28, 0x1b	; 27
    3832:	2f ad       	ldd	r18, Y+63	; 0x3f
    3834:	6b 97       	sbiw	r28, 0x1b	; 27
    3836:	12 0f       	add	r17, r18
    3838:	a3 96       	adiw	r28, 0x23	; 35
    383a:	1f af       	std	Y+63, r17	; 0x3f
    383c:	a3 97       	sbiw	r28, 0x23	; 35
    383e:	e4 96       	adiw	r28, 0x34	; 52
    3840:	8f ad       	ldd	r24, Y+63	; 0x3f
    3842:	e4 97       	sbiw	r28, 0x34	; 52
    3844:	a3 96       	adiw	r28, 0x23	; 35
    3846:	3f ad       	ldd	r19, Y+63	; 0x3f
    3848:	a3 97       	sbiw	r28, 0x23	; 35
    384a:	83 0f       	add	r24, r19
    384c:	a3 96       	adiw	r28, 0x23	; 35
    384e:	8f af       	std	Y+63, r24	; 0x3f
    3850:	a3 97       	sbiw	r28, 0x23	; 35
    3852:	6c 96       	adiw	r28, 0x1c	; 28
    3854:	4f ad       	ldd	r20, Y+63	; 0x3f
    3856:	6c 97       	sbiw	r28, 0x1c	; 28
    3858:	4d 8b       	std	Y+21, r20	; 0x15
    385a:	6d 96       	adiw	r28, 0x1d	; 29
    385c:	5f ad       	ldd	r21, Y+63	; 0x3f
    385e:	6d 97       	sbiw	r28, 0x1d	; 29
    3860:	5e 8b       	std	Y+22, r21	; 0x16
    3862:	6e 96       	adiw	r28, 0x1e	; 30
    3864:	6f ad       	ldd	r22, Y+63	; 0x3f
    3866:	6e 97       	sbiw	r28, 0x1e	; 30
    3868:	6f 8b       	std	Y+23, r22	; 0x17
    386a:	6f 96       	adiw	r28, 0x1f	; 31
    386c:	7f ad       	ldd	r23, Y+63	; 0x3f
    386e:	6f 97       	sbiw	r28, 0x1f	; 31
    3870:	78 8f       	std	Y+24, r23	; 0x18
    3872:	a0 96       	adiw	r28, 0x20	; 32
    3874:	8f ad       	ldd	r24, Y+63	; 0x3f
    3876:	a0 97       	sbiw	r28, 0x20	; 32
    3878:	89 8f       	std	Y+25, r24	; 0x19
    387a:	a1 96       	adiw	r28, 0x21	; 33
    387c:	9f ad       	ldd	r25, Y+63	; 0x3f
    387e:	a1 97       	sbiw	r28, 0x21	; 33
    3880:	9a 8f       	std	Y+26, r25	; 0x1a
    3882:	a2 96       	adiw	r28, 0x22	; 34
    3884:	0f ad       	ldd	r16, Y+63	; 0x3f
    3886:	a2 97       	sbiw	r28, 0x22	; 34
    3888:	0b 8f       	std	Y+27, r16	; 0x1b
    388a:	a3 96       	adiw	r28, 0x23	; 35
    388c:	1f ad       	ldd	r17, Y+63	; 0x3f
    388e:	a3 97       	sbiw	r28, 0x23	; 35
    3890:	1c 8f       	std	Y+28, r17	; 0x1c
    3892:	80 91 c2 03 	lds	r24, 0x03C2
    3896:	0e 94 a8 17 	call	0x2f50	; 0x2f50 <ConvertCharToInt>
    389a:	08 2f       	mov	r16, r24
    389c:	10 e0       	ldi	r17, 0x00	; 0
    389e:	20 e0       	ldi	r18, 0x00	; 0
    38a0:	30 e0       	ldi	r19, 0x00	; 0
    38a2:	40 e0       	ldi	r20, 0x00	; 0
    38a4:	50 e0       	ldi	r21, 0x00	; 0
    38a6:	60 e0       	ldi	r22, 0x00	; 0
    38a8:	70 e0       	ldi	r23, 0x00	; 0
    38aa:	0d 87       	std	Y+13, r16	; 0x0d
    38ac:	1e 87       	std	Y+14, r17	; 0x0e
    38ae:	2f 87       	std	Y+15, r18	; 0x0f
    38b0:	38 8b       	std	Y+16, r19	; 0x10
    38b2:	49 8b       	std	Y+17, r20	; 0x11
    38b4:	5a 8b       	std	Y+18, r21	; 0x12
    38b6:	6b 8b       	std	Y+19, r22	; 0x13
    38b8:	7c 8b       	std	Y+20, r23	; 0x14
    38ba:	1d 89       	ldd	r17, Y+21	; 0x15
    38bc:	2d 85       	ldd	r18, Y+13	; 0x0d
    38be:	12 0f       	add	r17, r18
    38c0:	e7 96       	adiw	r28, 0x37	; 55
    38c2:	1f af       	std	Y+63, r17	; 0x3f
    38c4:	e7 97       	sbiw	r28, 0x37	; 55
    38c6:	31 e0       	ldi	r19, 0x01	; 1
    38c8:	ef 96       	adiw	r28, 0x3f	; 63
    38ca:	3f af       	std	Y+63, r19	; 0x3f
    38cc:	ef 97       	sbiw	r28, 0x3f	; 63
    38ce:	e7 96       	adiw	r28, 0x37	; 55
    38d0:	4f ad       	ldd	r20, Y+63	; 0x3f
    38d2:	e7 97       	sbiw	r28, 0x37	; 55
    38d4:	5d 89       	ldd	r21, Y+21	; 0x15
    38d6:	45 17       	cp	r20, r21
    38d8:	18 f0       	brcs	.+6      	; 0x38e0 <User_Formula_Input+0x952>
    38da:	ef 96       	adiw	r28, 0x3f	; 63
    38dc:	1f ae       	std	Y+63, r1	; 0x3f
    38de:	ef 97       	sbiw	r28, 0x3f	; 63
    38e0:	6e 89       	ldd	r22, Y+22	; 0x16
    38e2:	7e 85       	ldd	r23, Y+14	; 0x0e
    38e4:	67 0f       	add	r22, r23
    38e6:	e8 96       	adiw	r28, 0x38	; 56
    38e8:	6f af       	std	Y+63, r22	; 0x3f
    38ea:	e8 97       	sbiw	r28, 0x38	; 56
    38ec:	81 e0       	ldi	r24, 0x01	; 1
    38ee:	c1 58       	subi	r28, 0x81	; 129
    38f0:	df 4f       	sbci	r29, 0xFF	; 255
    38f2:	88 83       	st	Y, r24
    38f4:	cf 57       	subi	r28, 0x7F	; 127
    38f6:	d0 40       	sbci	r29, 0x00	; 0
    38f8:	e8 96       	adiw	r28, 0x38	; 56
    38fa:	9f ad       	ldd	r25, Y+63	; 0x3f
    38fc:	e8 97       	sbiw	r28, 0x38	; 56
    38fe:	0e 89       	ldd	r16, Y+22	; 0x16
    3900:	90 17       	cp	r25, r16
    3902:	28 f0       	brcs	.+10     	; 0x390e <User_Formula_Input+0x980>
    3904:	c1 58       	subi	r28, 0x81	; 129
    3906:	df 4f       	sbci	r29, 0xFF	; 255
    3908:	18 82       	st	Y, r1
    390a:	cf 57       	subi	r28, 0x7F	; 127
    390c:	d0 40       	sbci	r29, 0x00	; 0
    390e:	ef 96       	adiw	r28, 0x3f	; 63
    3910:	1f ad       	ldd	r17, Y+63	; 0x3f
    3912:	ef 97       	sbiw	r28, 0x3f	; 63
    3914:	e8 96       	adiw	r28, 0x38	; 56
    3916:	2f ad       	ldd	r18, Y+63	; 0x3f
    3918:	e8 97       	sbiw	r28, 0x38	; 56
    391a:	12 0f       	add	r17, r18
    391c:	c0 58       	subi	r28, 0x80	; 128
    391e:	df 4f       	sbci	r29, 0xFF	; 255
    3920:	18 83       	st	Y, r17
    3922:	c0 58       	subi	r28, 0x80	; 128
    3924:	d0 40       	sbci	r29, 0x00	; 0
    3926:	31 e0       	ldi	r19, 0x01	; 1
    3928:	cf 57       	subi	r28, 0x7F	; 127
    392a:	df 4f       	sbci	r29, 0xFF	; 255
    392c:	38 83       	st	Y, r19
    392e:	c1 58       	subi	r28, 0x81	; 129
    3930:	d0 40       	sbci	r29, 0x00	; 0
    3932:	c0 58       	subi	r28, 0x80	; 128
    3934:	df 4f       	sbci	r29, 0xFF	; 255
    3936:	48 81       	ld	r20, Y
    3938:	c0 58       	subi	r28, 0x80	; 128
    393a:	d0 40       	sbci	r29, 0x00	; 0
    393c:	e8 96       	adiw	r28, 0x38	; 56
    393e:	5f ad       	ldd	r21, Y+63	; 0x3f
    3940:	e8 97       	sbiw	r28, 0x38	; 56
    3942:	45 17       	cp	r20, r21
    3944:	28 f0       	brcs	.+10     	; 0x3950 <User_Formula_Input+0x9c2>
    3946:	cf 57       	subi	r28, 0x7F	; 127
    3948:	df 4f       	sbci	r29, 0xFF	; 255
    394a:	18 82       	st	Y, r1
    394c:	c1 58       	subi	r28, 0x81	; 129
    394e:	d0 40       	sbci	r29, 0x00	; 0
    3950:	c1 58       	subi	r28, 0x81	; 129
    3952:	df 4f       	sbci	r29, 0xFF	; 255
    3954:	68 81       	ld	r22, Y
    3956:	cf 57       	subi	r28, 0x7F	; 127
    3958:	d0 40       	sbci	r29, 0x00	; 0
    395a:	cf 57       	subi	r28, 0x7F	; 127
    395c:	df 4f       	sbci	r29, 0xFF	; 255
    395e:	78 81       	ld	r23, Y
    3960:	c1 58       	subi	r28, 0x81	; 129
    3962:	d0 40       	sbci	r29, 0x00	; 0
    3964:	67 2b       	or	r22, r23
    3966:	c1 58       	subi	r28, 0x81	; 129
    3968:	df 4f       	sbci	r29, 0xFF	; 255
    396a:	68 83       	st	Y, r22
    396c:	cf 57       	subi	r28, 0x7F	; 127
    396e:	d0 40       	sbci	r29, 0x00	; 0
    3970:	c0 58       	subi	r28, 0x80	; 128
    3972:	df 4f       	sbci	r29, 0xFF	; 255
    3974:	88 81       	ld	r24, Y
    3976:	c0 58       	subi	r28, 0x80	; 128
    3978:	d0 40       	sbci	r29, 0x00	; 0
    397a:	e8 96       	adiw	r28, 0x38	; 56
    397c:	8f af       	std	Y+63, r24	; 0x3f
    397e:	e8 97       	sbiw	r28, 0x38	; 56
    3980:	9f 89       	ldd	r25, Y+23	; 0x17
    3982:	0f 85       	ldd	r16, Y+15	; 0x0f
    3984:	90 0f       	add	r25, r16
    3986:	e9 96       	adiw	r28, 0x39	; 57
    3988:	9f af       	std	Y+63, r25	; 0x3f
    398a:	e9 97       	sbiw	r28, 0x39	; 57
    398c:	11 e0       	ldi	r17, 0x01	; 1
    398e:	ce 57       	subi	r28, 0x7E	; 126
    3990:	df 4f       	sbci	r29, 0xFF	; 255
    3992:	18 83       	st	Y, r17
    3994:	c2 58       	subi	r28, 0x82	; 130
    3996:	d0 40       	sbci	r29, 0x00	; 0
    3998:	e9 96       	adiw	r28, 0x39	; 57
    399a:	2f ad       	ldd	r18, Y+63	; 0x3f
    399c:	e9 97       	sbiw	r28, 0x39	; 57
    399e:	3f 89       	ldd	r19, Y+23	; 0x17
    39a0:	23 17       	cp	r18, r19
    39a2:	28 f0       	brcs	.+10     	; 0x39ae <User_Formula_Input+0xa20>
    39a4:	ce 57       	subi	r28, 0x7E	; 126
    39a6:	df 4f       	sbci	r29, 0xFF	; 255
    39a8:	18 82       	st	Y, r1
    39aa:	c2 58       	subi	r28, 0x82	; 130
    39ac:	d0 40       	sbci	r29, 0x00	; 0
    39ae:	c1 58       	subi	r28, 0x81	; 129
    39b0:	df 4f       	sbci	r29, 0xFF	; 255
    39b2:	48 81       	ld	r20, Y
    39b4:	cf 57       	subi	r28, 0x7F	; 127
    39b6:	d0 40       	sbci	r29, 0x00	; 0
    39b8:	e9 96       	adiw	r28, 0x39	; 57
    39ba:	5f ad       	ldd	r21, Y+63	; 0x3f
    39bc:	e9 97       	sbiw	r28, 0x39	; 57
    39be:	45 0f       	add	r20, r21
    39c0:	cd 57       	subi	r28, 0x7D	; 125
    39c2:	df 4f       	sbci	r29, 0xFF	; 255
    39c4:	48 83       	st	Y, r20
    39c6:	c3 58       	subi	r28, 0x83	; 131
    39c8:	d0 40       	sbci	r29, 0x00	; 0
    39ca:	61 e0       	ldi	r22, 0x01	; 1
    39cc:	cc 57       	subi	r28, 0x7C	; 124
    39ce:	df 4f       	sbci	r29, 0xFF	; 255
    39d0:	68 83       	st	Y, r22
    39d2:	c4 58       	subi	r28, 0x84	; 132
    39d4:	d0 40       	sbci	r29, 0x00	; 0
    39d6:	cd 57       	subi	r28, 0x7D	; 125
    39d8:	df 4f       	sbci	r29, 0xFF	; 255
    39da:	78 81       	ld	r23, Y
    39dc:	c3 58       	subi	r28, 0x83	; 131
    39de:	d0 40       	sbci	r29, 0x00	; 0
    39e0:	e9 96       	adiw	r28, 0x39	; 57
    39e2:	8f ad       	ldd	r24, Y+63	; 0x3f
    39e4:	e9 97       	sbiw	r28, 0x39	; 57
    39e6:	78 17       	cp	r23, r24
    39e8:	28 f0       	brcs	.+10     	; 0x39f4 <User_Formula_Input+0xa66>
    39ea:	cc 57       	subi	r28, 0x7C	; 124
    39ec:	df 4f       	sbci	r29, 0xFF	; 255
    39ee:	18 82       	st	Y, r1
    39f0:	c4 58       	subi	r28, 0x84	; 132
    39f2:	d0 40       	sbci	r29, 0x00	; 0
    39f4:	ce 57       	subi	r28, 0x7E	; 126
    39f6:	df 4f       	sbci	r29, 0xFF	; 255
    39f8:	98 81       	ld	r25, Y
    39fa:	c2 58       	subi	r28, 0x82	; 130
    39fc:	d0 40       	sbci	r29, 0x00	; 0
    39fe:	cc 57       	subi	r28, 0x7C	; 124
    3a00:	df 4f       	sbci	r29, 0xFF	; 255
    3a02:	08 81       	ld	r16, Y
    3a04:	c4 58       	subi	r28, 0x84	; 132
    3a06:	d0 40       	sbci	r29, 0x00	; 0
    3a08:	90 2b       	or	r25, r16
    3a0a:	ce 57       	subi	r28, 0x7E	; 126
    3a0c:	df 4f       	sbci	r29, 0xFF	; 255
    3a0e:	98 83       	st	Y, r25
    3a10:	c2 58       	subi	r28, 0x82	; 130
    3a12:	d0 40       	sbci	r29, 0x00	; 0
    3a14:	cd 57       	subi	r28, 0x7D	; 125
    3a16:	df 4f       	sbci	r29, 0xFF	; 255
    3a18:	18 81       	ld	r17, Y
    3a1a:	c3 58       	subi	r28, 0x83	; 131
    3a1c:	d0 40       	sbci	r29, 0x00	; 0
    3a1e:	e9 96       	adiw	r28, 0x39	; 57
    3a20:	1f af       	std	Y+63, r17	; 0x3f
    3a22:	e9 97       	sbiw	r28, 0x39	; 57
    3a24:	28 8d       	ldd	r18, Y+24	; 0x18
    3a26:	38 89       	ldd	r19, Y+16	; 0x10
    3a28:	23 0f       	add	r18, r19
    3a2a:	ea 96       	adiw	r28, 0x3a	; 58
    3a2c:	2f af       	std	Y+63, r18	; 0x3f
    3a2e:	ea 97       	sbiw	r28, 0x3a	; 58
    3a30:	41 e0       	ldi	r20, 0x01	; 1
    3a32:	cb 57       	subi	r28, 0x7B	; 123
    3a34:	df 4f       	sbci	r29, 0xFF	; 255
    3a36:	48 83       	st	Y, r20
    3a38:	c5 58       	subi	r28, 0x85	; 133
    3a3a:	d0 40       	sbci	r29, 0x00	; 0
    3a3c:	ea 96       	adiw	r28, 0x3a	; 58
    3a3e:	5f ad       	ldd	r21, Y+63	; 0x3f
    3a40:	ea 97       	sbiw	r28, 0x3a	; 58
    3a42:	68 8d       	ldd	r22, Y+24	; 0x18
    3a44:	56 17       	cp	r21, r22
    3a46:	28 f0       	brcs	.+10     	; 0x3a52 <User_Formula_Input+0xac4>
    3a48:	cb 57       	subi	r28, 0x7B	; 123
    3a4a:	df 4f       	sbci	r29, 0xFF	; 255
    3a4c:	18 82       	st	Y, r1
    3a4e:	c5 58       	subi	r28, 0x85	; 133
    3a50:	d0 40       	sbci	r29, 0x00	; 0
    3a52:	ce 57       	subi	r28, 0x7E	; 126
    3a54:	df 4f       	sbci	r29, 0xFF	; 255
    3a56:	78 81       	ld	r23, Y
    3a58:	c2 58       	subi	r28, 0x82	; 130
    3a5a:	d0 40       	sbci	r29, 0x00	; 0
    3a5c:	ea 96       	adiw	r28, 0x3a	; 58
    3a5e:	8f ad       	ldd	r24, Y+63	; 0x3f
    3a60:	ea 97       	sbiw	r28, 0x3a	; 58
    3a62:	78 0f       	add	r23, r24
    3a64:	ca 57       	subi	r28, 0x7A	; 122
    3a66:	df 4f       	sbci	r29, 0xFF	; 255
    3a68:	78 83       	st	Y, r23
    3a6a:	c6 58       	subi	r28, 0x86	; 134
    3a6c:	d0 40       	sbci	r29, 0x00	; 0
    3a6e:	91 e0       	ldi	r25, 0x01	; 1
    3a70:	c9 57       	subi	r28, 0x79	; 121
    3a72:	df 4f       	sbci	r29, 0xFF	; 255
    3a74:	98 83       	st	Y, r25
    3a76:	c7 58       	subi	r28, 0x87	; 135
    3a78:	d0 40       	sbci	r29, 0x00	; 0
    3a7a:	ca 57       	subi	r28, 0x7A	; 122
    3a7c:	df 4f       	sbci	r29, 0xFF	; 255
    3a7e:	08 81       	ld	r16, Y
    3a80:	c6 58       	subi	r28, 0x86	; 134
    3a82:	d0 40       	sbci	r29, 0x00	; 0
    3a84:	ea 96       	adiw	r28, 0x3a	; 58
    3a86:	1f ad       	ldd	r17, Y+63	; 0x3f
    3a88:	ea 97       	sbiw	r28, 0x3a	; 58
    3a8a:	01 17       	cp	r16, r17
    3a8c:	28 f0       	brcs	.+10     	; 0x3a98 <User_Formula_Input+0xb0a>
    3a8e:	c9 57       	subi	r28, 0x79	; 121
    3a90:	df 4f       	sbci	r29, 0xFF	; 255
    3a92:	18 82       	st	Y, r1
    3a94:	c7 58       	subi	r28, 0x87	; 135
    3a96:	d0 40       	sbci	r29, 0x00	; 0
    3a98:	cb 57       	subi	r28, 0x7B	; 123
    3a9a:	df 4f       	sbci	r29, 0xFF	; 255
    3a9c:	28 81       	ld	r18, Y
    3a9e:	c5 58       	subi	r28, 0x85	; 133
    3aa0:	d0 40       	sbci	r29, 0x00	; 0
    3aa2:	c9 57       	subi	r28, 0x79	; 121
    3aa4:	df 4f       	sbci	r29, 0xFF	; 255
    3aa6:	38 81       	ld	r19, Y
    3aa8:	c7 58       	subi	r28, 0x87	; 135
    3aaa:	d0 40       	sbci	r29, 0x00	; 0
    3aac:	23 2b       	or	r18, r19
    3aae:	cb 57       	subi	r28, 0x7B	; 123
    3ab0:	df 4f       	sbci	r29, 0xFF	; 255
    3ab2:	28 83       	st	Y, r18
    3ab4:	c5 58       	subi	r28, 0x85	; 133
    3ab6:	d0 40       	sbci	r29, 0x00	; 0
    3ab8:	ca 57       	subi	r28, 0x7A	; 122
    3aba:	df 4f       	sbci	r29, 0xFF	; 255
    3abc:	48 81       	ld	r20, Y
    3abe:	c6 58       	subi	r28, 0x86	; 134
    3ac0:	d0 40       	sbci	r29, 0x00	; 0
    3ac2:	ea 96       	adiw	r28, 0x3a	; 58
    3ac4:	4f af       	std	Y+63, r20	; 0x3f
    3ac6:	ea 97       	sbiw	r28, 0x3a	; 58
    3ac8:	59 8d       	ldd	r21, Y+25	; 0x19
    3aca:	69 89       	ldd	r22, Y+17	; 0x11
    3acc:	56 0f       	add	r21, r22
    3ace:	eb 96       	adiw	r28, 0x3b	; 59
    3ad0:	5f af       	std	Y+63, r21	; 0x3f
    3ad2:	eb 97       	sbiw	r28, 0x3b	; 59
    3ad4:	71 e0       	ldi	r23, 0x01	; 1
    3ad6:	c8 57       	subi	r28, 0x78	; 120
    3ad8:	df 4f       	sbci	r29, 0xFF	; 255
    3ada:	78 83       	st	Y, r23
    3adc:	c8 58       	subi	r28, 0x88	; 136
    3ade:	d0 40       	sbci	r29, 0x00	; 0
    3ae0:	eb 96       	adiw	r28, 0x3b	; 59
    3ae2:	8f ad       	ldd	r24, Y+63	; 0x3f
    3ae4:	eb 97       	sbiw	r28, 0x3b	; 59
    3ae6:	99 8d       	ldd	r25, Y+25	; 0x19
    3ae8:	89 17       	cp	r24, r25
    3aea:	28 f0       	brcs	.+10     	; 0x3af6 <User_Formula_Input+0xb68>
    3aec:	c8 57       	subi	r28, 0x78	; 120
    3aee:	df 4f       	sbci	r29, 0xFF	; 255
    3af0:	18 82       	st	Y, r1
    3af2:	c8 58       	subi	r28, 0x88	; 136
    3af4:	d0 40       	sbci	r29, 0x00	; 0
    3af6:	cb 57       	subi	r28, 0x7B	; 123
    3af8:	df 4f       	sbci	r29, 0xFF	; 255
    3afa:	08 81       	ld	r16, Y
    3afc:	c5 58       	subi	r28, 0x85	; 133
    3afe:	d0 40       	sbci	r29, 0x00	; 0
    3b00:	eb 96       	adiw	r28, 0x3b	; 59
    3b02:	1f ad       	ldd	r17, Y+63	; 0x3f
    3b04:	eb 97       	sbiw	r28, 0x3b	; 59
    3b06:	01 0f       	add	r16, r17
    3b08:	c7 57       	subi	r28, 0x77	; 119
    3b0a:	df 4f       	sbci	r29, 0xFF	; 255
    3b0c:	08 83       	st	Y, r16
    3b0e:	c9 58       	subi	r28, 0x89	; 137
    3b10:	d0 40       	sbci	r29, 0x00	; 0
    3b12:	21 e0       	ldi	r18, 0x01	; 1
    3b14:	c6 57       	subi	r28, 0x76	; 118
    3b16:	df 4f       	sbci	r29, 0xFF	; 255
    3b18:	28 83       	st	Y, r18
    3b1a:	ca 58       	subi	r28, 0x8A	; 138
    3b1c:	d0 40       	sbci	r29, 0x00	; 0
    3b1e:	c7 57       	subi	r28, 0x77	; 119
    3b20:	df 4f       	sbci	r29, 0xFF	; 255
    3b22:	38 81       	ld	r19, Y
    3b24:	c9 58       	subi	r28, 0x89	; 137
    3b26:	d0 40       	sbci	r29, 0x00	; 0
    3b28:	eb 96       	adiw	r28, 0x3b	; 59
    3b2a:	4f ad       	ldd	r20, Y+63	; 0x3f
    3b2c:	eb 97       	sbiw	r28, 0x3b	; 59
    3b2e:	34 17       	cp	r19, r20
    3b30:	28 f0       	brcs	.+10     	; 0x3b3c <User_Formula_Input+0xbae>
    3b32:	c6 57       	subi	r28, 0x76	; 118
    3b34:	df 4f       	sbci	r29, 0xFF	; 255
    3b36:	18 82       	st	Y, r1
    3b38:	ca 58       	subi	r28, 0x8A	; 138
    3b3a:	d0 40       	sbci	r29, 0x00	; 0
    3b3c:	c8 57       	subi	r28, 0x78	; 120
    3b3e:	df 4f       	sbci	r29, 0xFF	; 255
    3b40:	58 81       	ld	r21, Y
    3b42:	c8 58       	subi	r28, 0x88	; 136
    3b44:	d0 40       	sbci	r29, 0x00	; 0
    3b46:	c6 57       	subi	r28, 0x76	; 118
    3b48:	df 4f       	sbci	r29, 0xFF	; 255
    3b4a:	68 81       	ld	r22, Y
    3b4c:	ca 58       	subi	r28, 0x8A	; 138
    3b4e:	d0 40       	sbci	r29, 0x00	; 0
    3b50:	56 2b       	or	r21, r22
    3b52:	c8 57       	subi	r28, 0x78	; 120
    3b54:	df 4f       	sbci	r29, 0xFF	; 255
    3b56:	58 83       	st	Y, r21
    3b58:	c8 58       	subi	r28, 0x88	; 136
    3b5a:	d0 40       	sbci	r29, 0x00	; 0
    3b5c:	c7 57       	subi	r28, 0x77	; 119
    3b5e:	df 4f       	sbci	r29, 0xFF	; 255
    3b60:	78 81       	ld	r23, Y
    3b62:	c9 58       	subi	r28, 0x89	; 137
    3b64:	d0 40       	sbci	r29, 0x00	; 0
    3b66:	eb 96       	adiw	r28, 0x3b	; 59
    3b68:	7f af       	std	Y+63, r23	; 0x3f
    3b6a:	eb 97       	sbiw	r28, 0x3b	; 59
    3b6c:	8a 8d       	ldd	r24, Y+26	; 0x1a
    3b6e:	9a 89       	ldd	r25, Y+18	; 0x12
    3b70:	89 0f       	add	r24, r25
    3b72:	ec 96       	adiw	r28, 0x3c	; 60
    3b74:	8f af       	std	Y+63, r24	; 0x3f
    3b76:	ec 97       	sbiw	r28, 0x3c	; 60
    3b78:	01 e0       	ldi	r16, 0x01	; 1
    3b7a:	c5 57       	subi	r28, 0x75	; 117
    3b7c:	df 4f       	sbci	r29, 0xFF	; 255
    3b7e:	08 83       	st	Y, r16
    3b80:	cb 58       	subi	r28, 0x8B	; 139
    3b82:	d0 40       	sbci	r29, 0x00	; 0
    3b84:	ec 96       	adiw	r28, 0x3c	; 60
    3b86:	1f ad       	ldd	r17, Y+63	; 0x3f
    3b88:	ec 97       	sbiw	r28, 0x3c	; 60
    3b8a:	2a 8d       	ldd	r18, Y+26	; 0x1a
    3b8c:	12 17       	cp	r17, r18
    3b8e:	28 f0       	brcs	.+10     	; 0x3b9a <User_Formula_Input+0xc0c>
    3b90:	c5 57       	subi	r28, 0x75	; 117
    3b92:	df 4f       	sbci	r29, 0xFF	; 255
    3b94:	18 82       	st	Y, r1
    3b96:	cb 58       	subi	r28, 0x8B	; 139
    3b98:	d0 40       	sbci	r29, 0x00	; 0
    3b9a:	c8 57       	subi	r28, 0x78	; 120
    3b9c:	df 4f       	sbci	r29, 0xFF	; 255
    3b9e:	38 81       	ld	r19, Y
    3ba0:	c8 58       	subi	r28, 0x88	; 136
    3ba2:	d0 40       	sbci	r29, 0x00	; 0
    3ba4:	ec 96       	adiw	r28, 0x3c	; 60
    3ba6:	4f ad       	ldd	r20, Y+63	; 0x3f
    3ba8:	ec 97       	sbiw	r28, 0x3c	; 60
    3baa:	34 0f       	add	r19, r20
    3bac:	c4 57       	subi	r28, 0x74	; 116
    3bae:	df 4f       	sbci	r29, 0xFF	; 255
    3bb0:	38 83       	st	Y, r19
    3bb2:	cc 58       	subi	r28, 0x8C	; 140
    3bb4:	d0 40       	sbci	r29, 0x00	; 0
    3bb6:	51 e0       	ldi	r21, 0x01	; 1
    3bb8:	c3 57       	subi	r28, 0x73	; 115
    3bba:	df 4f       	sbci	r29, 0xFF	; 255
    3bbc:	58 83       	st	Y, r21
    3bbe:	cd 58       	subi	r28, 0x8D	; 141
    3bc0:	d0 40       	sbci	r29, 0x00	; 0
    3bc2:	c4 57       	subi	r28, 0x74	; 116
    3bc4:	df 4f       	sbci	r29, 0xFF	; 255
    3bc6:	68 81       	ld	r22, Y
    3bc8:	cc 58       	subi	r28, 0x8C	; 140
    3bca:	d0 40       	sbci	r29, 0x00	; 0
    3bcc:	ec 96       	adiw	r28, 0x3c	; 60
    3bce:	7f ad       	ldd	r23, Y+63	; 0x3f
    3bd0:	ec 97       	sbiw	r28, 0x3c	; 60
    3bd2:	67 17       	cp	r22, r23
    3bd4:	28 f0       	brcs	.+10     	; 0x3be0 <User_Formula_Input+0xc52>
    3bd6:	c3 57       	subi	r28, 0x73	; 115
    3bd8:	df 4f       	sbci	r29, 0xFF	; 255
    3bda:	18 82       	st	Y, r1
    3bdc:	cd 58       	subi	r28, 0x8D	; 141
    3bde:	d0 40       	sbci	r29, 0x00	; 0
    3be0:	c5 57       	subi	r28, 0x75	; 117
    3be2:	df 4f       	sbci	r29, 0xFF	; 255
    3be4:	88 81       	ld	r24, Y
    3be6:	cb 58       	subi	r28, 0x8B	; 139
    3be8:	d0 40       	sbci	r29, 0x00	; 0
    3bea:	c3 57       	subi	r28, 0x73	; 115
    3bec:	df 4f       	sbci	r29, 0xFF	; 255
    3bee:	98 81       	ld	r25, Y
    3bf0:	cd 58       	subi	r28, 0x8D	; 141
    3bf2:	d0 40       	sbci	r29, 0x00	; 0
    3bf4:	89 2b       	or	r24, r25
    3bf6:	c5 57       	subi	r28, 0x75	; 117
    3bf8:	df 4f       	sbci	r29, 0xFF	; 255
    3bfa:	88 83       	st	Y, r24
    3bfc:	cb 58       	subi	r28, 0x8B	; 139
    3bfe:	d0 40       	sbci	r29, 0x00	; 0
    3c00:	c4 57       	subi	r28, 0x74	; 116
    3c02:	df 4f       	sbci	r29, 0xFF	; 255
    3c04:	08 81       	ld	r16, Y
    3c06:	cc 58       	subi	r28, 0x8C	; 140
    3c08:	d0 40       	sbci	r29, 0x00	; 0
    3c0a:	ec 96       	adiw	r28, 0x3c	; 60
    3c0c:	0f af       	std	Y+63, r16	; 0x3f
    3c0e:	ec 97       	sbiw	r28, 0x3c	; 60
    3c10:	1b 8d       	ldd	r17, Y+27	; 0x1b
    3c12:	2b 89       	ldd	r18, Y+19	; 0x13
    3c14:	12 0f       	add	r17, r18
    3c16:	ed 96       	adiw	r28, 0x3d	; 61
    3c18:	1f af       	std	Y+63, r17	; 0x3f
    3c1a:	ed 97       	sbiw	r28, 0x3d	; 61
    3c1c:	31 e0       	ldi	r19, 0x01	; 1
    3c1e:	c2 57       	subi	r28, 0x72	; 114
    3c20:	df 4f       	sbci	r29, 0xFF	; 255
    3c22:	38 83       	st	Y, r19
    3c24:	ce 58       	subi	r28, 0x8E	; 142
    3c26:	d0 40       	sbci	r29, 0x00	; 0
    3c28:	ed 96       	adiw	r28, 0x3d	; 61
    3c2a:	4f ad       	ldd	r20, Y+63	; 0x3f
    3c2c:	ed 97       	sbiw	r28, 0x3d	; 61
    3c2e:	5b 8d       	ldd	r21, Y+27	; 0x1b
    3c30:	45 17       	cp	r20, r21
    3c32:	28 f0       	brcs	.+10     	; 0x3c3e <User_Formula_Input+0xcb0>
    3c34:	c2 57       	subi	r28, 0x72	; 114
    3c36:	df 4f       	sbci	r29, 0xFF	; 255
    3c38:	18 82       	st	Y, r1
    3c3a:	ce 58       	subi	r28, 0x8E	; 142
    3c3c:	d0 40       	sbci	r29, 0x00	; 0
    3c3e:	c5 57       	subi	r28, 0x75	; 117
    3c40:	df 4f       	sbci	r29, 0xFF	; 255
    3c42:	68 81       	ld	r22, Y
    3c44:	cb 58       	subi	r28, 0x8B	; 139
    3c46:	d0 40       	sbci	r29, 0x00	; 0
    3c48:	ed 96       	adiw	r28, 0x3d	; 61
    3c4a:	7f ad       	ldd	r23, Y+63	; 0x3f
    3c4c:	ed 97       	sbiw	r28, 0x3d	; 61
    3c4e:	67 0f       	add	r22, r23
    3c50:	c1 57       	subi	r28, 0x71	; 113
    3c52:	df 4f       	sbci	r29, 0xFF	; 255
    3c54:	68 83       	st	Y, r22
    3c56:	cf 58       	subi	r28, 0x8F	; 143
    3c58:	d0 40       	sbci	r29, 0x00	; 0
    3c5a:	81 e0       	ldi	r24, 0x01	; 1
    3c5c:	c0 57       	subi	r28, 0x70	; 112
    3c5e:	df 4f       	sbci	r29, 0xFF	; 255
    3c60:	88 83       	st	Y, r24
    3c62:	c0 59       	subi	r28, 0x90	; 144
    3c64:	d0 40       	sbci	r29, 0x00	; 0
    3c66:	c1 57       	subi	r28, 0x71	; 113
    3c68:	df 4f       	sbci	r29, 0xFF	; 255
    3c6a:	98 81       	ld	r25, Y
    3c6c:	cf 58       	subi	r28, 0x8F	; 143
    3c6e:	d0 40       	sbci	r29, 0x00	; 0
    3c70:	ed 96       	adiw	r28, 0x3d	; 61
    3c72:	0f ad       	ldd	r16, Y+63	; 0x3f
    3c74:	ed 97       	sbiw	r28, 0x3d	; 61
    3c76:	90 17       	cp	r25, r16
    3c78:	28 f0       	brcs	.+10     	; 0x3c84 <User_Formula_Input+0xcf6>
    3c7a:	c0 57       	subi	r28, 0x70	; 112
    3c7c:	df 4f       	sbci	r29, 0xFF	; 255
    3c7e:	18 82       	st	Y, r1
    3c80:	c0 59       	subi	r28, 0x90	; 144
    3c82:	d0 40       	sbci	r29, 0x00	; 0
    3c84:	c2 57       	subi	r28, 0x72	; 114
    3c86:	df 4f       	sbci	r29, 0xFF	; 255
    3c88:	18 81       	ld	r17, Y
    3c8a:	ce 58       	subi	r28, 0x8E	; 142
    3c8c:	d0 40       	sbci	r29, 0x00	; 0
    3c8e:	c0 57       	subi	r28, 0x70	; 112
    3c90:	df 4f       	sbci	r29, 0xFF	; 255
    3c92:	28 81       	ld	r18, Y
    3c94:	c0 59       	subi	r28, 0x90	; 144
    3c96:	d0 40       	sbci	r29, 0x00	; 0
    3c98:	12 2b       	or	r17, r18
    3c9a:	c2 57       	subi	r28, 0x72	; 114
    3c9c:	df 4f       	sbci	r29, 0xFF	; 255
    3c9e:	18 83       	st	Y, r17
    3ca0:	ce 58       	subi	r28, 0x8E	; 142
    3ca2:	d0 40       	sbci	r29, 0x00	; 0
    3ca4:	c1 57       	subi	r28, 0x71	; 113
    3ca6:	df 4f       	sbci	r29, 0xFF	; 255
    3ca8:	38 81       	ld	r19, Y
    3caa:	cf 58       	subi	r28, 0x8F	; 143
    3cac:	d0 40       	sbci	r29, 0x00	; 0
    3cae:	ed 96       	adiw	r28, 0x3d	; 61
    3cb0:	3f af       	std	Y+63, r19	; 0x3f
    3cb2:	ed 97       	sbiw	r28, 0x3d	; 61
    3cb4:	4c 8d       	ldd	r20, Y+28	; 0x1c
    3cb6:	5c 89       	ldd	r21, Y+20	; 0x14
    3cb8:	45 0f       	add	r20, r21
    3cba:	ee 96       	adiw	r28, 0x3e	; 62
    3cbc:	4f af       	std	Y+63, r20	; 0x3f
    3cbe:	ee 97       	sbiw	r28, 0x3e	; 62
    3cc0:	c2 57       	subi	r28, 0x72	; 114
    3cc2:	df 4f       	sbci	r29, 0xFF	; 255
    3cc4:	88 81       	ld	r24, Y
    3cc6:	ce 58       	subi	r28, 0x8E	; 142
    3cc8:	d0 40       	sbci	r29, 0x00	; 0
    3cca:	ee 96       	adiw	r28, 0x3e	; 62
    3ccc:	6f ad       	ldd	r22, Y+63	; 0x3f
    3cce:	ee 97       	sbiw	r28, 0x3e	; 62
    3cd0:	86 0f       	add	r24, r22
    3cd2:	ee 96       	adiw	r28, 0x3e	; 62
    3cd4:	8f af       	std	Y+63, r24	; 0x3f
    3cd6:	ee 97       	sbiw	r28, 0x3e	; 62
    3cd8:	e7 96       	adiw	r28, 0x37	; 55
    3cda:	2f ad       	ldd	r18, Y+63	; 0x3f
    3cdc:	e7 97       	sbiw	r28, 0x37	; 55
    3cde:	e8 96       	adiw	r28, 0x38	; 56
    3ce0:	3f ad       	ldd	r19, Y+63	; 0x3f
    3ce2:	e8 97       	sbiw	r28, 0x38	; 56
    3ce4:	e9 96       	adiw	r28, 0x39	; 57
    3ce6:	4f ad       	ldd	r20, Y+63	; 0x3f
    3ce8:	e9 97       	sbiw	r28, 0x39	; 57
    3cea:	ea 96       	adiw	r28, 0x3a	; 58
    3cec:	5f ad       	ldd	r21, Y+63	; 0x3f
    3cee:	ea 97       	sbiw	r28, 0x3a	; 58
    3cf0:	eb 96       	adiw	r28, 0x3b	; 59
    3cf2:	6f ad       	ldd	r22, Y+63	; 0x3f
    3cf4:	eb 97       	sbiw	r28, 0x3b	; 59
    3cf6:	ec 96       	adiw	r28, 0x3c	; 60
    3cf8:	7f ad       	ldd	r23, Y+63	; 0x3f
    3cfa:	ec 97       	sbiw	r28, 0x3c	; 60
    3cfc:	ed 96       	adiw	r28, 0x3d	; 61
    3cfe:	8f ad       	ldd	r24, Y+63	; 0x3f
    3d00:	ed 97       	sbiw	r28, 0x3d	; 61
    3d02:	ee 96       	adiw	r28, 0x3e	; 62
    3d04:	9f ad       	ldd	r25, Y+63	; 0x3f
    3d06:	ee 97       	sbiw	r28, 0x3e	; 62
    3d08:	20 93 ba 03 	sts	0x03BA, r18
    3d0c:	30 93 bb 03 	sts	0x03BB, r19
    3d10:	40 93 bc 03 	sts	0x03BC, r20
    3d14:	50 93 bd 03 	sts	0x03BD, r21
    3d18:	60 93 be 03 	sts	0x03BE, r22
    3d1c:	70 93 bf 03 	sts	0x03BF, r23
    3d20:	80 93 c0 03 	sts	0x03C0, r24
    3d24:	90 93 c1 03 	sts	0x03C1, r25
		}
		prev_input = input;
    3d28:	80 91 c2 03 	lds	r24, 0x03C2
    3d2c:	8a 83       	std	Y+2, r24	; 0x02
    3d2e:	44 c9       	rjmp	.-3448   	; 0x2fb8 <User_Formula_Input+0x2a>
	}
	if(neg_flag)
	{
		whole_numbers[whole_numbers_counter-1] *= -1;
    3d30:	80 91 b9 03 	lds	r24, 0x03B9
    3d34:	88 2f       	mov	r24, r24
    3d36:	90 e0       	ldi	r25, 0x00	; 0
    3d38:	8c 01       	movw	r16, r24
    3d3a:	01 50       	subi	r16, 0x01	; 1
    3d3c:	10 40       	sbci	r17, 0x00	; 0
    3d3e:	1c 87       	std	Y+12, r17	; 0x0c
    3d40:	0b 87       	std	Y+11, r16	; 0x0b
    3d42:	80 91 b9 03 	lds	r24, 0x03B9
    3d46:	88 2f       	mov	r24, r24
    3d48:	90 e0       	ldi	r25, 0x00	; 0
    3d4a:	01 97       	sbiw	r24, 0x01	; 1
    3d4c:	88 0f       	add	r24, r24
    3d4e:	99 1f       	adc	r25, r25
    3d50:	88 0f       	add	r24, r24
    3d52:	99 1f       	adc	r25, r25
    3d54:	88 0f       	add	r24, r24
    3d56:	99 1f       	adc	r25, r25
    3d58:	fc 01       	movw	r30, r24
    3d5a:	ea 53       	subi	r30, 0x3A	; 58
    3d5c:	fe 4f       	sbci	r31, 0xFE	; 254
    3d5e:	10 81       	ld	r17, Z
    3d60:	1b 83       	std	Y+3, r17	; 0x03
    3d62:	21 81       	ldd	r18, Z+1	; 0x01
    3d64:	2c 83       	std	Y+4, r18	; 0x04
    3d66:	32 81       	ldd	r19, Z+2	; 0x02
    3d68:	3d 83       	std	Y+5, r19	; 0x05
    3d6a:	43 81       	ldd	r20, Z+3	; 0x03
    3d6c:	4e 83       	std	Y+6, r20	; 0x06
    3d6e:	54 81       	ldd	r21, Z+4	; 0x04
    3d70:	5f 83       	std	Y+7, r21	; 0x07
    3d72:	65 81       	ldd	r22, Z+5	; 0x05
    3d74:	68 87       	std	Y+8, r22	; 0x08
    3d76:	76 81       	ldd	r23, Z+6	; 0x06
    3d78:	79 87       	std	Y+9, r23	; 0x09
    3d7a:	87 81       	ldd	r24, Z+7	; 0x07
    3d7c:	8a 87       	std	Y+10, r24	; 0x0a
    3d7e:	cf 56       	subi	r28, 0x6F	; 111
    3d80:	df 4f       	sbci	r29, 0xFF	; 255
    3d82:	18 82       	st	Y, r1
    3d84:	c1 59       	subi	r28, 0x91	; 145
    3d86:	d0 40       	sbci	r29, 0x00	; 0
    3d88:	ce 56       	subi	r28, 0x6E	; 110
    3d8a:	df 4f       	sbci	r29, 0xFF	; 255
    3d8c:	18 82       	st	Y, r1
    3d8e:	c2 59       	subi	r28, 0x92	; 146
    3d90:	d0 40       	sbci	r29, 0x00	; 0
    3d92:	cd 56       	subi	r28, 0x6D	; 109
    3d94:	df 4f       	sbci	r29, 0xFF	; 255
    3d96:	18 82       	st	Y, r1
    3d98:	c3 59       	subi	r28, 0x93	; 147
    3d9a:	d0 40       	sbci	r29, 0x00	; 0
    3d9c:	cc 56       	subi	r28, 0x6C	; 108
    3d9e:	df 4f       	sbci	r29, 0xFF	; 255
    3da0:	18 82       	st	Y, r1
    3da2:	c4 59       	subi	r28, 0x94	; 148
    3da4:	d0 40       	sbci	r29, 0x00	; 0
    3da6:	cb 56       	subi	r28, 0x6B	; 107
    3da8:	df 4f       	sbci	r29, 0xFF	; 255
    3daa:	18 82       	st	Y, r1
    3dac:	c5 59       	subi	r28, 0x95	; 149
    3dae:	d0 40       	sbci	r29, 0x00	; 0
    3db0:	ca 56       	subi	r28, 0x6A	; 106
    3db2:	df 4f       	sbci	r29, 0xFF	; 255
    3db4:	18 82       	st	Y, r1
    3db6:	c6 59       	subi	r28, 0x96	; 150
    3db8:	d0 40       	sbci	r29, 0x00	; 0
    3dba:	c9 56       	subi	r28, 0x69	; 105
    3dbc:	df 4f       	sbci	r29, 0xFF	; 255
    3dbe:	18 82       	st	Y, r1
    3dc0:	c7 59       	subi	r28, 0x97	; 151
    3dc2:	d0 40       	sbci	r29, 0x00	; 0
    3dc4:	c8 56       	subi	r28, 0x68	; 104
    3dc6:	df 4f       	sbci	r29, 0xFF	; 255
    3dc8:	18 82       	st	Y, r1
    3dca:	c8 59       	subi	r28, 0x98	; 152
    3dcc:	d0 40       	sbci	r29, 0x00	; 0
    3dce:	cf 56       	subi	r28, 0x6F	; 111
    3dd0:	df 4f       	sbci	r29, 0xFF	; 255
    3dd2:	98 81       	ld	r25, Y
    3dd4:	c1 59       	subi	r28, 0x91	; 145
    3dd6:	d0 40       	sbci	r29, 0x00	; 0
    3dd8:	0b 81       	ldd	r16, Y+3	; 0x03
    3dda:	90 1b       	sub	r25, r16
    3ddc:	c7 56       	subi	r28, 0x67	; 103
    3dde:	df 4f       	sbci	r29, 0xFF	; 255
    3de0:	98 83       	st	Y, r25
    3de2:	c9 59       	subi	r28, 0x99	; 153
    3de4:	d0 40       	sbci	r29, 0x00	; 0
    3de6:	11 e0       	ldi	r17, 0x01	; 1
    3de8:	cf 55       	subi	r28, 0x5F	; 95
    3dea:	df 4f       	sbci	r29, 0xFF	; 255
    3dec:	18 83       	st	Y, r17
    3dee:	c1 5a       	subi	r28, 0xA1	; 161
    3df0:	d0 40       	sbci	r29, 0x00	; 0
    3df2:	c7 56       	subi	r28, 0x67	; 103
    3df4:	df 4f       	sbci	r29, 0xFF	; 255
    3df6:	28 81       	ld	r18, Y
    3df8:	c9 59       	subi	r28, 0x99	; 153
    3dfa:	d0 40       	sbci	r29, 0x00	; 0
    3dfc:	cf 56       	subi	r28, 0x6F	; 111
    3dfe:	df 4f       	sbci	r29, 0xFF	; 255
    3e00:	38 81       	ld	r19, Y
    3e02:	c1 59       	subi	r28, 0x91	; 145
    3e04:	d0 40       	sbci	r29, 0x00	; 0
    3e06:	32 17       	cp	r19, r18
    3e08:	28 f0       	brcs	.+10     	; 0x3e14 <User_Formula_Input+0xe86>
    3e0a:	cf 55       	subi	r28, 0x5F	; 95
    3e0c:	df 4f       	sbci	r29, 0xFF	; 255
    3e0e:	18 82       	st	Y, r1
    3e10:	c1 5a       	subi	r28, 0xA1	; 161
    3e12:	d0 40       	sbci	r29, 0x00	; 0
    3e14:	ce 56       	subi	r28, 0x6E	; 110
    3e16:	df 4f       	sbci	r29, 0xFF	; 255
    3e18:	48 81       	ld	r20, Y
    3e1a:	c2 59       	subi	r28, 0x92	; 146
    3e1c:	d0 40       	sbci	r29, 0x00	; 0
    3e1e:	5c 81       	ldd	r21, Y+4	; 0x04
    3e20:	45 1b       	sub	r20, r21
    3e22:	c6 56       	subi	r28, 0x66	; 102
    3e24:	df 4f       	sbci	r29, 0xFF	; 255
    3e26:	48 83       	st	Y, r20
    3e28:	ca 59       	subi	r28, 0x9A	; 154
    3e2a:	d0 40       	sbci	r29, 0x00	; 0
    3e2c:	61 e0       	ldi	r22, 0x01	; 1
    3e2e:	ce 55       	subi	r28, 0x5E	; 94
    3e30:	df 4f       	sbci	r29, 0xFF	; 255
    3e32:	68 83       	st	Y, r22
    3e34:	c2 5a       	subi	r28, 0xA2	; 162
    3e36:	d0 40       	sbci	r29, 0x00	; 0
    3e38:	c6 56       	subi	r28, 0x66	; 102
    3e3a:	df 4f       	sbci	r29, 0xFF	; 255
    3e3c:	78 81       	ld	r23, Y
    3e3e:	ca 59       	subi	r28, 0x9A	; 154
    3e40:	d0 40       	sbci	r29, 0x00	; 0
    3e42:	ce 56       	subi	r28, 0x6E	; 110
    3e44:	df 4f       	sbci	r29, 0xFF	; 255
    3e46:	88 81       	ld	r24, Y
    3e48:	c2 59       	subi	r28, 0x92	; 146
    3e4a:	d0 40       	sbci	r29, 0x00	; 0
    3e4c:	87 17       	cp	r24, r23
    3e4e:	28 f0       	brcs	.+10     	; 0x3e5a <User_Formula_Input+0xecc>
    3e50:	ce 55       	subi	r28, 0x5E	; 94
    3e52:	df 4f       	sbci	r29, 0xFF	; 255
    3e54:	18 82       	st	Y, r1
    3e56:	c2 5a       	subi	r28, 0xA2	; 162
    3e58:	d0 40       	sbci	r29, 0x00	; 0
    3e5a:	c6 56       	subi	r28, 0x66	; 102
    3e5c:	df 4f       	sbci	r29, 0xFF	; 255
    3e5e:	98 81       	ld	r25, Y
    3e60:	ca 59       	subi	r28, 0x9A	; 154
    3e62:	d0 40       	sbci	r29, 0x00	; 0
    3e64:	cf 55       	subi	r28, 0x5F	; 95
    3e66:	df 4f       	sbci	r29, 0xFF	; 255
    3e68:	08 81       	ld	r16, Y
    3e6a:	c1 5a       	subi	r28, 0xA1	; 161
    3e6c:	d0 40       	sbci	r29, 0x00	; 0
    3e6e:	90 1b       	sub	r25, r16
    3e70:	cd 55       	subi	r28, 0x5D	; 93
    3e72:	df 4f       	sbci	r29, 0xFF	; 255
    3e74:	98 83       	st	Y, r25
    3e76:	c3 5a       	subi	r28, 0xA3	; 163
    3e78:	d0 40       	sbci	r29, 0x00	; 0
    3e7a:	11 e0       	ldi	r17, 0x01	; 1
    3e7c:	cc 55       	subi	r28, 0x5C	; 92
    3e7e:	df 4f       	sbci	r29, 0xFF	; 255
    3e80:	18 83       	st	Y, r17
    3e82:	c4 5a       	subi	r28, 0xA4	; 164
    3e84:	d0 40       	sbci	r29, 0x00	; 0
    3e86:	cd 55       	subi	r28, 0x5D	; 93
    3e88:	df 4f       	sbci	r29, 0xFF	; 255
    3e8a:	28 81       	ld	r18, Y
    3e8c:	c3 5a       	subi	r28, 0xA3	; 163
    3e8e:	d0 40       	sbci	r29, 0x00	; 0
    3e90:	c6 56       	subi	r28, 0x66	; 102
    3e92:	df 4f       	sbci	r29, 0xFF	; 255
    3e94:	38 81       	ld	r19, Y
    3e96:	ca 59       	subi	r28, 0x9A	; 154
    3e98:	d0 40       	sbci	r29, 0x00	; 0
    3e9a:	32 17       	cp	r19, r18
    3e9c:	28 f0       	brcs	.+10     	; 0x3ea8 <User_Formula_Input+0xf1a>
    3e9e:	cc 55       	subi	r28, 0x5C	; 92
    3ea0:	df 4f       	sbci	r29, 0xFF	; 255
    3ea2:	18 82       	st	Y, r1
    3ea4:	c4 5a       	subi	r28, 0xA4	; 164
    3ea6:	d0 40       	sbci	r29, 0x00	; 0
    3ea8:	ce 55       	subi	r28, 0x5E	; 94
    3eaa:	df 4f       	sbci	r29, 0xFF	; 255
    3eac:	48 81       	ld	r20, Y
    3eae:	c2 5a       	subi	r28, 0xA2	; 162
    3eb0:	d0 40       	sbci	r29, 0x00	; 0
    3eb2:	cc 55       	subi	r28, 0x5C	; 92
    3eb4:	df 4f       	sbci	r29, 0xFF	; 255
    3eb6:	58 81       	ld	r21, Y
    3eb8:	c4 5a       	subi	r28, 0xA4	; 164
    3eba:	d0 40       	sbci	r29, 0x00	; 0
    3ebc:	45 2b       	or	r20, r21
    3ebe:	ce 55       	subi	r28, 0x5E	; 94
    3ec0:	df 4f       	sbci	r29, 0xFF	; 255
    3ec2:	48 83       	st	Y, r20
    3ec4:	c2 5a       	subi	r28, 0xA2	; 162
    3ec6:	d0 40       	sbci	r29, 0x00	; 0
    3ec8:	cd 55       	subi	r28, 0x5D	; 93
    3eca:	df 4f       	sbci	r29, 0xFF	; 255
    3ecc:	68 81       	ld	r22, Y
    3ece:	c3 5a       	subi	r28, 0xA3	; 163
    3ed0:	d0 40       	sbci	r29, 0x00	; 0
    3ed2:	c6 56       	subi	r28, 0x66	; 102
    3ed4:	df 4f       	sbci	r29, 0xFF	; 255
    3ed6:	68 83       	st	Y, r22
    3ed8:	ca 59       	subi	r28, 0x9A	; 154
    3eda:	d0 40       	sbci	r29, 0x00	; 0
    3edc:	cd 56       	subi	r28, 0x6D	; 109
    3ede:	df 4f       	sbci	r29, 0xFF	; 255
    3ee0:	78 81       	ld	r23, Y
    3ee2:	c3 59       	subi	r28, 0x93	; 147
    3ee4:	d0 40       	sbci	r29, 0x00	; 0
    3ee6:	8d 81       	ldd	r24, Y+5	; 0x05
    3ee8:	78 1b       	sub	r23, r24
    3eea:	c5 56       	subi	r28, 0x65	; 101
    3eec:	df 4f       	sbci	r29, 0xFF	; 255
    3eee:	78 83       	st	Y, r23
    3ef0:	cb 59       	subi	r28, 0x9B	; 155
    3ef2:	d0 40       	sbci	r29, 0x00	; 0
    3ef4:	91 e0       	ldi	r25, 0x01	; 1
    3ef6:	cb 55       	subi	r28, 0x5B	; 91
    3ef8:	df 4f       	sbci	r29, 0xFF	; 255
    3efa:	98 83       	st	Y, r25
    3efc:	c5 5a       	subi	r28, 0xA5	; 165
    3efe:	d0 40       	sbci	r29, 0x00	; 0
    3f00:	c5 56       	subi	r28, 0x65	; 101
    3f02:	df 4f       	sbci	r29, 0xFF	; 255
    3f04:	08 81       	ld	r16, Y
    3f06:	cb 59       	subi	r28, 0x9B	; 155
    3f08:	d0 40       	sbci	r29, 0x00	; 0
    3f0a:	cd 56       	subi	r28, 0x6D	; 109
    3f0c:	df 4f       	sbci	r29, 0xFF	; 255
    3f0e:	18 81       	ld	r17, Y
    3f10:	c3 59       	subi	r28, 0x93	; 147
    3f12:	d0 40       	sbci	r29, 0x00	; 0
    3f14:	10 17       	cp	r17, r16
    3f16:	28 f0       	brcs	.+10     	; 0x3f22 <User_Formula_Input+0xf94>
    3f18:	cb 55       	subi	r28, 0x5B	; 91
    3f1a:	df 4f       	sbci	r29, 0xFF	; 255
    3f1c:	18 82       	st	Y, r1
    3f1e:	c5 5a       	subi	r28, 0xA5	; 165
    3f20:	d0 40       	sbci	r29, 0x00	; 0
    3f22:	c5 56       	subi	r28, 0x65	; 101
    3f24:	df 4f       	sbci	r29, 0xFF	; 255
    3f26:	28 81       	ld	r18, Y
    3f28:	cb 59       	subi	r28, 0x9B	; 155
    3f2a:	d0 40       	sbci	r29, 0x00	; 0
    3f2c:	ce 55       	subi	r28, 0x5E	; 94
    3f2e:	df 4f       	sbci	r29, 0xFF	; 255
    3f30:	38 81       	ld	r19, Y
    3f32:	c2 5a       	subi	r28, 0xA2	; 162
    3f34:	d0 40       	sbci	r29, 0x00	; 0
    3f36:	23 1b       	sub	r18, r19
    3f38:	ca 55       	subi	r28, 0x5A	; 90
    3f3a:	df 4f       	sbci	r29, 0xFF	; 255
    3f3c:	28 83       	st	Y, r18
    3f3e:	c6 5a       	subi	r28, 0xA6	; 166
    3f40:	d0 40       	sbci	r29, 0x00	; 0
    3f42:	41 e0       	ldi	r20, 0x01	; 1
    3f44:	c9 55       	subi	r28, 0x59	; 89
    3f46:	df 4f       	sbci	r29, 0xFF	; 255
    3f48:	48 83       	st	Y, r20
    3f4a:	c7 5a       	subi	r28, 0xA7	; 167
    3f4c:	d0 40       	sbci	r29, 0x00	; 0
    3f4e:	ca 55       	subi	r28, 0x5A	; 90
    3f50:	df 4f       	sbci	r29, 0xFF	; 255
    3f52:	58 81       	ld	r21, Y
    3f54:	c6 5a       	subi	r28, 0xA6	; 166
    3f56:	d0 40       	sbci	r29, 0x00	; 0
    3f58:	c5 56       	subi	r28, 0x65	; 101
    3f5a:	df 4f       	sbci	r29, 0xFF	; 255
    3f5c:	68 81       	ld	r22, Y
    3f5e:	cb 59       	subi	r28, 0x9B	; 155
    3f60:	d0 40       	sbci	r29, 0x00	; 0
    3f62:	65 17       	cp	r22, r21
    3f64:	28 f0       	brcs	.+10     	; 0x3f70 <User_Formula_Input+0xfe2>
    3f66:	c9 55       	subi	r28, 0x59	; 89
    3f68:	df 4f       	sbci	r29, 0xFF	; 255
    3f6a:	18 82       	st	Y, r1
    3f6c:	c7 5a       	subi	r28, 0xA7	; 167
    3f6e:	d0 40       	sbci	r29, 0x00	; 0
    3f70:	cb 55       	subi	r28, 0x5B	; 91
    3f72:	df 4f       	sbci	r29, 0xFF	; 255
    3f74:	78 81       	ld	r23, Y
    3f76:	c5 5a       	subi	r28, 0xA5	; 165
    3f78:	d0 40       	sbci	r29, 0x00	; 0
    3f7a:	c9 55       	subi	r28, 0x59	; 89
    3f7c:	df 4f       	sbci	r29, 0xFF	; 255
    3f7e:	88 81       	ld	r24, Y
    3f80:	c7 5a       	subi	r28, 0xA7	; 167
    3f82:	d0 40       	sbci	r29, 0x00	; 0
    3f84:	78 2b       	or	r23, r24
    3f86:	cb 55       	subi	r28, 0x5B	; 91
    3f88:	df 4f       	sbci	r29, 0xFF	; 255
    3f8a:	78 83       	st	Y, r23
    3f8c:	c5 5a       	subi	r28, 0xA5	; 165
    3f8e:	d0 40       	sbci	r29, 0x00	; 0
    3f90:	ca 55       	subi	r28, 0x5A	; 90
    3f92:	df 4f       	sbci	r29, 0xFF	; 255
    3f94:	98 81       	ld	r25, Y
    3f96:	c6 5a       	subi	r28, 0xA6	; 166
    3f98:	d0 40       	sbci	r29, 0x00	; 0
    3f9a:	c5 56       	subi	r28, 0x65	; 101
    3f9c:	df 4f       	sbci	r29, 0xFF	; 255
    3f9e:	98 83       	st	Y, r25
    3fa0:	cb 59       	subi	r28, 0x9B	; 155
    3fa2:	d0 40       	sbci	r29, 0x00	; 0
    3fa4:	cc 56       	subi	r28, 0x6C	; 108
    3fa6:	df 4f       	sbci	r29, 0xFF	; 255
    3fa8:	08 81       	ld	r16, Y
    3faa:	c4 59       	subi	r28, 0x94	; 148
    3fac:	d0 40       	sbci	r29, 0x00	; 0
    3fae:	1e 81       	ldd	r17, Y+6	; 0x06
    3fb0:	01 1b       	sub	r16, r17
    3fb2:	c4 56       	subi	r28, 0x64	; 100
    3fb4:	df 4f       	sbci	r29, 0xFF	; 255
    3fb6:	08 83       	st	Y, r16
    3fb8:	cc 59       	subi	r28, 0x9C	; 156
    3fba:	d0 40       	sbci	r29, 0x00	; 0
    3fbc:	21 e0       	ldi	r18, 0x01	; 1
    3fbe:	c8 55       	subi	r28, 0x58	; 88
    3fc0:	df 4f       	sbci	r29, 0xFF	; 255
    3fc2:	28 83       	st	Y, r18
    3fc4:	c8 5a       	subi	r28, 0xA8	; 168
    3fc6:	d0 40       	sbci	r29, 0x00	; 0
    3fc8:	c4 56       	subi	r28, 0x64	; 100
    3fca:	df 4f       	sbci	r29, 0xFF	; 255
    3fcc:	38 81       	ld	r19, Y
    3fce:	cc 59       	subi	r28, 0x9C	; 156
    3fd0:	d0 40       	sbci	r29, 0x00	; 0
    3fd2:	cc 56       	subi	r28, 0x6C	; 108
    3fd4:	df 4f       	sbci	r29, 0xFF	; 255
    3fd6:	48 81       	ld	r20, Y
    3fd8:	c4 59       	subi	r28, 0x94	; 148
    3fda:	d0 40       	sbci	r29, 0x00	; 0
    3fdc:	43 17       	cp	r20, r19
    3fde:	28 f0       	brcs	.+10     	; 0x3fea <User_Formula_Input+0x105c>
    3fe0:	c8 55       	subi	r28, 0x58	; 88
    3fe2:	df 4f       	sbci	r29, 0xFF	; 255
    3fe4:	18 82       	st	Y, r1
    3fe6:	c8 5a       	subi	r28, 0xA8	; 168
    3fe8:	d0 40       	sbci	r29, 0x00	; 0
    3fea:	c4 56       	subi	r28, 0x64	; 100
    3fec:	df 4f       	sbci	r29, 0xFF	; 255
    3fee:	58 81       	ld	r21, Y
    3ff0:	cc 59       	subi	r28, 0x9C	; 156
    3ff2:	d0 40       	sbci	r29, 0x00	; 0
    3ff4:	cb 55       	subi	r28, 0x5B	; 91
    3ff6:	df 4f       	sbci	r29, 0xFF	; 255
    3ff8:	68 81       	ld	r22, Y
    3ffa:	c5 5a       	subi	r28, 0xA5	; 165
    3ffc:	d0 40       	sbci	r29, 0x00	; 0
    3ffe:	56 1b       	sub	r21, r22
    4000:	c7 55       	subi	r28, 0x57	; 87
    4002:	df 4f       	sbci	r29, 0xFF	; 255
    4004:	58 83       	st	Y, r21
    4006:	c9 5a       	subi	r28, 0xA9	; 169
    4008:	d0 40       	sbci	r29, 0x00	; 0
    400a:	71 e0       	ldi	r23, 0x01	; 1
    400c:	c6 55       	subi	r28, 0x56	; 86
    400e:	df 4f       	sbci	r29, 0xFF	; 255
    4010:	78 83       	st	Y, r23
    4012:	ca 5a       	subi	r28, 0xAA	; 170
    4014:	d0 40       	sbci	r29, 0x00	; 0
    4016:	c7 55       	subi	r28, 0x57	; 87
    4018:	df 4f       	sbci	r29, 0xFF	; 255
    401a:	88 81       	ld	r24, Y
    401c:	c9 5a       	subi	r28, 0xA9	; 169
    401e:	d0 40       	sbci	r29, 0x00	; 0
    4020:	c4 56       	subi	r28, 0x64	; 100
    4022:	df 4f       	sbci	r29, 0xFF	; 255
    4024:	98 81       	ld	r25, Y
    4026:	cc 59       	subi	r28, 0x9C	; 156
    4028:	d0 40       	sbci	r29, 0x00	; 0
    402a:	98 17       	cp	r25, r24
    402c:	28 f0       	brcs	.+10     	; 0x4038 <User_Formula_Input+0x10aa>
    402e:	c6 55       	subi	r28, 0x56	; 86
    4030:	df 4f       	sbci	r29, 0xFF	; 255
    4032:	18 82       	st	Y, r1
    4034:	ca 5a       	subi	r28, 0xAA	; 170
    4036:	d0 40       	sbci	r29, 0x00	; 0
    4038:	c8 55       	subi	r28, 0x58	; 88
    403a:	df 4f       	sbci	r29, 0xFF	; 255
    403c:	08 81       	ld	r16, Y
    403e:	c8 5a       	subi	r28, 0xA8	; 168
    4040:	d0 40       	sbci	r29, 0x00	; 0
    4042:	c6 55       	subi	r28, 0x56	; 86
    4044:	df 4f       	sbci	r29, 0xFF	; 255
    4046:	18 81       	ld	r17, Y
    4048:	ca 5a       	subi	r28, 0xAA	; 170
    404a:	d0 40       	sbci	r29, 0x00	; 0
    404c:	01 2b       	or	r16, r17
    404e:	c8 55       	subi	r28, 0x58	; 88
    4050:	df 4f       	sbci	r29, 0xFF	; 255
    4052:	08 83       	st	Y, r16
    4054:	c8 5a       	subi	r28, 0xA8	; 168
    4056:	d0 40       	sbci	r29, 0x00	; 0
    4058:	c7 55       	subi	r28, 0x57	; 87
    405a:	df 4f       	sbci	r29, 0xFF	; 255
    405c:	28 81       	ld	r18, Y
    405e:	c9 5a       	subi	r28, 0xA9	; 169
    4060:	d0 40       	sbci	r29, 0x00	; 0
    4062:	c4 56       	subi	r28, 0x64	; 100
    4064:	df 4f       	sbci	r29, 0xFF	; 255
    4066:	28 83       	st	Y, r18
    4068:	cc 59       	subi	r28, 0x9C	; 156
    406a:	d0 40       	sbci	r29, 0x00	; 0
    406c:	cb 56       	subi	r28, 0x6B	; 107
    406e:	df 4f       	sbci	r29, 0xFF	; 255
    4070:	38 81       	ld	r19, Y
    4072:	c5 59       	subi	r28, 0x95	; 149
    4074:	d0 40       	sbci	r29, 0x00	; 0
    4076:	4f 81       	ldd	r20, Y+7	; 0x07
    4078:	34 1b       	sub	r19, r20
    407a:	c3 56       	subi	r28, 0x63	; 99
    407c:	df 4f       	sbci	r29, 0xFF	; 255
    407e:	38 83       	st	Y, r19
    4080:	cd 59       	subi	r28, 0x9D	; 157
    4082:	d0 40       	sbci	r29, 0x00	; 0
    4084:	51 e0       	ldi	r21, 0x01	; 1
    4086:	c5 55       	subi	r28, 0x55	; 85
    4088:	df 4f       	sbci	r29, 0xFF	; 255
    408a:	58 83       	st	Y, r21
    408c:	cb 5a       	subi	r28, 0xAB	; 171
    408e:	d0 40       	sbci	r29, 0x00	; 0
    4090:	c3 56       	subi	r28, 0x63	; 99
    4092:	df 4f       	sbci	r29, 0xFF	; 255
    4094:	68 81       	ld	r22, Y
    4096:	cd 59       	subi	r28, 0x9D	; 157
    4098:	d0 40       	sbci	r29, 0x00	; 0
    409a:	cb 56       	subi	r28, 0x6B	; 107
    409c:	df 4f       	sbci	r29, 0xFF	; 255
    409e:	78 81       	ld	r23, Y
    40a0:	c5 59       	subi	r28, 0x95	; 149
    40a2:	d0 40       	sbci	r29, 0x00	; 0
    40a4:	76 17       	cp	r23, r22
    40a6:	28 f0       	brcs	.+10     	; 0x40b2 <User_Formula_Input+0x1124>
    40a8:	c5 55       	subi	r28, 0x55	; 85
    40aa:	df 4f       	sbci	r29, 0xFF	; 255
    40ac:	18 82       	st	Y, r1
    40ae:	cb 5a       	subi	r28, 0xAB	; 171
    40b0:	d0 40       	sbci	r29, 0x00	; 0
    40b2:	c3 56       	subi	r28, 0x63	; 99
    40b4:	df 4f       	sbci	r29, 0xFF	; 255
    40b6:	88 81       	ld	r24, Y
    40b8:	cd 59       	subi	r28, 0x9D	; 157
    40ba:	d0 40       	sbci	r29, 0x00	; 0
    40bc:	c8 55       	subi	r28, 0x58	; 88
    40be:	df 4f       	sbci	r29, 0xFF	; 255
    40c0:	98 81       	ld	r25, Y
    40c2:	c8 5a       	subi	r28, 0xA8	; 168
    40c4:	d0 40       	sbci	r29, 0x00	; 0
    40c6:	89 1b       	sub	r24, r25
    40c8:	c4 55       	subi	r28, 0x54	; 84
    40ca:	df 4f       	sbci	r29, 0xFF	; 255
    40cc:	88 83       	st	Y, r24
    40ce:	cc 5a       	subi	r28, 0xAC	; 172
    40d0:	d0 40       	sbci	r29, 0x00	; 0
    40d2:	01 e0       	ldi	r16, 0x01	; 1
    40d4:	c3 55       	subi	r28, 0x53	; 83
    40d6:	df 4f       	sbci	r29, 0xFF	; 255
    40d8:	08 83       	st	Y, r16
    40da:	cd 5a       	subi	r28, 0xAD	; 173
    40dc:	d0 40       	sbci	r29, 0x00	; 0
    40de:	c4 55       	subi	r28, 0x54	; 84
    40e0:	df 4f       	sbci	r29, 0xFF	; 255
    40e2:	18 81       	ld	r17, Y
    40e4:	cc 5a       	subi	r28, 0xAC	; 172
    40e6:	d0 40       	sbci	r29, 0x00	; 0
    40e8:	c3 56       	subi	r28, 0x63	; 99
    40ea:	df 4f       	sbci	r29, 0xFF	; 255
    40ec:	28 81       	ld	r18, Y
    40ee:	cd 59       	subi	r28, 0x9D	; 157
    40f0:	d0 40       	sbci	r29, 0x00	; 0
    40f2:	21 17       	cp	r18, r17
    40f4:	28 f0       	brcs	.+10     	; 0x4100 <User_Formula_Input+0x1172>
    40f6:	c3 55       	subi	r28, 0x53	; 83
    40f8:	df 4f       	sbci	r29, 0xFF	; 255
    40fa:	18 82       	st	Y, r1
    40fc:	cd 5a       	subi	r28, 0xAD	; 173
    40fe:	d0 40       	sbci	r29, 0x00	; 0
    4100:	c5 55       	subi	r28, 0x55	; 85
    4102:	df 4f       	sbci	r29, 0xFF	; 255
    4104:	38 81       	ld	r19, Y
    4106:	cb 5a       	subi	r28, 0xAB	; 171
    4108:	d0 40       	sbci	r29, 0x00	; 0
    410a:	c3 55       	subi	r28, 0x53	; 83
    410c:	df 4f       	sbci	r29, 0xFF	; 255
    410e:	48 81       	ld	r20, Y
    4110:	cd 5a       	subi	r28, 0xAD	; 173
    4112:	d0 40       	sbci	r29, 0x00	; 0
    4114:	34 2b       	or	r19, r20
    4116:	c5 55       	subi	r28, 0x55	; 85
    4118:	df 4f       	sbci	r29, 0xFF	; 255
    411a:	38 83       	st	Y, r19
    411c:	cb 5a       	subi	r28, 0xAB	; 171
    411e:	d0 40       	sbci	r29, 0x00	; 0
    4120:	c4 55       	subi	r28, 0x54	; 84
    4122:	df 4f       	sbci	r29, 0xFF	; 255
    4124:	58 81       	ld	r21, Y
    4126:	cc 5a       	subi	r28, 0xAC	; 172
    4128:	d0 40       	sbci	r29, 0x00	; 0
    412a:	c3 56       	subi	r28, 0x63	; 99
    412c:	df 4f       	sbci	r29, 0xFF	; 255
    412e:	58 83       	st	Y, r21
    4130:	cd 59       	subi	r28, 0x9D	; 157
    4132:	d0 40       	sbci	r29, 0x00	; 0
    4134:	ca 56       	subi	r28, 0x6A	; 106
    4136:	df 4f       	sbci	r29, 0xFF	; 255
    4138:	68 81       	ld	r22, Y
    413a:	c6 59       	subi	r28, 0x96	; 150
    413c:	d0 40       	sbci	r29, 0x00	; 0
    413e:	78 85       	ldd	r23, Y+8	; 0x08
    4140:	67 1b       	sub	r22, r23
    4142:	c2 56       	subi	r28, 0x62	; 98
    4144:	df 4f       	sbci	r29, 0xFF	; 255
    4146:	68 83       	st	Y, r22
    4148:	ce 59       	subi	r28, 0x9E	; 158
    414a:	d0 40       	sbci	r29, 0x00	; 0
    414c:	81 e0       	ldi	r24, 0x01	; 1
    414e:	c2 55       	subi	r28, 0x52	; 82
    4150:	df 4f       	sbci	r29, 0xFF	; 255
    4152:	88 83       	st	Y, r24
    4154:	ce 5a       	subi	r28, 0xAE	; 174
    4156:	d0 40       	sbci	r29, 0x00	; 0
    4158:	c2 56       	subi	r28, 0x62	; 98
    415a:	df 4f       	sbci	r29, 0xFF	; 255
    415c:	98 81       	ld	r25, Y
    415e:	ce 59       	subi	r28, 0x9E	; 158
    4160:	d0 40       	sbci	r29, 0x00	; 0
    4162:	ca 56       	subi	r28, 0x6A	; 106
    4164:	df 4f       	sbci	r29, 0xFF	; 255
    4166:	08 81       	ld	r16, Y
    4168:	c6 59       	subi	r28, 0x96	; 150
    416a:	d0 40       	sbci	r29, 0x00	; 0
    416c:	09 17       	cp	r16, r25
    416e:	28 f0       	brcs	.+10     	; 0x417a <User_Formula_Input+0x11ec>
    4170:	c2 55       	subi	r28, 0x52	; 82
    4172:	df 4f       	sbci	r29, 0xFF	; 255
    4174:	18 82       	st	Y, r1
    4176:	ce 5a       	subi	r28, 0xAE	; 174
    4178:	d0 40       	sbci	r29, 0x00	; 0
    417a:	c2 56       	subi	r28, 0x62	; 98
    417c:	df 4f       	sbci	r29, 0xFF	; 255
    417e:	18 81       	ld	r17, Y
    4180:	ce 59       	subi	r28, 0x9E	; 158
    4182:	d0 40       	sbci	r29, 0x00	; 0
    4184:	c5 55       	subi	r28, 0x55	; 85
    4186:	df 4f       	sbci	r29, 0xFF	; 255
    4188:	28 81       	ld	r18, Y
    418a:	cb 5a       	subi	r28, 0xAB	; 171
    418c:	d0 40       	sbci	r29, 0x00	; 0
    418e:	12 1b       	sub	r17, r18
    4190:	c1 55       	subi	r28, 0x51	; 81
    4192:	df 4f       	sbci	r29, 0xFF	; 255
    4194:	18 83       	st	Y, r17
    4196:	cf 5a       	subi	r28, 0xAF	; 175
    4198:	d0 40       	sbci	r29, 0x00	; 0
    419a:	31 e0       	ldi	r19, 0x01	; 1
    419c:	c0 55       	subi	r28, 0x50	; 80
    419e:	df 4f       	sbci	r29, 0xFF	; 255
    41a0:	38 83       	st	Y, r19
    41a2:	c0 5b       	subi	r28, 0xB0	; 176
    41a4:	d0 40       	sbci	r29, 0x00	; 0
    41a6:	c1 55       	subi	r28, 0x51	; 81
    41a8:	df 4f       	sbci	r29, 0xFF	; 255
    41aa:	48 81       	ld	r20, Y
    41ac:	cf 5a       	subi	r28, 0xAF	; 175
    41ae:	d0 40       	sbci	r29, 0x00	; 0
    41b0:	c2 56       	subi	r28, 0x62	; 98
    41b2:	df 4f       	sbci	r29, 0xFF	; 255
    41b4:	58 81       	ld	r21, Y
    41b6:	ce 59       	subi	r28, 0x9E	; 158
    41b8:	d0 40       	sbci	r29, 0x00	; 0
    41ba:	54 17       	cp	r21, r20
    41bc:	28 f0       	brcs	.+10     	; 0x41c8 <User_Formula_Input+0x123a>
    41be:	c0 55       	subi	r28, 0x50	; 80
    41c0:	df 4f       	sbci	r29, 0xFF	; 255
    41c2:	18 82       	st	Y, r1
    41c4:	c0 5b       	subi	r28, 0xB0	; 176
    41c6:	d0 40       	sbci	r29, 0x00	; 0
    41c8:	c2 55       	subi	r28, 0x52	; 82
    41ca:	df 4f       	sbci	r29, 0xFF	; 255
    41cc:	68 81       	ld	r22, Y
    41ce:	ce 5a       	subi	r28, 0xAE	; 174
    41d0:	d0 40       	sbci	r29, 0x00	; 0
    41d2:	c0 55       	subi	r28, 0x50	; 80
    41d4:	df 4f       	sbci	r29, 0xFF	; 255
    41d6:	78 81       	ld	r23, Y
    41d8:	c0 5b       	subi	r28, 0xB0	; 176
    41da:	d0 40       	sbci	r29, 0x00	; 0
    41dc:	67 2b       	or	r22, r23
    41de:	c2 55       	subi	r28, 0x52	; 82
    41e0:	df 4f       	sbci	r29, 0xFF	; 255
    41e2:	68 83       	st	Y, r22
    41e4:	ce 5a       	subi	r28, 0xAE	; 174
    41e6:	d0 40       	sbci	r29, 0x00	; 0
    41e8:	c1 55       	subi	r28, 0x51	; 81
    41ea:	df 4f       	sbci	r29, 0xFF	; 255
    41ec:	88 81       	ld	r24, Y
    41ee:	cf 5a       	subi	r28, 0xAF	; 175
    41f0:	d0 40       	sbci	r29, 0x00	; 0
    41f2:	c2 56       	subi	r28, 0x62	; 98
    41f4:	df 4f       	sbci	r29, 0xFF	; 255
    41f6:	88 83       	st	Y, r24
    41f8:	ce 59       	subi	r28, 0x9E	; 158
    41fa:	d0 40       	sbci	r29, 0x00	; 0
    41fc:	c9 56       	subi	r28, 0x69	; 105
    41fe:	df 4f       	sbci	r29, 0xFF	; 255
    4200:	98 81       	ld	r25, Y
    4202:	c7 59       	subi	r28, 0x97	; 151
    4204:	d0 40       	sbci	r29, 0x00	; 0
    4206:	09 85       	ldd	r16, Y+9	; 0x09
    4208:	90 1b       	sub	r25, r16
    420a:	c1 56       	subi	r28, 0x61	; 97
    420c:	df 4f       	sbci	r29, 0xFF	; 255
    420e:	98 83       	st	Y, r25
    4210:	cf 59       	subi	r28, 0x9F	; 159
    4212:	d0 40       	sbci	r29, 0x00	; 0
    4214:	11 e0       	ldi	r17, 0x01	; 1
    4216:	cf 54       	subi	r28, 0x4F	; 79
    4218:	df 4f       	sbci	r29, 0xFF	; 255
    421a:	18 83       	st	Y, r17
    421c:	c1 5b       	subi	r28, 0xB1	; 177
    421e:	d0 40       	sbci	r29, 0x00	; 0
    4220:	c1 56       	subi	r28, 0x61	; 97
    4222:	df 4f       	sbci	r29, 0xFF	; 255
    4224:	28 81       	ld	r18, Y
    4226:	cf 59       	subi	r28, 0x9F	; 159
    4228:	d0 40       	sbci	r29, 0x00	; 0
    422a:	c9 56       	subi	r28, 0x69	; 105
    422c:	df 4f       	sbci	r29, 0xFF	; 255
    422e:	38 81       	ld	r19, Y
    4230:	c7 59       	subi	r28, 0x97	; 151
    4232:	d0 40       	sbci	r29, 0x00	; 0
    4234:	32 17       	cp	r19, r18
    4236:	28 f0       	brcs	.+10     	; 0x4242 <User_Formula_Input+0x12b4>
    4238:	cf 54       	subi	r28, 0x4F	; 79
    423a:	df 4f       	sbci	r29, 0xFF	; 255
    423c:	18 82       	st	Y, r1
    423e:	c1 5b       	subi	r28, 0xB1	; 177
    4240:	d0 40       	sbci	r29, 0x00	; 0
    4242:	c1 56       	subi	r28, 0x61	; 97
    4244:	df 4f       	sbci	r29, 0xFF	; 255
    4246:	48 81       	ld	r20, Y
    4248:	cf 59       	subi	r28, 0x9F	; 159
    424a:	d0 40       	sbci	r29, 0x00	; 0
    424c:	c2 55       	subi	r28, 0x52	; 82
    424e:	df 4f       	sbci	r29, 0xFF	; 255
    4250:	58 81       	ld	r21, Y
    4252:	ce 5a       	subi	r28, 0xAE	; 174
    4254:	d0 40       	sbci	r29, 0x00	; 0
    4256:	45 1b       	sub	r20, r21
    4258:	ce 54       	subi	r28, 0x4E	; 78
    425a:	df 4f       	sbci	r29, 0xFF	; 255
    425c:	48 83       	st	Y, r20
    425e:	c2 5b       	subi	r28, 0xB2	; 178
    4260:	d0 40       	sbci	r29, 0x00	; 0
    4262:	61 e0       	ldi	r22, 0x01	; 1
    4264:	cd 54       	subi	r28, 0x4D	; 77
    4266:	df 4f       	sbci	r29, 0xFF	; 255
    4268:	68 83       	st	Y, r22
    426a:	c3 5b       	subi	r28, 0xB3	; 179
    426c:	d0 40       	sbci	r29, 0x00	; 0
    426e:	ce 54       	subi	r28, 0x4E	; 78
    4270:	df 4f       	sbci	r29, 0xFF	; 255
    4272:	78 81       	ld	r23, Y
    4274:	c2 5b       	subi	r28, 0xB2	; 178
    4276:	d0 40       	sbci	r29, 0x00	; 0
    4278:	c1 56       	subi	r28, 0x61	; 97
    427a:	df 4f       	sbci	r29, 0xFF	; 255
    427c:	88 81       	ld	r24, Y
    427e:	cf 59       	subi	r28, 0x9F	; 159
    4280:	d0 40       	sbci	r29, 0x00	; 0
    4282:	87 17       	cp	r24, r23
    4284:	28 f0       	brcs	.+10     	; 0x4290 <User_Formula_Input+0x1302>
    4286:	cd 54       	subi	r28, 0x4D	; 77
    4288:	df 4f       	sbci	r29, 0xFF	; 255
    428a:	18 82       	st	Y, r1
    428c:	c3 5b       	subi	r28, 0xB3	; 179
    428e:	d0 40       	sbci	r29, 0x00	; 0
    4290:	cf 54       	subi	r28, 0x4F	; 79
    4292:	df 4f       	sbci	r29, 0xFF	; 255
    4294:	98 81       	ld	r25, Y
    4296:	c1 5b       	subi	r28, 0xB1	; 177
    4298:	d0 40       	sbci	r29, 0x00	; 0
    429a:	cd 54       	subi	r28, 0x4D	; 77
    429c:	df 4f       	sbci	r29, 0xFF	; 255
    429e:	08 81       	ld	r16, Y
    42a0:	c3 5b       	subi	r28, 0xB3	; 179
    42a2:	d0 40       	sbci	r29, 0x00	; 0
    42a4:	90 2b       	or	r25, r16
    42a6:	cf 54       	subi	r28, 0x4F	; 79
    42a8:	df 4f       	sbci	r29, 0xFF	; 255
    42aa:	98 83       	st	Y, r25
    42ac:	c1 5b       	subi	r28, 0xB1	; 177
    42ae:	d0 40       	sbci	r29, 0x00	; 0
    42b0:	ce 54       	subi	r28, 0x4E	; 78
    42b2:	df 4f       	sbci	r29, 0xFF	; 255
    42b4:	18 81       	ld	r17, Y
    42b6:	c2 5b       	subi	r28, 0xB2	; 178
    42b8:	d0 40       	sbci	r29, 0x00	; 0
    42ba:	c1 56       	subi	r28, 0x61	; 97
    42bc:	df 4f       	sbci	r29, 0xFF	; 255
    42be:	18 83       	st	Y, r17
    42c0:	cf 59       	subi	r28, 0x9F	; 159
    42c2:	d0 40       	sbci	r29, 0x00	; 0
    42c4:	c8 56       	subi	r28, 0x68	; 104
    42c6:	df 4f       	sbci	r29, 0xFF	; 255
    42c8:	28 81       	ld	r18, Y
    42ca:	c8 59       	subi	r28, 0x98	; 152
    42cc:	d0 40       	sbci	r29, 0x00	; 0
    42ce:	3a 85       	ldd	r19, Y+10	; 0x0a
    42d0:	23 1b       	sub	r18, r19
    42d2:	c0 56       	subi	r28, 0x60	; 96
    42d4:	df 4f       	sbci	r29, 0xFF	; 255
    42d6:	28 83       	st	Y, r18
    42d8:	c0 5a       	subi	r28, 0xA0	; 160
    42da:	d0 40       	sbci	r29, 0x00	; 0
    42dc:	c0 56       	subi	r28, 0x60	; 96
    42de:	df 4f       	sbci	r29, 0xFF	; 255
    42e0:	88 81       	ld	r24, Y
    42e2:	c0 5a       	subi	r28, 0xA0	; 160
    42e4:	d0 40       	sbci	r29, 0x00	; 0
    42e6:	cf 54       	subi	r28, 0x4F	; 79
    42e8:	df 4f       	sbci	r29, 0xFF	; 255
    42ea:	48 81       	ld	r20, Y
    42ec:	c1 5b       	subi	r28, 0xB1	; 177
    42ee:	d0 40       	sbci	r29, 0x00	; 0
    42f0:	84 1b       	sub	r24, r20
    42f2:	c0 56       	subi	r28, 0x60	; 96
    42f4:	df 4f       	sbci	r29, 0xFF	; 255
    42f6:	88 83       	st	Y, r24
    42f8:	c0 5a       	subi	r28, 0xA0	; 160
    42fa:	d0 40       	sbci	r29, 0x00	; 0
    42fc:	c7 56       	subi	r28, 0x67	; 103
    42fe:	df 4f       	sbci	r29, 0xFF	; 255
    4300:	28 81       	ld	r18, Y
    4302:	c9 59       	subi	r28, 0x99	; 153
    4304:	d0 40       	sbci	r29, 0x00	; 0
    4306:	c6 56       	subi	r28, 0x66	; 102
    4308:	df 4f       	sbci	r29, 0xFF	; 255
    430a:	38 81       	ld	r19, Y
    430c:	ca 59       	subi	r28, 0x9A	; 154
    430e:	d0 40       	sbci	r29, 0x00	; 0
    4310:	c5 56       	subi	r28, 0x65	; 101
    4312:	df 4f       	sbci	r29, 0xFF	; 255
    4314:	48 81       	ld	r20, Y
    4316:	cb 59       	subi	r28, 0x9B	; 155
    4318:	d0 40       	sbci	r29, 0x00	; 0
    431a:	c4 56       	subi	r28, 0x64	; 100
    431c:	df 4f       	sbci	r29, 0xFF	; 255
    431e:	58 81       	ld	r21, Y
    4320:	cc 59       	subi	r28, 0x9C	; 156
    4322:	d0 40       	sbci	r29, 0x00	; 0
    4324:	c3 56       	subi	r28, 0x63	; 99
    4326:	df 4f       	sbci	r29, 0xFF	; 255
    4328:	68 81       	ld	r22, Y
    432a:	cd 59       	subi	r28, 0x9D	; 157
    432c:	d0 40       	sbci	r29, 0x00	; 0
    432e:	c2 56       	subi	r28, 0x62	; 98
    4330:	df 4f       	sbci	r29, 0xFF	; 255
    4332:	78 81       	ld	r23, Y
    4334:	ce 59       	subi	r28, 0x9E	; 158
    4336:	d0 40       	sbci	r29, 0x00	; 0
    4338:	c1 56       	subi	r28, 0x61	; 97
    433a:	df 4f       	sbci	r29, 0xFF	; 255
    433c:	88 81       	ld	r24, Y
    433e:	cf 59       	subi	r28, 0x9F	; 159
    4340:	d0 40       	sbci	r29, 0x00	; 0
    4342:	c0 56       	subi	r28, 0x60	; 96
    4344:	df 4f       	sbci	r29, 0xFF	; 255
    4346:	98 81       	ld	r25, Y
    4348:	c0 5a       	subi	r28, 0xA0	; 160
    434a:	d0 40       	sbci	r29, 0x00	; 0
    434c:	eb 85       	ldd	r30, Y+11	; 0x0b
    434e:	fc 85       	ldd	r31, Y+12	; 0x0c
    4350:	ee 0f       	add	r30, r30
    4352:	ff 1f       	adc	r31, r31
    4354:	ee 0f       	add	r30, r30
    4356:	ff 1f       	adc	r31, r31
    4358:	ee 0f       	add	r30, r30
    435a:	ff 1f       	adc	r31, r31
    435c:	ea 53       	subi	r30, 0x3A	; 58
    435e:	fe 4f       	sbci	r31, 0xFE	; 254
    4360:	20 83       	st	Z, r18
    4362:	31 83       	std	Z+1, r19	; 0x01
    4364:	42 83       	std	Z+2, r20	; 0x02
    4366:	53 83       	std	Z+3, r21	; 0x03
    4368:	64 83       	std	Z+4, r22	; 0x04
    436a:	75 83       	std	Z+5, r23	; 0x05
    436c:	86 83       	std	Z+6, r24	; 0x06
    436e:	97 83       	std	Z+7, r25	; 0x07
	}
}
    4370:	cd 54       	subi	r28, 0x4D	; 77
    4372:	df 4f       	sbci	r29, 0xFF	; 255
    4374:	0f b6       	in	r0, 0x3f	; 63
    4376:	f8 94       	cli
    4378:	de bf       	out	0x3e, r29	; 62
    437a:	0f be       	out	0x3f, r0	; 63
    437c:	cd bf       	out	0x3d, r28	; 61
    437e:	cf 91       	pop	r28
    4380:	df 91       	pop	r29
    4382:	1f 91       	pop	r17
    4384:	0f 91       	pop	r16
    4386:	ff 90       	pop	r15
    4388:	ef 90       	pop	r14
    438a:	df 90       	pop	r13
    438c:	cf 90       	pop	r12
    438e:	bf 90       	pop	r11
    4390:	af 90       	pop	r10
    4392:	08 95       	ret

00004394 <Equation_Simplification>:
sint64 Equation_Simplification()
{
    4394:	2f 92       	push	r2
    4396:	3f 92       	push	r3
    4398:	4f 92       	push	r4
    439a:	5f 92       	push	r5
    439c:	6f 92       	push	r6
    439e:	7f 92       	push	r7
    43a0:	8f 92       	push	r8
    43a2:	9f 92       	push	r9
    43a4:	af 92       	push	r10
    43a6:	bf 92       	push	r11
    43a8:	cf 92       	push	r12
    43aa:	df 92       	push	r13
    43ac:	ef 92       	push	r14
    43ae:	ff 92       	push	r15
    43b0:	0f 93       	push	r16
    43b2:	1f 93       	push	r17
    43b4:	df 93       	push	r29
    43b6:	cf 93       	push	r28
    43b8:	cd b7       	in	r28, 0x3d	; 61
    43ba:	de b7       	in	r29, 0x3e	; 62
    43bc:	61 97       	sbiw	r28, 0x11	; 17
    43be:	0f b6       	in	r0, 0x3f	; 63
    43c0:	f8 94       	cli
    43c2:	de bf       	out	0x3e, r29	; 62
    43c4:	0f be       	out	0x3f, r0	; 63
    43c6:	cd bf       	out	0x3d, r28	; 61
	uint8 i = 0;
    43c8:	19 82       	std	Y+1, r1	; 0x01
    43ca:	73 c2       	rjmp	.+1254   	; 0x48b2 <Equation_Simplification+0x51e>

	for(;i<whole_numbers_counter;i++)
	{
		if(operations[i] == '/')
    43cc:	89 81       	ldd	r24, Y+1	; 0x01
    43ce:	88 2f       	mov	r24, r24
    43d0:	90 e0       	ldi	r25, 0x00	; 0
    43d2:	fc 01       	movw	r30, r24
    43d4:	e2 55       	subi	r30, 0x52	; 82
    43d6:	fc 4f       	sbci	r31, 0xFC	; 252
    43d8:	80 81       	ld	r24, Z
    43da:	8f 32       	cpi	r24, 0x2F	; 47
    43dc:	09 f0       	breq	.+2      	; 0x43e0 <Equation_Simplification+0x4c>
    43de:	45 c1       	rjmp	.+650    	; 0x466a <Equation_Simplification+0x2d6>
		{
			if(whole_numbers[i+1] == 0)
    43e0:	89 81       	ldd	r24, Y+1	; 0x01
    43e2:	88 2f       	mov	r24, r24
    43e4:	90 e0       	ldi	r25, 0x00	; 0
    43e6:	01 96       	adiw	r24, 0x01	; 1
    43e8:	88 0f       	add	r24, r24
    43ea:	99 1f       	adc	r25, r25
    43ec:	88 0f       	add	r24, r24
    43ee:	99 1f       	adc	r25, r25
    43f0:	88 0f       	add	r24, r24
    43f2:	99 1f       	adc	r25, r25
    43f4:	fc 01       	movw	r30, r24
    43f6:	ea 53       	subi	r30, 0x3A	; 58
    43f8:	fe 4f       	sbci	r31, 0xFE	; 254
    43fa:	20 81       	ld	r18, Z
    43fc:	31 81       	ldd	r19, Z+1	; 0x01
    43fe:	42 81       	ldd	r20, Z+2	; 0x02
    4400:	53 81       	ldd	r21, Z+3	; 0x03
    4402:	64 81       	ldd	r22, Z+4	; 0x04
    4404:	75 81       	ldd	r23, Z+5	; 0x05
    4406:	86 81       	ldd	r24, Z+6	; 0x06
    4408:	97 81       	ldd	r25, Z+7	; 0x07
    440a:	e2 2f       	mov	r30, r18
    440c:	e3 2b       	or	r30, r19
    440e:	e4 2b       	or	r30, r20
    4410:	e5 2b       	or	r30, r21
    4412:	e6 2b       	or	r30, r22
    4414:	e7 2b       	or	r30, r23
    4416:	e8 2b       	or	r30, r24
    4418:	e9 2b       	or	r30, r25
    441a:	ee 23       	and	r30, r30
    441c:	71 f4       	brne	.+28     	; 0x443a <Equation_Simplification+0xa6>
			{
				RunTimeErrorMsg();
    441e:	0e 94 a6 28 	call	0x514c	; 0x514c <RunTimeErrorMsg>
				Reset_Arrays();
    4422:	0e 94 7b 28 	call	0x50f6	; 0x50f6 <Reset_Arrays>
				return 'x';
    4426:	28 e7       	ldi	r18, 0x78	; 120
    4428:	2a 87       	std	Y+10, r18	; 0x0a
    442a:	1b 86       	std	Y+11, r1	; 0x0b
    442c:	1c 86       	std	Y+12, r1	; 0x0c
    442e:	1d 86       	std	Y+13, r1	; 0x0d
    4430:	1e 86       	std	Y+14, r1	; 0x0e
    4432:	1f 86       	std	Y+15, r1	; 0x0f
    4434:	18 8a       	std	Y+16, r1	; 0x10
    4436:	19 8a       	std	Y+17, r1	; 0x11
    4438:	54 c2       	rjmp	.+1192   	; 0x48e2 <Equation_Simplification+0x54e>
			}
			if(operations[i+1] != '*' && operations[i+1] != '/')
    443a:	89 81       	ldd	r24, Y+1	; 0x01
    443c:	88 2f       	mov	r24, r24
    443e:	90 e0       	ldi	r25, 0x00	; 0
    4440:	01 96       	adiw	r24, 0x01	; 1
    4442:	fc 01       	movw	r30, r24
    4444:	e2 55       	subi	r30, 0x52	; 82
    4446:	fc 4f       	sbci	r31, 0xFC	; 252
    4448:	80 81       	ld	r24, Z
    444a:	8a 32       	cpi	r24, 0x2A	; 42
    444c:	09 f4       	brne	.+2      	; 0x4450 <Equation_Simplification+0xbc>
    444e:	8b c0       	rjmp	.+278    	; 0x4566 <Equation_Simplification+0x1d2>
    4450:	89 81       	ldd	r24, Y+1	; 0x01
    4452:	88 2f       	mov	r24, r24
    4454:	90 e0       	ldi	r25, 0x00	; 0
    4456:	01 96       	adiw	r24, 0x01	; 1
    4458:	fc 01       	movw	r30, r24
    445a:	e2 55       	subi	r30, 0x52	; 82
    445c:	fc 4f       	sbci	r31, 0xFC	; 252
    445e:	80 81       	ld	r24, Z
    4460:	8f 32       	cpi	r24, 0x2F	; 47
    4462:	09 f4       	brne	.+2      	; 0x4466 <Equation_Simplification+0xd2>
    4464:	80 c0       	rjmp	.+256    	; 0x4566 <Equation_Simplification+0x1d2>
			{
				whole_numbers[i] = whole_numbers[i]/whole_numbers[i+1];
    4466:	89 81       	ldd	r24, Y+1	; 0x01
    4468:	28 2f       	mov	r18, r24
    446a:	30 e0       	ldi	r19, 0x00	; 0
    446c:	39 87       	std	Y+9, r19	; 0x09
    446e:	28 87       	std	Y+8, r18	; 0x08
    4470:	89 81       	ldd	r24, Y+1	; 0x01
    4472:	88 2f       	mov	r24, r24
    4474:	90 e0       	ldi	r25, 0x00	; 0
    4476:	88 0f       	add	r24, r24
    4478:	99 1f       	adc	r25, r25
    447a:	88 0f       	add	r24, r24
    447c:	99 1f       	adc	r25, r25
    447e:	88 0f       	add	r24, r24
    4480:	99 1f       	adc	r25, r25
    4482:	fc 01       	movw	r30, r24
    4484:	ea 53       	subi	r30, 0x3A	; 58
    4486:	fe 4f       	sbci	r31, 0xFE	; 254
    4488:	a0 80       	ld	r10, Z
    448a:	b1 80       	ldd	r11, Z+1	; 0x01
    448c:	c2 80       	ldd	r12, Z+2	; 0x02
    448e:	d3 80       	ldd	r13, Z+3	; 0x03
    4490:	e4 80       	ldd	r14, Z+4	; 0x04
    4492:	f5 80       	ldd	r15, Z+5	; 0x05
    4494:	06 81       	ldd	r16, Z+6	; 0x06
    4496:	17 81       	ldd	r17, Z+7	; 0x07
    4498:	89 81       	ldd	r24, Y+1	; 0x01
    449a:	88 2f       	mov	r24, r24
    449c:	90 e0       	ldi	r25, 0x00	; 0
    449e:	01 96       	adiw	r24, 0x01	; 1
    44a0:	88 0f       	add	r24, r24
    44a2:	99 1f       	adc	r25, r25
    44a4:	88 0f       	add	r24, r24
    44a6:	99 1f       	adc	r25, r25
    44a8:	88 0f       	add	r24, r24
    44aa:	99 1f       	adc	r25, r25
    44ac:	fc 01       	movw	r30, r24
    44ae:	ea 53       	subi	r30, 0x3A	; 58
    44b0:	fe 4f       	sbci	r31, 0xFE	; 254
    44b2:	20 80       	ld	r2, Z
    44b4:	31 80       	ldd	r3, Z+1	; 0x01
    44b6:	42 80       	ldd	r4, Z+2	; 0x02
    44b8:	53 80       	ldd	r5, Z+3	; 0x03
    44ba:	64 80       	ldd	r6, Z+4	; 0x04
    44bc:	75 80       	ldd	r7, Z+5	; 0x05
    44be:	86 80       	ldd	r8, Z+6	; 0x06
    44c0:	97 80       	ldd	r9, Z+7	; 0x07
    44c2:	2a 2d       	mov	r18, r10
    44c4:	3b 2d       	mov	r19, r11
    44c6:	4c 2d       	mov	r20, r12
    44c8:	5d 2d       	mov	r21, r13
    44ca:	6e 2d       	mov	r22, r14
    44cc:	7f 2d       	mov	r23, r15
    44ce:	80 2f       	mov	r24, r16
    44d0:	91 2f       	mov	r25, r17
    44d2:	a2 2c       	mov	r10, r2
    44d4:	b3 2c       	mov	r11, r3
    44d6:	c4 2c       	mov	r12, r4
    44d8:	d5 2c       	mov	r13, r5
    44da:	e6 2c       	mov	r14, r6
    44dc:	f7 2c       	mov	r15, r7
    44de:	08 2d       	mov	r16, r8
    44e0:	19 2d       	mov	r17, r9
    44e2:	0e 94 ef 01 	call	0x3de	; 0x3de <__divdi3>
    44e6:	a2 2e       	mov	r10, r18
    44e8:	b3 2e       	mov	r11, r19
    44ea:	c4 2e       	mov	r12, r20
    44ec:	d5 2e       	mov	r13, r21
    44ee:	e6 2e       	mov	r14, r22
    44f0:	f7 2e       	mov	r15, r23
    44f2:	08 2f       	mov	r16, r24
    44f4:	19 2f       	mov	r17, r25
    44f6:	2a 2d       	mov	r18, r10
    44f8:	3b 2d       	mov	r19, r11
    44fa:	4c 2d       	mov	r20, r12
    44fc:	5d 2d       	mov	r21, r13
    44fe:	6e 2d       	mov	r22, r14
    4500:	7f 2d       	mov	r23, r15
    4502:	80 2f       	mov	r24, r16
    4504:	91 2f       	mov	r25, r17
    4506:	e8 85       	ldd	r30, Y+8	; 0x08
    4508:	f9 85       	ldd	r31, Y+9	; 0x09
    450a:	ee 0f       	add	r30, r30
    450c:	ff 1f       	adc	r31, r31
    450e:	ee 0f       	add	r30, r30
    4510:	ff 1f       	adc	r31, r31
    4512:	ee 0f       	add	r30, r30
    4514:	ff 1f       	adc	r31, r31
    4516:	ea 53       	subi	r30, 0x3A	; 58
    4518:	fe 4f       	sbci	r31, 0xFE	; 254
    451a:	20 83       	st	Z, r18
    451c:	31 83       	std	Z+1, r19	; 0x01
    451e:	42 83       	std	Z+2, r20	; 0x02
    4520:	53 83       	std	Z+3, r21	; 0x03
    4522:	64 83       	std	Z+4, r22	; 0x04
    4524:	75 83       	std	Z+5, r23	; 0x05
    4526:	86 83       	std	Z+6, r24	; 0x06
    4528:	97 83       	std	Z+7, r25	; 0x07
				whole_numbers[i+1] = 0;
    452a:	89 81       	ldd	r24, Y+1	; 0x01
    452c:	88 2f       	mov	r24, r24
    452e:	90 e0       	ldi	r25, 0x00	; 0
    4530:	01 96       	adiw	r24, 0x01	; 1
    4532:	88 0f       	add	r24, r24
    4534:	99 1f       	adc	r25, r25
    4536:	88 0f       	add	r24, r24
    4538:	99 1f       	adc	r25, r25
    453a:	88 0f       	add	r24, r24
    453c:	99 1f       	adc	r25, r25
    453e:	fc 01       	movw	r30, r24
    4540:	ea 53       	subi	r30, 0x3A	; 58
    4542:	fe 4f       	sbci	r31, 0xFE	; 254
    4544:	10 82       	st	Z, r1
    4546:	11 82       	std	Z+1, r1	; 0x01
    4548:	12 82       	std	Z+2, r1	; 0x02
    454a:	13 82       	std	Z+3, r1	; 0x03
    454c:	14 82       	std	Z+4, r1	; 0x04
    454e:	15 82       	std	Z+5, r1	; 0x05
    4550:	16 82       	std	Z+6, r1	; 0x06
    4552:	17 82       	std	Z+7, r1	; 0x07
				operations[i] = '+';
    4554:	89 81       	ldd	r24, Y+1	; 0x01
    4556:	88 2f       	mov	r24, r24
    4558:	90 e0       	ldi	r25, 0x00	; 0
    455a:	fc 01       	movw	r30, r24
    455c:	e2 55       	subi	r30, 0x52	; 82
    455e:	fc 4f       	sbci	r31, 0xFC	; 252
    4560:	8b e2       	ldi	r24, 0x2B	; 43
    4562:	80 83       	st	Z, r24
    4564:	a3 c1       	rjmp	.+838    	; 0x48ac <Equation_Simplification+0x518>
			}
			else
			{
				whole_numbers[i+1] = whole_numbers[i]/whole_numbers[i+1];
    4566:	89 81       	ldd	r24, Y+1	; 0x01
    4568:	88 2f       	mov	r24, r24
    456a:	90 e0       	ldi	r25, 0x00	; 0
    456c:	9c 01       	movw	r18, r24
    456e:	2f 5f       	subi	r18, 0xFF	; 255
    4570:	3f 4f       	sbci	r19, 0xFF	; 255
    4572:	3f 83       	std	Y+7, r19	; 0x07
    4574:	2e 83       	std	Y+6, r18	; 0x06
    4576:	89 81       	ldd	r24, Y+1	; 0x01
    4578:	88 2f       	mov	r24, r24
    457a:	90 e0       	ldi	r25, 0x00	; 0
    457c:	88 0f       	add	r24, r24
    457e:	99 1f       	adc	r25, r25
    4580:	88 0f       	add	r24, r24
    4582:	99 1f       	adc	r25, r25
    4584:	88 0f       	add	r24, r24
    4586:	99 1f       	adc	r25, r25
    4588:	fc 01       	movw	r30, r24
    458a:	ea 53       	subi	r30, 0x3A	; 58
    458c:	fe 4f       	sbci	r31, 0xFE	; 254
    458e:	a0 80       	ld	r10, Z
    4590:	b1 80       	ldd	r11, Z+1	; 0x01
    4592:	c2 80       	ldd	r12, Z+2	; 0x02
    4594:	d3 80       	ldd	r13, Z+3	; 0x03
    4596:	e4 80       	ldd	r14, Z+4	; 0x04
    4598:	f5 80       	ldd	r15, Z+5	; 0x05
    459a:	06 81       	ldd	r16, Z+6	; 0x06
    459c:	17 81       	ldd	r17, Z+7	; 0x07
    459e:	89 81       	ldd	r24, Y+1	; 0x01
    45a0:	88 2f       	mov	r24, r24
    45a2:	90 e0       	ldi	r25, 0x00	; 0
    45a4:	01 96       	adiw	r24, 0x01	; 1
    45a6:	88 0f       	add	r24, r24
    45a8:	99 1f       	adc	r25, r25
    45aa:	88 0f       	add	r24, r24
    45ac:	99 1f       	adc	r25, r25
    45ae:	88 0f       	add	r24, r24
    45b0:	99 1f       	adc	r25, r25
    45b2:	fc 01       	movw	r30, r24
    45b4:	ea 53       	subi	r30, 0x3A	; 58
    45b6:	fe 4f       	sbci	r31, 0xFE	; 254
    45b8:	20 80       	ld	r2, Z
    45ba:	31 80       	ldd	r3, Z+1	; 0x01
    45bc:	42 80       	ldd	r4, Z+2	; 0x02
    45be:	53 80       	ldd	r5, Z+3	; 0x03
    45c0:	64 80       	ldd	r6, Z+4	; 0x04
    45c2:	75 80       	ldd	r7, Z+5	; 0x05
    45c4:	86 80       	ldd	r8, Z+6	; 0x06
    45c6:	97 80       	ldd	r9, Z+7	; 0x07
    45c8:	2a 2d       	mov	r18, r10
    45ca:	3b 2d       	mov	r19, r11
    45cc:	4c 2d       	mov	r20, r12
    45ce:	5d 2d       	mov	r21, r13
    45d0:	6e 2d       	mov	r22, r14
    45d2:	7f 2d       	mov	r23, r15
    45d4:	80 2f       	mov	r24, r16
    45d6:	91 2f       	mov	r25, r17
    45d8:	a2 2c       	mov	r10, r2
    45da:	b3 2c       	mov	r11, r3
    45dc:	c4 2c       	mov	r12, r4
    45de:	d5 2c       	mov	r13, r5
    45e0:	e6 2c       	mov	r14, r6
    45e2:	f7 2c       	mov	r15, r7
    45e4:	08 2d       	mov	r16, r8
    45e6:	19 2d       	mov	r17, r9
    45e8:	0e 94 ef 01 	call	0x3de	; 0x3de <__divdi3>
    45ec:	a2 2e       	mov	r10, r18
    45ee:	b3 2e       	mov	r11, r19
    45f0:	c4 2e       	mov	r12, r20
    45f2:	d5 2e       	mov	r13, r21
    45f4:	e6 2e       	mov	r14, r22
    45f6:	f7 2e       	mov	r15, r23
    45f8:	08 2f       	mov	r16, r24
    45fa:	19 2f       	mov	r17, r25
    45fc:	2a 2d       	mov	r18, r10
    45fe:	3b 2d       	mov	r19, r11
    4600:	4c 2d       	mov	r20, r12
    4602:	5d 2d       	mov	r21, r13
    4604:	6e 2d       	mov	r22, r14
    4606:	7f 2d       	mov	r23, r15
    4608:	80 2f       	mov	r24, r16
    460a:	91 2f       	mov	r25, r17
    460c:	ee 81       	ldd	r30, Y+6	; 0x06
    460e:	ff 81       	ldd	r31, Y+7	; 0x07
    4610:	ee 0f       	add	r30, r30
    4612:	ff 1f       	adc	r31, r31
    4614:	ee 0f       	add	r30, r30
    4616:	ff 1f       	adc	r31, r31
    4618:	ee 0f       	add	r30, r30
    461a:	ff 1f       	adc	r31, r31
    461c:	ea 53       	subi	r30, 0x3A	; 58
    461e:	fe 4f       	sbci	r31, 0xFE	; 254
    4620:	20 83       	st	Z, r18
    4622:	31 83       	std	Z+1, r19	; 0x01
    4624:	42 83       	std	Z+2, r20	; 0x02
    4626:	53 83       	std	Z+3, r21	; 0x03
    4628:	64 83       	std	Z+4, r22	; 0x04
    462a:	75 83       	std	Z+5, r23	; 0x05
    462c:	86 83       	std	Z+6, r24	; 0x06
    462e:	97 83       	std	Z+7, r25	; 0x07
				whole_numbers[i] = 0;
    4630:	89 81       	ldd	r24, Y+1	; 0x01
    4632:	88 2f       	mov	r24, r24
    4634:	90 e0       	ldi	r25, 0x00	; 0
    4636:	88 0f       	add	r24, r24
    4638:	99 1f       	adc	r25, r25
    463a:	88 0f       	add	r24, r24
    463c:	99 1f       	adc	r25, r25
    463e:	88 0f       	add	r24, r24
    4640:	99 1f       	adc	r25, r25
    4642:	fc 01       	movw	r30, r24
    4644:	ea 53       	subi	r30, 0x3A	; 58
    4646:	fe 4f       	sbci	r31, 0xFE	; 254
    4648:	10 82       	st	Z, r1
    464a:	11 82       	std	Z+1, r1	; 0x01
    464c:	12 82       	std	Z+2, r1	; 0x02
    464e:	13 82       	std	Z+3, r1	; 0x03
    4650:	14 82       	std	Z+4, r1	; 0x04
    4652:	15 82       	std	Z+5, r1	; 0x05
    4654:	16 82       	std	Z+6, r1	; 0x06
    4656:	17 82       	std	Z+7, r1	; 0x07
				operations[i] = '+';
    4658:	89 81       	ldd	r24, Y+1	; 0x01
    465a:	88 2f       	mov	r24, r24
    465c:	90 e0       	ldi	r25, 0x00	; 0
    465e:	fc 01       	movw	r30, r24
    4660:	e2 55       	subi	r30, 0x52	; 82
    4662:	fc 4f       	sbci	r31, 0xFC	; 252
    4664:	8b e2       	ldi	r24, 0x2B	; 43
    4666:	80 83       	st	Z, r24
    4668:	21 c1       	rjmp	.+578    	; 0x48ac <Equation_Simplification+0x518>
			}
		}
		else if(operations[i] == '*')
    466a:	89 81       	ldd	r24, Y+1	; 0x01
    466c:	88 2f       	mov	r24, r24
    466e:	90 e0       	ldi	r25, 0x00	; 0
    4670:	fc 01       	movw	r30, r24
    4672:	e2 55       	subi	r30, 0x52	; 82
    4674:	fc 4f       	sbci	r31, 0xFC	; 252
    4676:	80 81       	ld	r24, Z
    4678:	8a 32       	cpi	r24, 0x2A	; 42
    467a:	09 f0       	breq	.+2      	; 0x467e <Equation_Simplification+0x2ea>
    467c:	17 c1       	rjmp	.+558    	; 0x48ac <Equation_Simplification+0x518>
		{
			if(operations[i+1] != '*' && operations[i+1] != '/')
    467e:	89 81       	ldd	r24, Y+1	; 0x01
    4680:	88 2f       	mov	r24, r24
    4682:	90 e0       	ldi	r25, 0x00	; 0
    4684:	01 96       	adiw	r24, 0x01	; 1
    4686:	fc 01       	movw	r30, r24
    4688:	e2 55       	subi	r30, 0x52	; 82
    468a:	fc 4f       	sbci	r31, 0xFC	; 252
    468c:	80 81       	ld	r24, Z
    468e:	8a 32       	cpi	r24, 0x2A	; 42
    4690:	09 f4       	brne	.+2      	; 0x4694 <Equation_Simplification+0x300>
    4692:	8b c0       	rjmp	.+278    	; 0x47aa <Equation_Simplification+0x416>
    4694:	89 81       	ldd	r24, Y+1	; 0x01
    4696:	88 2f       	mov	r24, r24
    4698:	90 e0       	ldi	r25, 0x00	; 0
    469a:	01 96       	adiw	r24, 0x01	; 1
    469c:	fc 01       	movw	r30, r24
    469e:	e2 55       	subi	r30, 0x52	; 82
    46a0:	fc 4f       	sbci	r31, 0xFC	; 252
    46a2:	80 81       	ld	r24, Z
    46a4:	8f 32       	cpi	r24, 0x2F	; 47
    46a6:	09 f4       	brne	.+2      	; 0x46aa <Equation_Simplification+0x316>
    46a8:	80 c0       	rjmp	.+256    	; 0x47aa <Equation_Simplification+0x416>
			{
				whole_numbers[i] = whole_numbers[i]*whole_numbers[i+1];
    46aa:	89 81       	ldd	r24, Y+1	; 0x01
    46ac:	28 2f       	mov	r18, r24
    46ae:	30 e0       	ldi	r19, 0x00	; 0
    46b0:	3d 83       	std	Y+5, r19	; 0x05
    46b2:	2c 83       	std	Y+4, r18	; 0x04
    46b4:	89 81       	ldd	r24, Y+1	; 0x01
    46b6:	88 2f       	mov	r24, r24
    46b8:	90 e0       	ldi	r25, 0x00	; 0
    46ba:	88 0f       	add	r24, r24
    46bc:	99 1f       	adc	r25, r25
    46be:	88 0f       	add	r24, r24
    46c0:	99 1f       	adc	r25, r25
    46c2:	88 0f       	add	r24, r24
    46c4:	99 1f       	adc	r25, r25
    46c6:	fc 01       	movw	r30, r24
    46c8:	ea 53       	subi	r30, 0x3A	; 58
    46ca:	fe 4f       	sbci	r31, 0xFE	; 254
    46cc:	a0 80       	ld	r10, Z
    46ce:	b1 80       	ldd	r11, Z+1	; 0x01
    46d0:	c2 80       	ldd	r12, Z+2	; 0x02
    46d2:	d3 80       	ldd	r13, Z+3	; 0x03
    46d4:	e4 80       	ldd	r14, Z+4	; 0x04
    46d6:	f5 80       	ldd	r15, Z+5	; 0x05
    46d8:	06 81       	ldd	r16, Z+6	; 0x06
    46da:	17 81       	ldd	r17, Z+7	; 0x07
    46dc:	89 81       	ldd	r24, Y+1	; 0x01
    46de:	88 2f       	mov	r24, r24
    46e0:	90 e0       	ldi	r25, 0x00	; 0
    46e2:	01 96       	adiw	r24, 0x01	; 1
    46e4:	88 0f       	add	r24, r24
    46e6:	99 1f       	adc	r25, r25
    46e8:	88 0f       	add	r24, r24
    46ea:	99 1f       	adc	r25, r25
    46ec:	88 0f       	add	r24, r24
    46ee:	99 1f       	adc	r25, r25
    46f0:	fc 01       	movw	r30, r24
    46f2:	ea 53       	subi	r30, 0x3A	; 58
    46f4:	fe 4f       	sbci	r31, 0xFE	; 254
    46f6:	20 80       	ld	r2, Z
    46f8:	31 80       	ldd	r3, Z+1	; 0x01
    46fa:	42 80       	ldd	r4, Z+2	; 0x02
    46fc:	53 80       	ldd	r5, Z+3	; 0x03
    46fe:	64 80       	ldd	r6, Z+4	; 0x04
    4700:	75 80       	ldd	r7, Z+5	; 0x05
    4702:	86 80       	ldd	r8, Z+6	; 0x06
    4704:	97 80       	ldd	r9, Z+7	; 0x07
    4706:	2a 2d       	mov	r18, r10
    4708:	3b 2d       	mov	r19, r11
    470a:	4c 2d       	mov	r20, r12
    470c:	5d 2d       	mov	r21, r13
    470e:	6e 2d       	mov	r22, r14
    4710:	7f 2d       	mov	r23, r15
    4712:	80 2f       	mov	r24, r16
    4714:	91 2f       	mov	r25, r17
    4716:	a2 2c       	mov	r10, r2
    4718:	b3 2c       	mov	r11, r3
    471a:	c4 2c       	mov	r12, r4
    471c:	d5 2c       	mov	r13, r5
    471e:	e6 2c       	mov	r14, r6
    4720:	f7 2c       	mov	r15, r7
    4722:	08 2d       	mov	r16, r8
    4724:	19 2d       	mov	r17, r9
    4726:	0e 94 49 00 	call	0x92	; 0x92 <__muldi3>
    472a:	a2 2e       	mov	r10, r18
    472c:	b3 2e       	mov	r11, r19
    472e:	c4 2e       	mov	r12, r20
    4730:	d5 2e       	mov	r13, r21
    4732:	e6 2e       	mov	r14, r22
    4734:	f7 2e       	mov	r15, r23
    4736:	08 2f       	mov	r16, r24
    4738:	19 2f       	mov	r17, r25
    473a:	2a 2d       	mov	r18, r10
    473c:	3b 2d       	mov	r19, r11
    473e:	4c 2d       	mov	r20, r12
    4740:	5d 2d       	mov	r21, r13
    4742:	6e 2d       	mov	r22, r14
    4744:	7f 2d       	mov	r23, r15
    4746:	80 2f       	mov	r24, r16
    4748:	91 2f       	mov	r25, r17
    474a:	ec 81       	ldd	r30, Y+4	; 0x04
    474c:	fd 81       	ldd	r31, Y+5	; 0x05
    474e:	ee 0f       	add	r30, r30
    4750:	ff 1f       	adc	r31, r31
    4752:	ee 0f       	add	r30, r30
    4754:	ff 1f       	adc	r31, r31
    4756:	ee 0f       	add	r30, r30
    4758:	ff 1f       	adc	r31, r31
    475a:	ea 53       	subi	r30, 0x3A	; 58
    475c:	fe 4f       	sbci	r31, 0xFE	; 254
    475e:	20 83       	st	Z, r18
    4760:	31 83       	std	Z+1, r19	; 0x01
    4762:	42 83       	std	Z+2, r20	; 0x02
    4764:	53 83       	std	Z+3, r21	; 0x03
    4766:	64 83       	std	Z+4, r22	; 0x04
    4768:	75 83       	std	Z+5, r23	; 0x05
    476a:	86 83       	std	Z+6, r24	; 0x06
    476c:	97 83       	std	Z+7, r25	; 0x07
				whole_numbers[i+1] = 0;
    476e:	89 81       	ldd	r24, Y+1	; 0x01
    4770:	88 2f       	mov	r24, r24
    4772:	90 e0       	ldi	r25, 0x00	; 0
    4774:	01 96       	adiw	r24, 0x01	; 1
    4776:	88 0f       	add	r24, r24
    4778:	99 1f       	adc	r25, r25
    477a:	88 0f       	add	r24, r24
    477c:	99 1f       	adc	r25, r25
    477e:	88 0f       	add	r24, r24
    4780:	99 1f       	adc	r25, r25
    4782:	fc 01       	movw	r30, r24
    4784:	ea 53       	subi	r30, 0x3A	; 58
    4786:	fe 4f       	sbci	r31, 0xFE	; 254
    4788:	10 82       	st	Z, r1
    478a:	11 82       	std	Z+1, r1	; 0x01
    478c:	12 82       	std	Z+2, r1	; 0x02
    478e:	13 82       	std	Z+3, r1	; 0x03
    4790:	14 82       	std	Z+4, r1	; 0x04
    4792:	15 82       	std	Z+5, r1	; 0x05
    4794:	16 82       	std	Z+6, r1	; 0x06
    4796:	17 82       	std	Z+7, r1	; 0x07
				operations[i] = '+';
    4798:	89 81       	ldd	r24, Y+1	; 0x01
    479a:	88 2f       	mov	r24, r24
    479c:	90 e0       	ldi	r25, 0x00	; 0
    479e:	fc 01       	movw	r30, r24
    47a0:	e2 55       	subi	r30, 0x52	; 82
    47a2:	fc 4f       	sbci	r31, 0xFC	; 252
    47a4:	8b e2       	ldi	r24, 0x2B	; 43
    47a6:	80 83       	st	Z, r24
    47a8:	81 c0       	rjmp	.+258    	; 0x48ac <Equation_Simplification+0x518>
			}
			else
			{
				whole_numbers[i+1] = whole_numbers[i]*whole_numbers[i+1];
    47aa:	89 81       	ldd	r24, Y+1	; 0x01
    47ac:	88 2f       	mov	r24, r24
    47ae:	90 e0       	ldi	r25, 0x00	; 0
    47b0:	9c 01       	movw	r18, r24
    47b2:	2f 5f       	subi	r18, 0xFF	; 255
    47b4:	3f 4f       	sbci	r19, 0xFF	; 255
    47b6:	3b 83       	std	Y+3, r19	; 0x03
    47b8:	2a 83       	std	Y+2, r18	; 0x02
    47ba:	89 81       	ldd	r24, Y+1	; 0x01
    47bc:	88 2f       	mov	r24, r24
    47be:	90 e0       	ldi	r25, 0x00	; 0
    47c0:	88 0f       	add	r24, r24
    47c2:	99 1f       	adc	r25, r25
    47c4:	88 0f       	add	r24, r24
    47c6:	99 1f       	adc	r25, r25
    47c8:	88 0f       	add	r24, r24
    47ca:	99 1f       	adc	r25, r25
    47cc:	fc 01       	movw	r30, r24
    47ce:	ea 53       	subi	r30, 0x3A	; 58
    47d0:	fe 4f       	sbci	r31, 0xFE	; 254
    47d2:	a0 80       	ld	r10, Z
    47d4:	b1 80       	ldd	r11, Z+1	; 0x01
    47d6:	c2 80       	ldd	r12, Z+2	; 0x02
    47d8:	d3 80       	ldd	r13, Z+3	; 0x03
    47da:	e4 80       	ldd	r14, Z+4	; 0x04
    47dc:	f5 80       	ldd	r15, Z+5	; 0x05
    47de:	06 81       	ldd	r16, Z+6	; 0x06
    47e0:	17 81       	ldd	r17, Z+7	; 0x07
    47e2:	89 81       	ldd	r24, Y+1	; 0x01
    47e4:	88 2f       	mov	r24, r24
    47e6:	90 e0       	ldi	r25, 0x00	; 0
    47e8:	01 96       	adiw	r24, 0x01	; 1
    47ea:	88 0f       	add	r24, r24
    47ec:	99 1f       	adc	r25, r25
    47ee:	88 0f       	add	r24, r24
    47f0:	99 1f       	adc	r25, r25
    47f2:	88 0f       	add	r24, r24
    47f4:	99 1f       	adc	r25, r25
    47f6:	fc 01       	movw	r30, r24
    47f8:	ea 53       	subi	r30, 0x3A	; 58
    47fa:	fe 4f       	sbci	r31, 0xFE	; 254
    47fc:	20 80       	ld	r2, Z
    47fe:	31 80       	ldd	r3, Z+1	; 0x01
    4800:	42 80       	ldd	r4, Z+2	; 0x02
    4802:	53 80       	ldd	r5, Z+3	; 0x03
    4804:	64 80       	ldd	r6, Z+4	; 0x04
    4806:	75 80       	ldd	r7, Z+5	; 0x05
    4808:	86 80       	ldd	r8, Z+6	; 0x06
    480a:	97 80       	ldd	r9, Z+7	; 0x07
    480c:	2a 2d       	mov	r18, r10
    480e:	3b 2d       	mov	r19, r11
    4810:	4c 2d       	mov	r20, r12
    4812:	5d 2d       	mov	r21, r13
    4814:	6e 2d       	mov	r22, r14
    4816:	7f 2d       	mov	r23, r15
    4818:	80 2f       	mov	r24, r16
    481a:	91 2f       	mov	r25, r17
    481c:	a2 2c       	mov	r10, r2
    481e:	b3 2c       	mov	r11, r3
    4820:	c4 2c       	mov	r12, r4
    4822:	d5 2c       	mov	r13, r5
    4824:	e6 2c       	mov	r14, r6
    4826:	f7 2c       	mov	r15, r7
    4828:	08 2d       	mov	r16, r8
    482a:	19 2d       	mov	r17, r9
    482c:	0e 94 49 00 	call	0x92	; 0x92 <__muldi3>
    4830:	a2 2e       	mov	r10, r18
    4832:	b3 2e       	mov	r11, r19
    4834:	c4 2e       	mov	r12, r20
    4836:	d5 2e       	mov	r13, r21
    4838:	e6 2e       	mov	r14, r22
    483a:	f7 2e       	mov	r15, r23
    483c:	08 2f       	mov	r16, r24
    483e:	19 2f       	mov	r17, r25
    4840:	2a 2d       	mov	r18, r10
    4842:	3b 2d       	mov	r19, r11
    4844:	4c 2d       	mov	r20, r12
    4846:	5d 2d       	mov	r21, r13
    4848:	6e 2d       	mov	r22, r14
    484a:	7f 2d       	mov	r23, r15
    484c:	80 2f       	mov	r24, r16
    484e:	91 2f       	mov	r25, r17
    4850:	ea 81       	ldd	r30, Y+2	; 0x02
    4852:	fb 81       	ldd	r31, Y+3	; 0x03
    4854:	ee 0f       	add	r30, r30
    4856:	ff 1f       	adc	r31, r31
    4858:	ee 0f       	add	r30, r30
    485a:	ff 1f       	adc	r31, r31
    485c:	ee 0f       	add	r30, r30
    485e:	ff 1f       	adc	r31, r31
    4860:	ea 53       	subi	r30, 0x3A	; 58
    4862:	fe 4f       	sbci	r31, 0xFE	; 254
    4864:	20 83       	st	Z, r18
    4866:	31 83       	std	Z+1, r19	; 0x01
    4868:	42 83       	std	Z+2, r20	; 0x02
    486a:	53 83       	std	Z+3, r21	; 0x03
    486c:	64 83       	std	Z+4, r22	; 0x04
    486e:	75 83       	std	Z+5, r23	; 0x05
    4870:	86 83       	std	Z+6, r24	; 0x06
    4872:	97 83       	std	Z+7, r25	; 0x07
				whole_numbers[i] = 0;
    4874:	89 81       	ldd	r24, Y+1	; 0x01
    4876:	88 2f       	mov	r24, r24
    4878:	90 e0       	ldi	r25, 0x00	; 0
    487a:	88 0f       	add	r24, r24
    487c:	99 1f       	adc	r25, r25
    487e:	88 0f       	add	r24, r24
    4880:	99 1f       	adc	r25, r25
    4882:	88 0f       	add	r24, r24
    4884:	99 1f       	adc	r25, r25
    4886:	fc 01       	movw	r30, r24
    4888:	ea 53       	subi	r30, 0x3A	; 58
    488a:	fe 4f       	sbci	r31, 0xFE	; 254
    488c:	10 82       	st	Z, r1
    488e:	11 82       	std	Z+1, r1	; 0x01
    4890:	12 82       	std	Z+2, r1	; 0x02
    4892:	13 82       	std	Z+3, r1	; 0x03
    4894:	14 82       	std	Z+4, r1	; 0x04
    4896:	15 82       	std	Z+5, r1	; 0x05
    4898:	16 82       	std	Z+6, r1	; 0x06
    489a:	17 82       	std	Z+7, r1	; 0x07
				operations[i] = '+';
    489c:	89 81       	ldd	r24, Y+1	; 0x01
    489e:	88 2f       	mov	r24, r24
    48a0:	90 e0       	ldi	r25, 0x00	; 0
    48a2:	fc 01       	movw	r30, r24
    48a4:	e2 55       	subi	r30, 0x52	; 82
    48a6:	fc 4f       	sbci	r31, 0xFC	; 252
    48a8:	8b e2       	ldi	r24, 0x2B	; 43
    48aa:	80 83       	st	Z, r24
}
sint64 Equation_Simplification()
{
	uint8 i = 0;

	for(;i<whole_numbers_counter;i++)
    48ac:	89 81       	ldd	r24, Y+1	; 0x01
    48ae:	8f 5f       	subi	r24, 0xFF	; 255
    48b0:	89 83       	std	Y+1, r24	; 0x01
    48b2:	90 91 b9 03 	lds	r25, 0x03B9
    48b6:	89 81       	ldd	r24, Y+1	; 0x01
    48b8:	89 17       	cp	r24, r25
    48ba:	08 f4       	brcc	.+2      	; 0x48be <Equation_Simplification+0x52a>
    48bc:	87 cd       	rjmp	.-1266   	; 0x43cc <Equation_Simplification+0x38>
				operations[i] = '+';
			}
		}

	}
	return Second_Simplification();
    48be:	0e 94 9a 24 	call	0x4934	; 0x4934 <Second_Simplification>
    48c2:	a2 2e       	mov	r10, r18
    48c4:	b3 2e       	mov	r11, r19
    48c6:	c4 2e       	mov	r12, r20
    48c8:	d5 2e       	mov	r13, r21
    48ca:	e6 2e       	mov	r14, r22
    48cc:	f7 2e       	mov	r15, r23
    48ce:	08 2f       	mov	r16, r24
    48d0:	19 2f       	mov	r17, r25
    48d2:	aa 86       	std	Y+10, r10	; 0x0a
    48d4:	bb 86       	std	Y+11, r11	; 0x0b
    48d6:	cc 86       	std	Y+12, r12	; 0x0c
    48d8:	dd 86       	std	Y+13, r13	; 0x0d
    48da:	ee 86       	std	Y+14, r14	; 0x0e
    48dc:	ff 86       	std	Y+15, r15	; 0x0f
    48de:	08 8b       	std	Y+16, r16	; 0x10
    48e0:	19 8b       	std	Y+17, r17	; 0x11
    48e2:	aa 84       	ldd	r10, Y+10	; 0x0a
    48e4:	bb 84       	ldd	r11, Y+11	; 0x0b
    48e6:	cc 84       	ldd	r12, Y+12	; 0x0c
    48e8:	dd 84       	ldd	r13, Y+13	; 0x0d
    48ea:	ee 84       	ldd	r14, Y+14	; 0x0e
    48ec:	ff 84       	ldd	r15, Y+15	; 0x0f
    48ee:	08 89       	ldd	r16, Y+16	; 0x10
    48f0:	19 89       	ldd	r17, Y+17	; 0x11
}
    48f2:	2a 2d       	mov	r18, r10
    48f4:	3b 2d       	mov	r19, r11
    48f6:	4c 2d       	mov	r20, r12
    48f8:	5d 2d       	mov	r21, r13
    48fa:	6e 2d       	mov	r22, r14
    48fc:	7f 2d       	mov	r23, r15
    48fe:	80 2f       	mov	r24, r16
    4900:	91 2f       	mov	r25, r17
    4902:	61 96       	adiw	r28, 0x11	; 17
    4904:	0f b6       	in	r0, 0x3f	; 63
    4906:	f8 94       	cli
    4908:	de bf       	out	0x3e, r29	; 62
    490a:	0f be       	out	0x3f, r0	; 63
    490c:	cd bf       	out	0x3d, r28	; 61
    490e:	cf 91       	pop	r28
    4910:	df 91       	pop	r29
    4912:	1f 91       	pop	r17
    4914:	0f 91       	pop	r16
    4916:	ff 90       	pop	r15
    4918:	ef 90       	pop	r14
    491a:	df 90       	pop	r13
    491c:	cf 90       	pop	r12
    491e:	bf 90       	pop	r11
    4920:	af 90       	pop	r10
    4922:	9f 90       	pop	r9
    4924:	8f 90       	pop	r8
    4926:	7f 90       	pop	r7
    4928:	6f 90       	pop	r6
    492a:	5f 90       	pop	r5
    492c:	4f 90       	pop	r4
    492e:	3f 90       	pop	r3
    4930:	2f 90       	pop	r2
    4932:	08 95       	ret

00004934 <Second_Simplification>:

sint64 Second_Simplification(void)
{
    4934:	af 92       	push	r10
    4936:	bf 92       	push	r11
    4938:	cf 92       	push	r12
    493a:	df 92       	push	r13
    493c:	ef 92       	push	r14
    493e:	ff 92       	push	r15
    4940:	0f 93       	push	r16
    4942:	1f 93       	push	r17
    4944:	df 93       	push	r29
    4946:	cf 93       	push	r28
    4948:	cd b7       	in	r28, 0x3d	; 61
    494a:	de b7       	in	r29, 0x3e	; 62
    494c:	c0 56       	subi	r28, 0x60	; 96
    494e:	d0 40       	sbci	r29, 0x00	; 0
    4950:	0f b6       	in	r0, 0x3f	; 63
    4952:	f8 94       	cli
    4954:	de bf       	out	0x3e, r29	; 62
    4956:	0f be       	out	0x3f, r0	; 63
    4958:	cd bf       	out	0x3d, r28	; 61
	uint8 operand_counter = 0;
    495a:	1a 86       	std	Y+10, r1	; 0x0a
	uint8 operation_counter = 0;
    495c:	19 86       	std	Y+9, r1	; 0x09
	sint64 res = whole_numbers[operand_counter++];
    495e:	8a 85       	ldd	r24, Y+10	; 0x0a
    4960:	88 2f       	mov	r24, r24
    4962:	90 e0       	ldi	r25, 0x00	; 0
    4964:	88 0f       	add	r24, r24
    4966:	99 1f       	adc	r25, r25
    4968:	88 0f       	add	r24, r24
    496a:	99 1f       	adc	r25, r25
    496c:	88 0f       	add	r24, r24
    496e:	99 1f       	adc	r25, r25
    4970:	fc 01       	movw	r30, r24
    4972:	ea 53       	subi	r30, 0x3A	; 58
    4974:	fe 4f       	sbci	r31, 0xFE	; 254
    4976:	80 81       	ld	r24, Z
    4978:	89 83       	std	Y+1, r24	; 0x01
    497a:	81 81       	ldd	r24, Z+1	; 0x01
    497c:	8a 83       	std	Y+2, r24	; 0x02
    497e:	82 81       	ldd	r24, Z+2	; 0x02
    4980:	8b 83       	std	Y+3, r24	; 0x03
    4982:	83 81       	ldd	r24, Z+3	; 0x03
    4984:	8c 83       	std	Y+4, r24	; 0x04
    4986:	84 81       	ldd	r24, Z+4	; 0x04
    4988:	8d 83       	std	Y+5, r24	; 0x05
    498a:	85 81       	ldd	r24, Z+5	; 0x05
    498c:	8e 83       	std	Y+6, r24	; 0x06
    498e:	86 81       	ldd	r24, Z+6	; 0x06
    4990:	8f 83       	std	Y+7, r24	; 0x07
    4992:	87 81       	ldd	r24, Z+7	; 0x07
    4994:	88 87       	std	Y+8, r24	; 0x08
    4996:	8a 85       	ldd	r24, Y+10	; 0x0a
    4998:	8f 5f       	subi	r24, 0xFF	; 255
    499a:	8a 87       	std	Y+10, r24	; 0x0a
    499c:	11 c3       	rjmp	.+1570   	; 0x4fc0 <Second_Simplification+0x68c>
	while(operand_counter < whole_numbers_counter)
	{
		if(operations[operation_counter] == '-')
    499e:	89 85       	ldd	r24, Y+9	; 0x09
    49a0:	88 2f       	mov	r24, r24
    49a2:	90 e0       	ldi	r25, 0x00	; 0
    49a4:	fc 01       	movw	r30, r24
    49a6:	e2 55       	subi	r30, 0x52	; 82
    49a8:	fc 4f       	sbci	r31, 0xFC	; 252
    49aa:	80 81       	ld	r24, Z
    49ac:	8d 32       	cpi	r24, 0x2D	; 45
    49ae:	09 f0       	breq	.+2      	; 0x49b2 <Second_Simplification+0x7e>
    49b0:	fe c0       	rjmp	.+508    	; 0x4bae <Second_Simplification+0x27a>
		{
			res -= whole_numbers[operand_counter++];
    49b2:	8a 85       	ldd	r24, Y+10	; 0x0a
    49b4:	88 2f       	mov	r24, r24
    49b6:	90 e0       	ldi	r25, 0x00	; 0
    49b8:	88 0f       	add	r24, r24
    49ba:	99 1f       	adc	r25, r25
    49bc:	88 0f       	add	r24, r24
    49be:	99 1f       	adc	r25, r25
    49c0:	88 0f       	add	r24, r24
    49c2:	99 1f       	adc	r25, r25
    49c4:	fc 01       	movw	r30, r24
    49c6:	ea 53       	subi	r30, 0x3A	; 58
    49c8:	fe 4f       	sbci	r31, 0xFE	; 254
    49ca:	80 81       	ld	r24, Z
    49cc:	8b 8b       	std	Y+19, r24	; 0x13
    49ce:	91 81       	ldd	r25, Z+1	; 0x01
    49d0:	9c 8b       	std	Y+20, r25	; 0x14
    49d2:	82 81       	ldd	r24, Z+2	; 0x02
    49d4:	8d 8b       	std	Y+21, r24	; 0x15
    49d6:	93 81       	ldd	r25, Z+3	; 0x03
    49d8:	9e 8b       	std	Y+22, r25	; 0x16
    49da:	84 81       	ldd	r24, Z+4	; 0x04
    49dc:	8f 8b       	std	Y+23, r24	; 0x17
    49de:	95 81       	ldd	r25, Z+5	; 0x05
    49e0:	98 8f       	std	Y+24, r25	; 0x18
    49e2:	86 81       	ldd	r24, Z+6	; 0x06
    49e4:	89 8f       	std	Y+25, r24	; 0x19
    49e6:	97 81       	ldd	r25, Z+7	; 0x07
    49e8:	9a 8f       	std	Y+26, r25	; 0x1a
    49ea:	89 81       	ldd	r24, Y+1	; 0x01
    49ec:	8b 8f       	std	Y+27, r24	; 0x1b
    49ee:	9a 81       	ldd	r25, Y+2	; 0x02
    49f0:	9c 8f       	std	Y+28, r25	; 0x1c
    49f2:	8b 81       	ldd	r24, Y+3	; 0x03
    49f4:	8d 8f       	std	Y+29, r24	; 0x1d
    49f6:	9c 81       	ldd	r25, Y+4	; 0x04
    49f8:	9e 8f       	std	Y+30, r25	; 0x1e
    49fa:	8d 81       	ldd	r24, Y+5	; 0x05
    49fc:	8f 8f       	std	Y+31, r24	; 0x1f
    49fe:	9e 81       	ldd	r25, Y+6	; 0x06
    4a00:	98 a3       	std	Y+32, r25	; 0x20
    4a02:	8f 81       	ldd	r24, Y+7	; 0x07
    4a04:	89 a3       	std	Y+33, r24	; 0x21
    4a06:	98 85       	ldd	r25, Y+8	; 0x08
    4a08:	9a a3       	std	Y+34, r25	; 0x22
    4a0a:	8b 8d       	ldd	r24, Y+27	; 0x1b
    4a0c:	9b 89       	ldd	r25, Y+19	; 0x13
    4a0e:	89 1b       	sub	r24, r25
    4a10:	8b a3       	std	Y+35, r24	; 0x23
    4a12:	81 e0       	ldi	r24, 0x01	; 1
    4a14:	8b a7       	std	Y+43, r24	; 0x2b
    4a16:	9b a1       	ldd	r25, Y+35	; 0x23
    4a18:	8b 8d       	ldd	r24, Y+27	; 0x1b
    4a1a:	89 17       	cp	r24, r25
    4a1c:	08 f0       	brcs	.+2      	; 0x4a20 <Second_Simplification+0xec>
    4a1e:	1b a6       	std	Y+43, r1	; 0x2b
    4a20:	9c 8d       	ldd	r25, Y+28	; 0x1c
    4a22:	8c 89       	ldd	r24, Y+20	; 0x14
    4a24:	98 1b       	sub	r25, r24
    4a26:	9c a3       	std	Y+36, r25	; 0x24
    4a28:	91 e0       	ldi	r25, 0x01	; 1
    4a2a:	9c a7       	std	Y+44, r25	; 0x2c
    4a2c:	8c a1       	ldd	r24, Y+36	; 0x24
    4a2e:	9c 8d       	ldd	r25, Y+28	; 0x1c
    4a30:	98 17       	cp	r25, r24
    4a32:	08 f0       	brcs	.+2      	; 0x4a36 <Second_Simplification+0x102>
    4a34:	1c a6       	std	Y+44, r1	; 0x2c
    4a36:	8c a1       	ldd	r24, Y+36	; 0x24
    4a38:	9b a5       	ldd	r25, Y+43	; 0x2b
    4a3a:	89 1b       	sub	r24, r25
    4a3c:	8d a7       	std	Y+45, r24	; 0x2d
    4a3e:	81 e0       	ldi	r24, 0x01	; 1
    4a40:	8e a7       	std	Y+46, r24	; 0x2e
    4a42:	9d a5       	ldd	r25, Y+45	; 0x2d
    4a44:	8c a1       	ldd	r24, Y+36	; 0x24
    4a46:	89 17       	cp	r24, r25
    4a48:	08 f0       	brcs	.+2      	; 0x4a4c <Second_Simplification+0x118>
    4a4a:	1e a6       	std	Y+46, r1	; 0x2e
    4a4c:	9c a5       	ldd	r25, Y+44	; 0x2c
    4a4e:	8e a5       	ldd	r24, Y+46	; 0x2e
    4a50:	98 2b       	or	r25, r24
    4a52:	9c a7       	std	Y+44, r25	; 0x2c
    4a54:	9d a5       	ldd	r25, Y+45	; 0x2d
    4a56:	9c a3       	std	Y+36, r25	; 0x24
    4a58:	8d 8d       	ldd	r24, Y+29	; 0x1d
    4a5a:	9d 89       	ldd	r25, Y+21	; 0x15
    4a5c:	89 1b       	sub	r24, r25
    4a5e:	8d a3       	std	Y+37, r24	; 0x25
    4a60:	81 e0       	ldi	r24, 0x01	; 1
    4a62:	8f a7       	std	Y+47, r24	; 0x2f
    4a64:	9d a1       	ldd	r25, Y+37	; 0x25
    4a66:	8d 8d       	ldd	r24, Y+29	; 0x1d
    4a68:	89 17       	cp	r24, r25
    4a6a:	08 f0       	brcs	.+2      	; 0x4a6e <Second_Simplification+0x13a>
    4a6c:	1f a6       	std	Y+47, r1	; 0x2f
    4a6e:	9d a1       	ldd	r25, Y+37	; 0x25
    4a70:	8c a5       	ldd	r24, Y+44	; 0x2c
    4a72:	98 1b       	sub	r25, r24
    4a74:	98 ab       	std	Y+48, r25	; 0x30
    4a76:	91 e0       	ldi	r25, 0x01	; 1
    4a78:	99 ab       	std	Y+49, r25	; 0x31
    4a7a:	88 a9       	ldd	r24, Y+48	; 0x30
    4a7c:	9d a1       	ldd	r25, Y+37	; 0x25
    4a7e:	98 17       	cp	r25, r24
    4a80:	08 f0       	brcs	.+2      	; 0x4a84 <Second_Simplification+0x150>
    4a82:	19 aa       	std	Y+49, r1	; 0x31
    4a84:	8f a5       	ldd	r24, Y+47	; 0x2f
    4a86:	99 a9       	ldd	r25, Y+49	; 0x31
    4a88:	89 2b       	or	r24, r25
    4a8a:	8f a7       	std	Y+47, r24	; 0x2f
    4a8c:	88 a9       	ldd	r24, Y+48	; 0x30
    4a8e:	8d a3       	std	Y+37, r24	; 0x25
    4a90:	9e 8d       	ldd	r25, Y+30	; 0x1e
    4a92:	8e 89       	ldd	r24, Y+22	; 0x16
    4a94:	98 1b       	sub	r25, r24
    4a96:	9e a3       	std	Y+38, r25	; 0x26
    4a98:	91 e0       	ldi	r25, 0x01	; 1
    4a9a:	9a ab       	std	Y+50, r25	; 0x32
    4a9c:	8e a1       	ldd	r24, Y+38	; 0x26
    4a9e:	9e 8d       	ldd	r25, Y+30	; 0x1e
    4aa0:	98 17       	cp	r25, r24
    4aa2:	08 f0       	brcs	.+2      	; 0x4aa6 <Second_Simplification+0x172>
    4aa4:	1a aa       	std	Y+50, r1	; 0x32
    4aa6:	8e a1       	ldd	r24, Y+38	; 0x26
    4aa8:	9f a5       	ldd	r25, Y+47	; 0x2f
    4aaa:	89 1b       	sub	r24, r25
    4aac:	8b ab       	std	Y+51, r24	; 0x33
    4aae:	81 e0       	ldi	r24, 0x01	; 1
    4ab0:	8c ab       	std	Y+52, r24	; 0x34
    4ab2:	9b a9       	ldd	r25, Y+51	; 0x33
    4ab4:	8e a1       	ldd	r24, Y+38	; 0x26
    4ab6:	89 17       	cp	r24, r25
    4ab8:	08 f0       	brcs	.+2      	; 0x4abc <Second_Simplification+0x188>
    4aba:	1c aa       	std	Y+52, r1	; 0x34
    4abc:	9a a9       	ldd	r25, Y+50	; 0x32
    4abe:	8c a9       	ldd	r24, Y+52	; 0x34
    4ac0:	98 2b       	or	r25, r24
    4ac2:	9a ab       	std	Y+50, r25	; 0x32
    4ac4:	9b a9       	ldd	r25, Y+51	; 0x33
    4ac6:	9e a3       	std	Y+38, r25	; 0x26
    4ac8:	8f 8d       	ldd	r24, Y+31	; 0x1f
    4aca:	9f 89       	ldd	r25, Y+23	; 0x17
    4acc:	89 1b       	sub	r24, r25
    4ace:	8f a3       	std	Y+39, r24	; 0x27
    4ad0:	81 e0       	ldi	r24, 0x01	; 1
    4ad2:	8d ab       	std	Y+53, r24	; 0x35
    4ad4:	9f a1       	ldd	r25, Y+39	; 0x27
    4ad6:	8f 8d       	ldd	r24, Y+31	; 0x1f
    4ad8:	89 17       	cp	r24, r25
    4ada:	08 f0       	brcs	.+2      	; 0x4ade <Second_Simplification+0x1aa>
    4adc:	1d aa       	std	Y+53, r1	; 0x35
    4ade:	9f a1       	ldd	r25, Y+39	; 0x27
    4ae0:	8a a9       	ldd	r24, Y+50	; 0x32
    4ae2:	98 1b       	sub	r25, r24
    4ae4:	9e ab       	std	Y+54, r25	; 0x36
    4ae6:	91 e0       	ldi	r25, 0x01	; 1
    4ae8:	9f ab       	std	Y+55, r25	; 0x37
    4aea:	8e a9       	ldd	r24, Y+54	; 0x36
    4aec:	9f a1       	ldd	r25, Y+39	; 0x27
    4aee:	98 17       	cp	r25, r24
    4af0:	08 f0       	brcs	.+2      	; 0x4af4 <Second_Simplification+0x1c0>
    4af2:	1f aa       	std	Y+55, r1	; 0x37
    4af4:	8d a9       	ldd	r24, Y+53	; 0x35
    4af6:	9f a9       	ldd	r25, Y+55	; 0x37
    4af8:	89 2b       	or	r24, r25
    4afa:	8d ab       	std	Y+53, r24	; 0x35
    4afc:	8e a9       	ldd	r24, Y+54	; 0x36
    4afe:	8f a3       	std	Y+39, r24	; 0x27
    4b00:	98 a1       	ldd	r25, Y+32	; 0x20
    4b02:	88 8d       	ldd	r24, Y+24	; 0x18
    4b04:	98 1b       	sub	r25, r24
    4b06:	98 a7       	std	Y+40, r25	; 0x28
    4b08:	91 e0       	ldi	r25, 0x01	; 1
    4b0a:	98 af       	std	Y+56, r25	; 0x38
    4b0c:	88 a5       	ldd	r24, Y+40	; 0x28
    4b0e:	98 a1       	ldd	r25, Y+32	; 0x20
    4b10:	98 17       	cp	r25, r24
    4b12:	08 f0       	brcs	.+2      	; 0x4b16 <Second_Simplification+0x1e2>
    4b14:	18 ae       	std	Y+56, r1	; 0x38
    4b16:	88 a5       	ldd	r24, Y+40	; 0x28
    4b18:	9d a9       	ldd	r25, Y+53	; 0x35
    4b1a:	89 1b       	sub	r24, r25
    4b1c:	89 af       	std	Y+57, r24	; 0x39
    4b1e:	81 e0       	ldi	r24, 0x01	; 1
    4b20:	8a af       	std	Y+58, r24	; 0x3a
    4b22:	99 ad       	ldd	r25, Y+57	; 0x39
    4b24:	88 a5       	ldd	r24, Y+40	; 0x28
    4b26:	89 17       	cp	r24, r25
    4b28:	08 f0       	brcs	.+2      	; 0x4b2c <Second_Simplification+0x1f8>
    4b2a:	1a ae       	std	Y+58, r1	; 0x3a
    4b2c:	98 ad       	ldd	r25, Y+56	; 0x38
    4b2e:	8a ad       	ldd	r24, Y+58	; 0x3a
    4b30:	98 2b       	or	r25, r24
    4b32:	98 af       	std	Y+56, r25	; 0x38
    4b34:	99 ad       	ldd	r25, Y+57	; 0x39
    4b36:	98 a7       	std	Y+40, r25	; 0x28
    4b38:	89 a1       	ldd	r24, Y+33	; 0x21
    4b3a:	99 8d       	ldd	r25, Y+25	; 0x19
    4b3c:	89 1b       	sub	r24, r25
    4b3e:	89 a7       	std	Y+41, r24	; 0x29
    4b40:	81 e0       	ldi	r24, 0x01	; 1
    4b42:	8b af       	std	Y+59, r24	; 0x3b
    4b44:	99 a5       	ldd	r25, Y+41	; 0x29
    4b46:	89 a1       	ldd	r24, Y+33	; 0x21
    4b48:	89 17       	cp	r24, r25
    4b4a:	08 f0       	brcs	.+2      	; 0x4b4e <Second_Simplification+0x21a>
    4b4c:	1b ae       	std	Y+59, r1	; 0x3b
    4b4e:	99 a5       	ldd	r25, Y+41	; 0x29
    4b50:	88 ad       	ldd	r24, Y+56	; 0x38
    4b52:	98 1b       	sub	r25, r24
    4b54:	9c af       	std	Y+60, r25	; 0x3c
    4b56:	91 e0       	ldi	r25, 0x01	; 1
    4b58:	9d af       	std	Y+61, r25	; 0x3d
    4b5a:	8c ad       	ldd	r24, Y+60	; 0x3c
    4b5c:	99 a5       	ldd	r25, Y+41	; 0x29
    4b5e:	98 17       	cp	r25, r24
    4b60:	08 f0       	brcs	.+2      	; 0x4b64 <Second_Simplification+0x230>
    4b62:	1d ae       	std	Y+61, r1	; 0x3d
    4b64:	8b ad       	ldd	r24, Y+59	; 0x3b
    4b66:	9d ad       	ldd	r25, Y+61	; 0x3d
    4b68:	89 2b       	or	r24, r25
    4b6a:	8b af       	std	Y+59, r24	; 0x3b
    4b6c:	8c ad       	ldd	r24, Y+60	; 0x3c
    4b6e:	89 a7       	std	Y+41, r24	; 0x29
    4b70:	9a a1       	ldd	r25, Y+34	; 0x22
    4b72:	8a 8d       	ldd	r24, Y+26	; 0x1a
    4b74:	98 1b       	sub	r25, r24
    4b76:	9a a7       	std	Y+42, r25	; 0x2a
    4b78:	8a a5       	ldd	r24, Y+42	; 0x2a
    4b7a:	9b ad       	ldd	r25, Y+59	; 0x3b
    4b7c:	89 1b       	sub	r24, r25
    4b7e:	8a a7       	std	Y+42, r24	; 0x2a
    4b80:	8b a1       	ldd	r24, Y+35	; 0x23
    4b82:	89 83       	std	Y+1, r24	; 0x01
    4b84:	9c a1       	ldd	r25, Y+36	; 0x24
    4b86:	9a 83       	std	Y+2, r25	; 0x02
    4b88:	8d a1       	ldd	r24, Y+37	; 0x25
    4b8a:	8b 83       	std	Y+3, r24	; 0x03
    4b8c:	9e a1       	ldd	r25, Y+38	; 0x26
    4b8e:	9c 83       	std	Y+4, r25	; 0x04
    4b90:	8f a1       	ldd	r24, Y+39	; 0x27
    4b92:	8d 83       	std	Y+5, r24	; 0x05
    4b94:	98 a5       	ldd	r25, Y+40	; 0x28
    4b96:	9e 83       	std	Y+6, r25	; 0x06
    4b98:	89 a5       	ldd	r24, Y+41	; 0x29
    4b9a:	8f 83       	std	Y+7, r24	; 0x07
    4b9c:	9a a5       	ldd	r25, Y+42	; 0x2a
    4b9e:	98 87       	std	Y+8, r25	; 0x08
    4ba0:	8a 85       	ldd	r24, Y+10	; 0x0a
    4ba2:	8f 5f       	subi	r24, 0xFF	; 255
    4ba4:	8a 87       	std	Y+10, r24	; 0x0a
			operation_counter++;
    4ba6:	89 85       	ldd	r24, Y+9	; 0x09
    4ba8:	8f 5f       	subi	r24, 0xFF	; 255
    4baa:	89 87       	std	Y+9, r24	; 0x09
    4bac:	09 c2       	rjmp	.+1042   	; 0x4fc0 <Second_Simplification+0x68c>
		}
		else if(operations[operation_counter] == '+')
    4bae:	89 85       	ldd	r24, Y+9	; 0x09
    4bb0:	88 2f       	mov	r24, r24
    4bb2:	90 e0       	ldi	r25, 0x00	; 0
    4bb4:	fc 01       	movw	r30, r24
    4bb6:	e2 55       	subi	r30, 0x52	; 82
    4bb8:	fc 4f       	sbci	r31, 0xFC	; 252
    4bba:	80 81       	ld	r24, Z
    4bbc:	8b 32       	cpi	r24, 0x2B	; 43
    4bbe:	09 f0       	breq	.+2      	; 0x4bc2 <Second_Simplification+0x28e>
    4bc0:	ff c1       	rjmp	.+1022   	; 0x4fc0 <Second_Simplification+0x68c>
		{
			res += whole_numbers[operand_counter++];
    4bc2:	8a 85       	ldd	r24, Y+10	; 0x0a
    4bc4:	88 2f       	mov	r24, r24
    4bc6:	90 e0       	ldi	r25, 0x00	; 0
    4bc8:	88 0f       	add	r24, r24
    4bca:	99 1f       	adc	r25, r25
    4bcc:	88 0f       	add	r24, r24
    4bce:	99 1f       	adc	r25, r25
    4bd0:	88 0f       	add	r24, r24
    4bd2:	99 1f       	adc	r25, r25
    4bd4:	fc 01       	movw	r30, r24
    4bd6:	ea 53       	subi	r30, 0x3A	; 58
    4bd8:	fe 4f       	sbci	r31, 0xFE	; 254
    4bda:	80 81       	ld	r24, Z
    4bdc:	8b 87       	std	Y+11, r24	; 0x0b
    4bde:	91 81       	ldd	r25, Z+1	; 0x01
    4be0:	9c 87       	std	Y+12, r25	; 0x0c
    4be2:	82 81       	ldd	r24, Z+2	; 0x02
    4be4:	8d 87       	std	Y+13, r24	; 0x0d
    4be6:	93 81       	ldd	r25, Z+3	; 0x03
    4be8:	9e 87       	std	Y+14, r25	; 0x0e
    4bea:	84 81       	ldd	r24, Z+4	; 0x04
    4bec:	8f 87       	std	Y+15, r24	; 0x0f
    4bee:	95 81       	ldd	r25, Z+5	; 0x05
    4bf0:	98 8b       	std	Y+16, r25	; 0x10
    4bf2:	86 81       	ldd	r24, Z+6	; 0x06
    4bf4:	89 8b       	std	Y+17, r24	; 0x11
    4bf6:	97 81       	ldd	r25, Z+7	; 0x07
    4bf8:	9a 8b       	std	Y+18, r25	; 0x12
    4bfa:	89 81       	ldd	r24, Y+1	; 0x01
    4bfc:	8e af       	std	Y+62, r24	; 0x3e
    4bfe:	9a 81       	ldd	r25, Y+2	; 0x02
    4c00:	9f af       	std	Y+63, r25	; 0x3f
    4c02:	8b 81       	ldd	r24, Y+3	; 0x03
    4c04:	21 96       	adiw	r28, 0x01	; 1
    4c06:	8f af       	std	Y+63, r24	; 0x3f
    4c08:	21 97       	sbiw	r28, 0x01	; 1
    4c0a:	9c 81       	ldd	r25, Y+4	; 0x04
    4c0c:	22 96       	adiw	r28, 0x02	; 2
    4c0e:	9f af       	std	Y+63, r25	; 0x3f
    4c10:	22 97       	sbiw	r28, 0x02	; 2
    4c12:	8d 81       	ldd	r24, Y+5	; 0x05
    4c14:	23 96       	adiw	r28, 0x03	; 3
    4c16:	8f af       	std	Y+63, r24	; 0x3f
    4c18:	23 97       	sbiw	r28, 0x03	; 3
    4c1a:	9e 81       	ldd	r25, Y+6	; 0x06
    4c1c:	24 96       	adiw	r28, 0x04	; 4
    4c1e:	9f af       	std	Y+63, r25	; 0x3f
    4c20:	24 97       	sbiw	r28, 0x04	; 4
    4c22:	8f 81       	ldd	r24, Y+7	; 0x07
    4c24:	25 96       	adiw	r28, 0x05	; 5
    4c26:	8f af       	std	Y+63, r24	; 0x3f
    4c28:	25 97       	sbiw	r28, 0x05	; 5
    4c2a:	98 85       	ldd	r25, Y+8	; 0x08
    4c2c:	26 96       	adiw	r28, 0x06	; 6
    4c2e:	9f af       	std	Y+63, r25	; 0x3f
    4c30:	26 97       	sbiw	r28, 0x06	; 6
    4c32:	8e ad       	ldd	r24, Y+62	; 0x3e
    4c34:	9b 85       	ldd	r25, Y+11	; 0x0b
    4c36:	89 0f       	add	r24, r25
    4c38:	27 96       	adiw	r28, 0x07	; 7
    4c3a:	8f af       	std	Y+63, r24	; 0x3f
    4c3c:	27 97       	sbiw	r28, 0x07	; 7
    4c3e:	81 e0       	ldi	r24, 0x01	; 1
    4c40:	2f 96       	adiw	r28, 0x0f	; 15
    4c42:	8f af       	std	Y+63, r24	; 0x3f
    4c44:	2f 97       	sbiw	r28, 0x0f	; 15
    4c46:	27 96       	adiw	r28, 0x07	; 7
    4c48:	9f ad       	ldd	r25, Y+63	; 0x3f
    4c4a:	27 97       	sbiw	r28, 0x07	; 7
    4c4c:	8e ad       	ldd	r24, Y+62	; 0x3e
    4c4e:	98 17       	cp	r25, r24
    4c50:	18 f0       	brcs	.+6      	; 0x4c58 <Second_Simplification+0x324>
    4c52:	2f 96       	adiw	r28, 0x0f	; 15
    4c54:	1f ae       	std	Y+63, r1	; 0x3f
    4c56:	2f 97       	sbiw	r28, 0x0f	; 15
    4c58:	9f ad       	ldd	r25, Y+63	; 0x3f
    4c5a:	8c 85       	ldd	r24, Y+12	; 0x0c
    4c5c:	98 0f       	add	r25, r24
    4c5e:	28 96       	adiw	r28, 0x08	; 8
    4c60:	9f af       	std	Y+63, r25	; 0x3f
    4c62:	28 97       	sbiw	r28, 0x08	; 8
    4c64:	91 e0       	ldi	r25, 0x01	; 1
    4c66:	60 96       	adiw	r28, 0x10	; 16
    4c68:	9f af       	std	Y+63, r25	; 0x3f
    4c6a:	60 97       	sbiw	r28, 0x10	; 16
    4c6c:	28 96       	adiw	r28, 0x08	; 8
    4c6e:	8f ad       	ldd	r24, Y+63	; 0x3f
    4c70:	28 97       	sbiw	r28, 0x08	; 8
    4c72:	9f ad       	ldd	r25, Y+63	; 0x3f
    4c74:	89 17       	cp	r24, r25
    4c76:	18 f0       	brcs	.+6      	; 0x4c7e <Second_Simplification+0x34a>
    4c78:	60 96       	adiw	r28, 0x10	; 16
    4c7a:	1f ae       	std	Y+63, r1	; 0x3f
    4c7c:	60 97       	sbiw	r28, 0x10	; 16
    4c7e:	2f 96       	adiw	r28, 0x0f	; 15
    4c80:	8f ad       	ldd	r24, Y+63	; 0x3f
    4c82:	2f 97       	sbiw	r28, 0x0f	; 15
    4c84:	28 96       	adiw	r28, 0x08	; 8
    4c86:	9f ad       	ldd	r25, Y+63	; 0x3f
    4c88:	28 97       	sbiw	r28, 0x08	; 8
    4c8a:	89 0f       	add	r24, r25
    4c8c:	61 96       	adiw	r28, 0x11	; 17
    4c8e:	8f af       	std	Y+63, r24	; 0x3f
    4c90:	61 97       	sbiw	r28, 0x11	; 17
    4c92:	81 e0       	ldi	r24, 0x01	; 1
    4c94:	62 96       	adiw	r28, 0x12	; 18
    4c96:	8f af       	std	Y+63, r24	; 0x3f
    4c98:	62 97       	sbiw	r28, 0x12	; 18
    4c9a:	61 96       	adiw	r28, 0x11	; 17
    4c9c:	9f ad       	ldd	r25, Y+63	; 0x3f
    4c9e:	61 97       	sbiw	r28, 0x11	; 17
    4ca0:	28 96       	adiw	r28, 0x08	; 8
    4ca2:	8f ad       	ldd	r24, Y+63	; 0x3f
    4ca4:	28 97       	sbiw	r28, 0x08	; 8
    4ca6:	98 17       	cp	r25, r24
    4ca8:	18 f0       	brcs	.+6      	; 0x4cb0 <Second_Simplification+0x37c>
    4caa:	62 96       	adiw	r28, 0x12	; 18
    4cac:	1f ae       	std	Y+63, r1	; 0x3f
    4cae:	62 97       	sbiw	r28, 0x12	; 18
    4cb0:	60 96       	adiw	r28, 0x10	; 16
    4cb2:	9f ad       	ldd	r25, Y+63	; 0x3f
    4cb4:	60 97       	sbiw	r28, 0x10	; 16
    4cb6:	62 96       	adiw	r28, 0x12	; 18
    4cb8:	8f ad       	ldd	r24, Y+63	; 0x3f
    4cba:	62 97       	sbiw	r28, 0x12	; 18
    4cbc:	98 2b       	or	r25, r24
    4cbe:	60 96       	adiw	r28, 0x10	; 16
    4cc0:	9f af       	std	Y+63, r25	; 0x3f
    4cc2:	60 97       	sbiw	r28, 0x10	; 16
    4cc4:	61 96       	adiw	r28, 0x11	; 17
    4cc6:	9f ad       	ldd	r25, Y+63	; 0x3f
    4cc8:	61 97       	sbiw	r28, 0x11	; 17
    4cca:	28 96       	adiw	r28, 0x08	; 8
    4ccc:	9f af       	std	Y+63, r25	; 0x3f
    4cce:	28 97       	sbiw	r28, 0x08	; 8
    4cd0:	21 96       	adiw	r28, 0x01	; 1
    4cd2:	8f ad       	ldd	r24, Y+63	; 0x3f
    4cd4:	21 97       	sbiw	r28, 0x01	; 1
    4cd6:	9d 85       	ldd	r25, Y+13	; 0x0d
    4cd8:	89 0f       	add	r24, r25
    4cda:	29 96       	adiw	r28, 0x09	; 9
    4cdc:	8f af       	std	Y+63, r24	; 0x3f
    4cde:	29 97       	sbiw	r28, 0x09	; 9
    4ce0:	81 e0       	ldi	r24, 0x01	; 1
    4ce2:	63 96       	adiw	r28, 0x13	; 19
    4ce4:	8f af       	std	Y+63, r24	; 0x3f
    4ce6:	63 97       	sbiw	r28, 0x13	; 19
    4ce8:	29 96       	adiw	r28, 0x09	; 9
    4cea:	9f ad       	ldd	r25, Y+63	; 0x3f
    4cec:	29 97       	sbiw	r28, 0x09	; 9
    4cee:	21 96       	adiw	r28, 0x01	; 1
    4cf0:	8f ad       	ldd	r24, Y+63	; 0x3f
    4cf2:	21 97       	sbiw	r28, 0x01	; 1
    4cf4:	98 17       	cp	r25, r24
    4cf6:	18 f0       	brcs	.+6      	; 0x4cfe <Second_Simplification+0x3ca>
    4cf8:	63 96       	adiw	r28, 0x13	; 19
    4cfa:	1f ae       	std	Y+63, r1	; 0x3f
    4cfc:	63 97       	sbiw	r28, 0x13	; 19
    4cfe:	60 96       	adiw	r28, 0x10	; 16
    4d00:	9f ad       	ldd	r25, Y+63	; 0x3f
    4d02:	60 97       	sbiw	r28, 0x10	; 16
    4d04:	29 96       	adiw	r28, 0x09	; 9
    4d06:	8f ad       	ldd	r24, Y+63	; 0x3f
    4d08:	29 97       	sbiw	r28, 0x09	; 9
    4d0a:	98 0f       	add	r25, r24
    4d0c:	64 96       	adiw	r28, 0x14	; 20
    4d0e:	9f af       	std	Y+63, r25	; 0x3f
    4d10:	64 97       	sbiw	r28, 0x14	; 20
    4d12:	91 e0       	ldi	r25, 0x01	; 1
    4d14:	65 96       	adiw	r28, 0x15	; 21
    4d16:	9f af       	std	Y+63, r25	; 0x3f
    4d18:	65 97       	sbiw	r28, 0x15	; 21
    4d1a:	64 96       	adiw	r28, 0x14	; 20
    4d1c:	8f ad       	ldd	r24, Y+63	; 0x3f
    4d1e:	64 97       	sbiw	r28, 0x14	; 20
    4d20:	29 96       	adiw	r28, 0x09	; 9
    4d22:	9f ad       	ldd	r25, Y+63	; 0x3f
    4d24:	29 97       	sbiw	r28, 0x09	; 9
    4d26:	89 17       	cp	r24, r25
    4d28:	18 f0       	brcs	.+6      	; 0x4d30 <Second_Simplification+0x3fc>
    4d2a:	65 96       	adiw	r28, 0x15	; 21
    4d2c:	1f ae       	std	Y+63, r1	; 0x3f
    4d2e:	65 97       	sbiw	r28, 0x15	; 21
    4d30:	63 96       	adiw	r28, 0x13	; 19
    4d32:	8f ad       	ldd	r24, Y+63	; 0x3f
    4d34:	63 97       	sbiw	r28, 0x13	; 19
    4d36:	65 96       	adiw	r28, 0x15	; 21
    4d38:	9f ad       	ldd	r25, Y+63	; 0x3f
    4d3a:	65 97       	sbiw	r28, 0x15	; 21
    4d3c:	89 2b       	or	r24, r25
    4d3e:	63 96       	adiw	r28, 0x13	; 19
    4d40:	8f af       	std	Y+63, r24	; 0x3f
    4d42:	63 97       	sbiw	r28, 0x13	; 19
    4d44:	64 96       	adiw	r28, 0x14	; 20
    4d46:	8f ad       	ldd	r24, Y+63	; 0x3f
    4d48:	64 97       	sbiw	r28, 0x14	; 20
    4d4a:	29 96       	adiw	r28, 0x09	; 9
    4d4c:	8f af       	std	Y+63, r24	; 0x3f
    4d4e:	29 97       	sbiw	r28, 0x09	; 9
    4d50:	22 96       	adiw	r28, 0x02	; 2
    4d52:	9f ad       	ldd	r25, Y+63	; 0x3f
    4d54:	22 97       	sbiw	r28, 0x02	; 2
    4d56:	8e 85       	ldd	r24, Y+14	; 0x0e
    4d58:	98 0f       	add	r25, r24
    4d5a:	2a 96       	adiw	r28, 0x0a	; 10
    4d5c:	9f af       	std	Y+63, r25	; 0x3f
    4d5e:	2a 97       	sbiw	r28, 0x0a	; 10
    4d60:	91 e0       	ldi	r25, 0x01	; 1
    4d62:	66 96       	adiw	r28, 0x16	; 22
    4d64:	9f af       	std	Y+63, r25	; 0x3f
    4d66:	66 97       	sbiw	r28, 0x16	; 22
    4d68:	2a 96       	adiw	r28, 0x0a	; 10
    4d6a:	8f ad       	ldd	r24, Y+63	; 0x3f
    4d6c:	2a 97       	sbiw	r28, 0x0a	; 10
    4d6e:	22 96       	adiw	r28, 0x02	; 2
    4d70:	9f ad       	ldd	r25, Y+63	; 0x3f
    4d72:	22 97       	sbiw	r28, 0x02	; 2
    4d74:	89 17       	cp	r24, r25
    4d76:	18 f0       	brcs	.+6      	; 0x4d7e <Second_Simplification+0x44a>
    4d78:	66 96       	adiw	r28, 0x16	; 22
    4d7a:	1f ae       	std	Y+63, r1	; 0x3f
    4d7c:	66 97       	sbiw	r28, 0x16	; 22
    4d7e:	63 96       	adiw	r28, 0x13	; 19
    4d80:	8f ad       	ldd	r24, Y+63	; 0x3f
    4d82:	63 97       	sbiw	r28, 0x13	; 19
    4d84:	2a 96       	adiw	r28, 0x0a	; 10
    4d86:	9f ad       	ldd	r25, Y+63	; 0x3f
    4d88:	2a 97       	sbiw	r28, 0x0a	; 10
    4d8a:	89 0f       	add	r24, r25
    4d8c:	67 96       	adiw	r28, 0x17	; 23
    4d8e:	8f af       	std	Y+63, r24	; 0x3f
    4d90:	67 97       	sbiw	r28, 0x17	; 23
    4d92:	81 e0       	ldi	r24, 0x01	; 1
    4d94:	68 96       	adiw	r28, 0x18	; 24
    4d96:	8f af       	std	Y+63, r24	; 0x3f
    4d98:	68 97       	sbiw	r28, 0x18	; 24
    4d9a:	67 96       	adiw	r28, 0x17	; 23
    4d9c:	9f ad       	ldd	r25, Y+63	; 0x3f
    4d9e:	67 97       	sbiw	r28, 0x17	; 23
    4da0:	2a 96       	adiw	r28, 0x0a	; 10
    4da2:	8f ad       	ldd	r24, Y+63	; 0x3f
    4da4:	2a 97       	sbiw	r28, 0x0a	; 10
    4da6:	98 17       	cp	r25, r24
    4da8:	18 f0       	brcs	.+6      	; 0x4db0 <Second_Simplification+0x47c>
    4daa:	68 96       	adiw	r28, 0x18	; 24
    4dac:	1f ae       	std	Y+63, r1	; 0x3f
    4dae:	68 97       	sbiw	r28, 0x18	; 24
    4db0:	66 96       	adiw	r28, 0x16	; 22
    4db2:	9f ad       	ldd	r25, Y+63	; 0x3f
    4db4:	66 97       	sbiw	r28, 0x16	; 22
    4db6:	68 96       	adiw	r28, 0x18	; 24
    4db8:	8f ad       	ldd	r24, Y+63	; 0x3f
    4dba:	68 97       	sbiw	r28, 0x18	; 24
    4dbc:	98 2b       	or	r25, r24
    4dbe:	66 96       	adiw	r28, 0x16	; 22
    4dc0:	9f af       	std	Y+63, r25	; 0x3f
    4dc2:	66 97       	sbiw	r28, 0x16	; 22
    4dc4:	67 96       	adiw	r28, 0x17	; 23
    4dc6:	9f ad       	ldd	r25, Y+63	; 0x3f
    4dc8:	67 97       	sbiw	r28, 0x17	; 23
    4dca:	2a 96       	adiw	r28, 0x0a	; 10
    4dcc:	9f af       	std	Y+63, r25	; 0x3f
    4dce:	2a 97       	sbiw	r28, 0x0a	; 10
    4dd0:	23 96       	adiw	r28, 0x03	; 3
    4dd2:	8f ad       	ldd	r24, Y+63	; 0x3f
    4dd4:	23 97       	sbiw	r28, 0x03	; 3
    4dd6:	9f 85       	ldd	r25, Y+15	; 0x0f
    4dd8:	89 0f       	add	r24, r25
    4dda:	2b 96       	adiw	r28, 0x0b	; 11
    4ddc:	8f af       	std	Y+63, r24	; 0x3f
    4dde:	2b 97       	sbiw	r28, 0x0b	; 11
    4de0:	81 e0       	ldi	r24, 0x01	; 1
    4de2:	69 96       	adiw	r28, 0x19	; 25
    4de4:	8f af       	std	Y+63, r24	; 0x3f
    4de6:	69 97       	sbiw	r28, 0x19	; 25
    4de8:	2b 96       	adiw	r28, 0x0b	; 11
    4dea:	9f ad       	ldd	r25, Y+63	; 0x3f
    4dec:	2b 97       	sbiw	r28, 0x0b	; 11
    4dee:	23 96       	adiw	r28, 0x03	; 3
    4df0:	8f ad       	ldd	r24, Y+63	; 0x3f
    4df2:	23 97       	sbiw	r28, 0x03	; 3
    4df4:	98 17       	cp	r25, r24
    4df6:	18 f0       	brcs	.+6      	; 0x4dfe <Second_Simplification+0x4ca>
    4df8:	69 96       	adiw	r28, 0x19	; 25
    4dfa:	1f ae       	std	Y+63, r1	; 0x3f
    4dfc:	69 97       	sbiw	r28, 0x19	; 25
    4dfe:	66 96       	adiw	r28, 0x16	; 22
    4e00:	9f ad       	ldd	r25, Y+63	; 0x3f
    4e02:	66 97       	sbiw	r28, 0x16	; 22
    4e04:	2b 96       	adiw	r28, 0x0b	; 11
    4e06:	8f ad       	ldd	r24, Y+63	; 0x3f
    4e08:	2b 97       	sbiw	r28, 0x0b	; 11
    4e0a:	98 0f       	add	r25, r24
    4e0c:	6a 96       	adiw	r28, 0x1a	; 26
    4e0e:	9f af       	std	Y+63, r25	; 0x3f
    4e10:	6a 97       	sbiw	r28, 0x1a	; 26
    4e12:	91 e0       	ldi	r25, 0x01	; 1
    4e14:	6b 96       	adiw	r28, 0x1b	; 27
    4e16:	9f af       	std	Y+63, r25	; 0x3f
    4e18:	6b 97       	sbiw	r28, 0x1b	; 27
    4e1a:	6a 96       	adiw	r28, 0x1a	; 26
    4e1c:	8f ad       	ldd	r24, Y+63	; 0x3f
    4e1e:	6a 97       	sbiw	r28, 0x1a	; 26
    4e20:	2b 96       	adiw	r28, 0x0b	; 11
    4e22:	9f ad       	ldd	r25, Y+63	; 0x3f
    4e24:	2b 97       	sbiw	r28, 0x0b	; 11
    4e26:	89 17       	cp	r24, r25
    4e28:	18 f0       	brcs	.+6      	; 0x4e30 <Second_Simplification+0x4fc>
    4e2a:	6b 96       	adiw	r28, 0x1b	; 27
    4e2c:	1f ae       	std	Y+63, r1	; 0x3f
    4e2e:	6b 97       	sbiw	r28, 0x1b	; 27
    4e30:	69 96       	adiw	r28, 0x19	; 25
    4e32:	8f ad       	ldd	r24, Y+63	; 0x3f
    4e34:	69 97       	sbiw	r28, 0x19	; 25
    4e36:	6b 96       	adiw	r28, 0x1b	; 27
    4e38:	9f ad       	ldd	r25, Y+63	; 0x3f
    4e3a:	6b 97       	sbiw	r28, 0x1b	; 27
    4e3c:	89 2b       	or	r24, r25
    4e3e:	69 96       	adiw	r28, 0x19	; 25
    4e40:	8f af       	std	Y+63, r24	; 0x3f
    4e42:	69 97       	sbiw	r28, 0x19	; 25
    4e44:	6a 96       	adiw	r28, 0x1a	; 26
    4e46:	8f ad       	ldd	r24, Y+63	; 0x3f
    4e48:	6a 97       	sbiw	r28, 0x1a	; 26
    4e4a:	2b 96       	adiw	r28, 0x0b	; 11
    4e4c:	8f af       	std	Y+63, r24	; 0x3f
    4e4e:	2b 97       	sbiw	r28, 0x0b	; 11
    4e50:	24 96       	adiw	r28, 0x04	; 4
    4e52:	9f ad       	ldd	r25, Y+63	; 0x3f
    4e54:	24 97       	sbiw	r28, 0x04	; 4
    4e56:	88 89       	ldd	r24, Y+16	; 0x10
    4e58:	98 0f       	add	r25, r24
    4e5a:	2c 96       	adiw	r28, 0x0c	; 12
    4e5c:	9f af       	std	Y+63, r25	; 0x3f
    4e5e:	2c 97       	sbiw	r28, 0x0c	; 12
    4e60:	91 e0       	ldi	r25, 0x01	; 1
    4e62:	6c 96       	adiw	r28, 0x1c	; 28
    4e64:	9f af       	std	Y+63, r25	; 0x3f
    4e66:	6c 97       	sbiw	r28, 0x1c	; 28
    4e68:	2c 96       	adiw	r28, 0x0c	; 12
    4e6a:	8f ad       	ldd	r24, Y+63	; 0x3f
    4e6c:	2c 97       	sbiw	r28, 0x0c	; 12
    4e6e:	24 96       	adiw	r28, 0x04	; 4
    4e70:	9f ad       	ldd	r25, Y+63	; 0x3f
    4e72:	24 97       	sbiw	r28, 0x04	; 4
    4e74:	89 17       	cp	r24, r25
    4e76:	18 f0       	brcs	.+6      	; 0x4e7e <Second_Simplification+0x54a>
    4e78:	6c 96       	adiw	r28, 0x1c	; 28
    4e7a:	1f ae       	std	Y+63, r1	; 0x3f
    4e7c:	6c 97       	sbiw	r28, 0x1c	; 28
    4e7e:	69 96       	adiw	r28, 0x19	; 25
    4e80:	8f ad       	ldd	r24, Y+63	; 0x3f
    4e82:	69 97       	sbiw	r28, 0x19	; 25
    4e84:	2c 96       	adiw	r28, 0x0c	; 12
    4e86:	9f ad       	ldd	r25, Y+63	; 0x3f
    4e88:	2c 97       	sbiw	r28, 0x0c	; 12
    4e8a:	89 0f       	add	r24, r25
    4e8c:	6d 96       	adiw	r28, 0x1d	; 29
    4e8e:	8f af       	std	Y+63, r24	; 0x3f
    4e90:	6d 97       	sbiw	r28, 0x1d	; 29
    4e92:	81 e0       	ldi	r24, 0x01	; 1
    4e94:	6e 96       	adiw	r28, 0x1e	; 30
    4e96:	8f af       	std	Y+63, r24	; 0x3f
    4e98:	6e 97       	sbiw	r28, 0x1e	; 30
    4e9a:	6d 96       	adiw	r28, 0x1d	; 29
    4e9c:	9f ad       	ldd	r25, Y+63	; 0x3f
    4e9e:	6d 97       	sbiw	r28, 0x1d	; 29
    4ea0:	2c 96       	adiw	r28, 0x0c	; 12
    4ea2:	8f ad       	ldd	r24, Y+63	; 0x3f
    4ea4:	2c 97       	sbiw	r28, 0x0c	; 12
    4ea6:	98 17       	cp	r25, r24
    4ea8:	18 f0       	brcs	.+6      	; 0x4eb0 <Second_Simplification+0x57c>
    4eaa:	6e 96       	adiw	r28, 0x1e	; 30
    4eac:	1f ae       	std	Y+63, r1	; 0x3f
    4eae:	6e 97       	sbiw	r28, 0x1e	; 30
    4eb0:	6c 96       	adiw	r28, 0x1c	; 28
    4eb2:	9f ad       	ldd	r25, Y+63	; 0x3f
    4eb4:	6c 97       	sbiw	r28, 0x1c	; 28
    4eb6:	6e 96       	adiw	r28, 0x1e	; 30
    4eb8:	8f ad       	ldd	r24, Y+63	; 0x3f
    4eba:	6e 97       	sbiw	r28, 0x1e	; 30
    4ebc:	98 2b       	or	r25, r24
    4ebe:	6c 96       	adiw	r28, 0x1c	; 28
    4ec0:	9f af       	std	Y+63, r25	; 0x3f
    4ec2:	6c 97       	sbiw	r28, 0x1c	; 28
    4ec4:	6d 96       	adiw	r28, 0x1d	; 29
    4ec6:	9f ad       	ldd	r25, Y+63	; 0x3f
    4ec8:	6d 97       	sbiw	r28, 0x1d	; 29
    4eca:	2c 96       	adiw	r28, 0x0c	; 12
    4ecc:	9f af       	std	Y+63, r25	; 0x3f
    4ece:	2c 97       	sbiw	r28, 0x0c	; 12
    4ed0:	25 96       	adiw	r28, 0x05	; 5
    4ed2:	8f ad       	ldd	r24, Y+63	; 0x3f
    4ed4:	25 97       	sbiw	r28, 0x05	; 5
    4ed6:	99 89       	ldd	r25, Y+17	; 0x11
    4ed8:	89 0f       	add	r24, r25
    4eda:	2d 96       	adiw	r28, 0x0d	; 13
    4edc:	8f af       	std	Y+63, r24	; 0x3f
    4ede:	2d 97       	sbiw	r28, 0x0d	; 13
    4ee0:	81 e0       	ldi	r24, 0x01	; 1
    4ee2:	6f 96       	adiw	r28, 0x1f	; 31
    4ee4:	8f af       	std	Y+63, r24	; 0x3f
    4ee6:	6f 97       	sbiw	r28, 0x1f	; 31
    4ee8:	2d 96       	adiw	r28, 0x0d	; 13
    4eea:	9f ad       	ldd	r25, Y+63	; 0x3f
    4eec:	2d 97       	sbiw	r28, 0x0d	; 13
    4eee:	25 96       	adiw	r28, 0x05	; 5
    4ef0:	8f ad       	ldd	r24, Y+63	; 0x3f
    4ef2:	25 97       	sbiw	r28, 0x05	; 5
    4ef4:	98 17       	cp	r25, r24
    4ef6:	18 f0       	brcs	.+6      	; 0x4efe <Second_Simplification+0x5ca>
    4ef8:	6f 96       	adiw	r28, 0x1f	; 31
    4efa:	1f ae       	std	Y+63, r1	; 0x3f
    4efc:	6f 97       	sbiw	r28, 0x1f	; 31
    4efe:	6c 96       	adiw	r28, 0x1c	; 28
    4f00:	9f ad       	ldd	r25, Y+63	; 0x3f
    4f02:	6c 97       	sbiw	r28, 0x1c	; 28
    4f04:	2d 96       	adiw	r28, 0x0d	; 13
    4f06:	8f ad       	ldd	r24, Y+63	; 0x3f
    4f08:	2d 97       	sbiw	r28, 0x0d	; 13
    4f0a:	98 0f       	add	r25, r24
    4f0c:	a0 96       	adiw	r28, 0x20	; 32
    4f0e:	9f af       	std	Y+63, r25	; 0x3f
    4f10:	a0 97       	sbiw	r28, 0x20	; 32
    4f12:	91 e0       	ldi	r25, 0x01	; 1
    4f14:	a1 96       	adiw	r28, 0x21	; 33
    4f16:	9f af       	std	Y+63, r25	; 0x3f
    4f18:	a1 97       	sbiw	r28, 0x21	; 33
    4f1a:	a0 96       	adiw	r28, 0x20	; 32
    4f1c:	8f ad       	ldd	r24, Y+63	; 0x3f
    4f1e:	a0 97       	sbiw	r28, 0x20	; 32
    4f20:	2d 96       	adiw	r28, 0x0d	; 13
    4f22:	9f ad       	ldd	r25, Y+63	; 0x3f
    4f24:	2d 97       	sbiw	r28, 0x0d	; 13
    4f26:	89 17       	cp	r24, r25
    4f28:	18 f0       	brcs	.+6      	; 0x4f30 <Second_Simplification+0x5fc>
    4f2a:	a1 96       	adiw	r28, 0x21	; 33
    4f2c:	1f ae       	std	Y+63, r1	; 0x3f
    4f2e:	a1 97       	sbiw	r28, 0x21	; 33
    4f30:	6f 96       	adiw	r28, 0x1f	; 31
    4f32:	8f ad       	ldd	r24, Y+63	; 0x3f
    4f34:	6f 97       	sbiw	r28, 0x1f	; 31
    4f36:	a1 96       	adiw	r28, 0x21	; 33
    4f38:	9f ad       	ldd	r25, Y+63	; 0x3f
    4f3a:	a1 97       	sbiw	r28, 0x21	; 33
    4f3c:	89 2b       	or	r24, r25
    4f3e:	6f 96       	adiw	r28, 0x1f	; 31
    4f40:	8f af       	std	Y+63, r24	; 0x3f
    4f42:	6f 97       	sbiw	r28, 0x1f	; 31
    4f44:	a0 96       	adiw	r28, 0x20	; 32
    4f46:	8f ad       	ldd	r24, Y+63	; 0x3f
    4f48:	a0 97       	sbiw	r28, 0x20	; 32
    4f4a:	2d 96       	adiw	r28, 0x0d	; 13
    4f4c:	8f af       	std	Y+63, r24	; 0x3f
    4f4e:	2d 97       	sbiw	r28, 0x0d	; 13
    4f50:	26 96       	adiw	r28, 0x06	; 6
    4f52:	9f ad       	ldd	r25, Y+63	; 0x3f
    4f54:	26 97       	sbiw	r28, 0x06	; 6
    4f56:	8a 89       	ldd	r24, Y+18	; 0x12
    4f58:	98 0f       	add	r25, r24
    4f5a:	2e 96       	adiw	r28, 0x0e	; 14
    4f5c:	9f af       	std	Y+63, r25	; 0x3f
    4f5e:	2e 97       	sbiw	r28, 0x0e	; 14
    4f60:	6f 96       	adiw	r28, 0x1f	; 31
    4f62:	8f ad       	ldd	r24, Y+63	; 0x3f
    4f64:	6f 97       	sbiw	r28, 0x1f	; 31
    4f66:	2e 96       	adiw	r28, 0x0e	; 14
    4f68:	9f ad       	ldd	r25, Y+63	; 0x3f
    4f6a:	2e 97       	sbiw	r28, 0x0e	; 14
    4f6c:	89 0f       	add	r24, r25
    4f6e:	2e 96       	adiw	r28, 0x0e	; 14
    4f70:	8f af       	std	Y+63, r24	; 0x3f
    4f72:	2e 97       	sbiw	r28, 0x0e	; 14
    4f74:	27 96       	adiw	r28, 0x07	; 7
    4f76:	8f ad       	ldd	r24, Y+63	; 0x3f
    4f78:	27 97       	sbiw	r28, 0x07	; 7
    4f7a:	89 83       	std	Y+1, r24	; 0x01
    4f7c:	28 96       	adiw	r28, 0x08	; 8
    4f7e:	9f ad       	ldd	r25, Y+63	; 0x3f
    4f80:	28 97       	sbiw	r28, 0x08	; 8
    4f82:	9a 83       	std	Y+2, r25	; 0x02
    4f84:	29 96       	adiw	r28, 0x09	; 9
    4f86:	8f ad       	ldd	r24, Y+63	; 0x3f
    4f88:	29 97       	sbiw	r28, 0x09	; 9
    4f8a:	8b 83       	std	Y+3, r24	; 0x03
    4f8c:	2a 96       	adiw	r28, 0x0a	; 10
    4f8e:	9f ad       	ldd	r25, Y+63	; 0x3f
    4f90:	2a 97       	sbiw	r28, 0x0a	; 10
    4f92:	9c 83       	std	Y+4, r25	; 0x04
    4f94:	2b 96       	adiw	r28, 0x0b	; 11
    4f96:	8f ad       	ldd	r24, Y+63	; 0x3f
    4f98:	2b 97       	sbiw	r28, 0x0b	; 11
    4f9a:	8d 83       	std	Y+5, r24	; 0x05
    4f9c:	2c 96       	adiw	r28, 0x0c	; 12
    4f9e:	9f ad       	ldd	r25, Y+63	; 0x3f
    4fa0:	2c 97       	sbiw	r28, 0x0c	; 12
    4fa2:	9e 83       	std	Y+6, r25	; 0x06
    4fa4:	2d 96       	adiw	r28, 0x0d	; 13
    4fa6:	8f ad       	ldd	r24, Y+63	; 0x3f
    4fa8:	2d 97       	sbiw	r28, 0x0d	; 13
    4faa:	8f 83       	std	Y+7, r24	; 0x07
    4fac:	2e 96       	adiw	r28, 0x0e	; 14
    4fae:	9f ad       	ldd	r25, Y+63	; 0x3f
    4fb0:	2e 97       	sbiw	r28, 0x0e	; 14
    4fb2:	98 87       	std	Y+8, r25	; 0x08
    4fb4:	8a 85       	ldd	r24, Y+10	; 0x0a
    4fb6:	8f 5f       	subi	r24, 0xFF	; 255
    4fb8:	8a 87       	std	Y+10, r24	; 0x0a
			operation_counter++;
    4fba:	89 85       	ldd	r24, Y+9	; 0x09
    4fbc:	8f 5f       	subi	r24, 0xFF	; 255
    4fbe:	89 87       	std	Y+9, r24	; 0x09
sint64 Second_Simplification(void)
{
	uint8 operand_counter = 0;
	uint8 operation_counter = 0;
	sint64 res = whole_numbers[operand_counter++];
	while(operand_counter < whole_numbers_counter)
    4fc0:	90 91 b9 03 	lds	r25, 0x03B9
    4fc4:	8a 85       	ldd	r24, Y+10	; 0x0a
    4fc6:	89 17       	cp	r24, r25
    4fc8:	08 f4       	brcc	.+2      	; 0x4fcc <Second_Simplification+0x698>
    4fca:	e9 cc       	rjmp	.-1582   	; 0x499e <Second_Simplification+0x6a>
		{
			res += whole_numbers[operand_counter++];
			operation_counter++;
		}
	}
	return res;
    4fcc:	29 81       	ldd	r18, Y+1	; 0x01
    4fce:	3a 81       	ldd	r19, Y+2	; 0x02
    4fd0:	4b 81       	ldd	r20, Y+3	; 0x03
    4fd2:	5c 81       	ldd	r21, Y+4	; 0x04
    4fd4:	6d 81       	ldd	r22, Y+5	; 0x05
    4fd6:	7e 81       	ldd	r23, Y+6	; 0x06
    4fd8:	8f 81       	ldd	r24, Y+7	; 0x07
    4fda:	98 85       	ldd	r25, Y+8	; 0x08
    4fdc:	a2 2e       	mov	r10, r18
    4fde:	b3 2e       	mov	r11, r19
    4fe0:	c4 2e       	mov	r12, r20
    4fe2:	d5 2e       	mov	r13, r21
    4fe4:	e6 2e       	mov	r14, r22
    4fe6:	f7 2e       	mov	r15, r23
    4fe8:	08 2f       	mov	r16, r24
    4fea:	19 2f       	mov	r17, r25
}
    4fec:	2a 2d       	mov	r18, r10
    4fee:	3b 2d       	mov	r19, r11
    4ff0:	4c 2d       	mov	r20, r12
    4ff2:	5d 2d       	mov	r21, r13
    4ff4:	6e 2d       	mov	r22, r14
    4ff6:	7f 2d       	mov	r23, r15
    4ff8:	80 2f       	mov	r24, r16
    4ffa:	91 2f       	mov	r25, r17
    4ffc:	c0 5a       	subi	r28, 0xA0	; 160
    4ffe:	df 4f       	sbci	r29, 0xFF	; 255
    5000:	0f b6       	in	r0, 0x3f	; 63
    5002:	f8 94       	cli
    5004:	de bf       	out	0x3e, r29	; 62
    5006:	0f be       	out	0x3f, r0	; 63
    5008:	cd bf       	out	0x3d, r28	; 61
    500a:	cf 91       	pop	r28
    500c:	df 91       	pop	r29
    500e:	1f 91       	pop	r17
    5010:	0f 91       	pop	r16
    5012:	ff 90       	pop	r15
    5014:	ef 90       	pop	r14
    5016:	df 90       	pop	r13
    5018:	cf 90       	pop	r12
    501a:	bf 90       	pop	r11
    501c:	af 90       	pop	r10
    501e:	08 95       	ret

00005020 <Print_Equation_Result>:

void Print_Equation_Result()
{
    5020:	af 92       	push	r10
    5022:	bf 92       	push	r11
    5024:	cf 92       	push	r12
    5026:	df 92       	push	r13
    5028:	ef 92       	push	r14
    502a:	ff 92       	push	r15
    502c:	0f 93       	push	r16
    502e:	1f 93       	push	r17
    5030:	df 93       	push	r29
    5032:	cf 93       	push	r28
    5034:	cd b7       	in	r28, 0x3d	; 61
    5036:	de b7       	in	r29, 0x3e	; 62
    5038:	28 97       	sbiw	r28, 0x08	; 8
    503a:	0f b6       	in	r0, 0x3f	; 63
    503c:	f8 94       	cli
    503e:	de bf       	out	0x3e, r29	; 62
    5040:	0f be       	out	0x3f, r0	; 63
    5042:	cd bf       	out	0x3d, r28	; 61

	sint64 res = Equation_Simplification();
    5044:	0e 94 ca 21 	call	0x4394	; 0x4394 <Equation_Simplification>
    5048:	a2 2e       	mov	r10, r18
    504a:	b3 2e       	mov	r11, r19
    504c:	c4 2e       	mov	r12, r20
    504e:	d5 2e       	mov	r13, r21
    5050:	e6 2e       	mov	r14, r22
    5052:	f7 2e       	mov	r15, r23
    5054:	08 2f       	mov	r16, r24
    5056:	19 2f       	mov	r17, r25
    5058:	a9 82       	std	Y+1, r10	; 0x01
    505a:	ba 82       	std	Y+2, r11	; 0x02
    505c:	cb 82       	std	Y+3, r12	; 0x03
    505e:	dc 82       	std	Y+4, r13	; 0x04
    5060:	ed 82       	std	Y+5, r14	; 0x05
    5062:	fe 82       	std	Y+6, r15	; 0x06
    5064:	0f 83       	std	Y+7, r16	; 0x07
    5066:	18 87       	std	Y+8, r17	; 0x08
	if(res == 'x')
    5068:	89 81       	ldd	r24, Y+1	; 0x01
    506a:	88 37       	cpi	r24, 0x78	; 120
    506c:	a9 f4       	brne	.+42     	; 0x5098 <Print_Equation_Result+0x78>
    506e:	8a 81       	ldd	r24, Y+2	; 0x02
    5070:	88 23       	and	r24, r24
    5072:	91 f4       	brne	.+36     	; 0x5098 <Print_Equation_Result+0x78>
    5074:	8b 81       	ldd	r24, Y+3	; 0x03
    5076:	88 23       	and	r24, r24
    5078:	79 f4       	brne	.+30     	; 0x5098 <Print_Equation_Result+0x78>
    507a:	8c 81       	ldd	r24, Y+4	; 0x04
    507c:	88 23       	and	r24, r24
    507e:	61 f4       	brne	.+24     	; 0x5098 <Print_Equation_Result+0x78>
    5080:	8d 81       	ldd	r24, Y+5	; 0x05
    5082:	88 23       	and	r24, r24
    5084:	49 f4       	brne	.+18     	; 0x5098 <Print_Equation_Result+0x78>
    5086:	8e 81       	ldd	r24, Y+6	; 0x06
    5088:	88 23       	and	r24, r24
    508a:	31 f4       	brne	.+12     	; 0x5098 <Print_Equation_Result+0x78>
    508c:	8f 81       	ldd	r24, Y+7	; 0x07
    508e:	88 23       	and	r24, r24
    5090:	19 f4       	brne	.+6      	; 0x5098 <Print_Equation_Result+0x78>
    5092:	88 85       	ldd	r24, Y+8	; 0x08
    5094:	88 23       	and	r24, r24
    5096:	f1 f0       	breq	.+60     	; 0x50d4 <Print_Equation_Result+0xb4>
		return;
	LCD_moveCursor(1,0);
    5098:	81 e0       	ldi	r24, 0x01	; 1
    509a:	60 e0       	ldi	r22, 0x00	; 0
    509c:	0e 94 5e 15 	call	0x2abc	; 0x2abc <LCD_moveCursor>
	LCD_intgerToString(res);
    50a0:	a9 80       	ldd	r10, Y+1	; 0x01
    50a2:	ba 80       	ldd	r11, Y+2	; 0x02
    50a4:	cb 80       	ldd	r12, Y+3	; 0x03
    50a6:	dc 80       	ldd	r13, Y+4	; 0x04
    50a8:	ed 80       	ldd	r14, Y+5	; 0x05
    50aa:	fe 80       	ldd	r15, Y+6	; 0x06
    50ac:	0f 81       	ldd	r16, Y+7	; 0x07
    50ae:	18 85       	ldd	r17, Y+8	; 0x08
    50b0:	2a 2d       	mov	r18, r10
    50b2:	3b 2d       	mov	r19, r11
    50b4:	4c 2d       	mov	r20, r12
    50b6:	5d 2d       	mov	r21, r13
    50b8:	6e 2d       	mov	r22, r14
    50ba:	7f 2d       	mov	r23, r15
    50bc:	80 2f       	mov	r24, r16
    50be:	91 2f       	mov	r25, r17
    50c0:	0e 94 b9 15 	call	0x2b72	; 0x2b72 <LCD_intgerToString>
	Reset_Arrays();
    50c4:	0e 94 7b 28 	call	0x50f6	; 0x50f6 <Reset_Arrays>
	while(Get_Keypad_Input() != 'c');
    50c8:	0e 94 b4 17 	call	0x2f68	; 0x2f68 <Get_Keypad_Input>
    50cc:	83 36       	cpi	r24, 0x63	; 99
    50ce:	e1 f7       	brne	.-8      	; 0x50c8 <Print_Equation_Result+0xa8>
	LCD_clearScreen();
    50d0:	0e 94 05 16 	call	0x2c0a	; 0x2c0a <LCD_clearScreen>
}
    50d4:	28 96       	adiw	r28, 0x08	; 8
    50d6:	0f b6       	in	r0, 0x3f	; 63
    50d8:	f8 94       	cli
    50da:	de bf       	out	0x3e, r29	; 62
    50dc:	0f be       	out	0x3f, r0	; 63
    50de:	cd bf       	out	0x3d, r28	; 61
    50e0:	cf 91       	pop	r28
    50e2:	df 91       	pop	r29
    50e4:	1f 91       	pop	r17
    50e6:	0f 91       	pop	r16
    50e8:	ff 90       	pop	r15
    50ea:	ef 90       	pop	r14
    50ec:	df 90       	pop	r13
    50ee:	cf 90       	pop	r12
    50f0:	bf 90       	pop	r11
    50f2:	af 90       	pop	r10
    50f4:	08 95       	ret

000050f6 <Reset_Arrays>:


void Reset_Arrays(void)
{
    50f6:	df 93       	push	r29
    50f8:	cf 93       	push	r28
    50fa:	cd b7       	in	r28, 0x3d	; 61
    50fc:	de b7       	in	r29, 0x3e	; 62
	memset(whole_numbers, 0, sizeof(whole_numbers));
    50fe:	86 ec       	ldi	r24, 0xC6	; 198
    5100:	91 e0       	ldi	r25, 0x01	; 1
    5102:	60 e0       	ldi	r22, 0x00	; 0
    5104:	70 e0       	ldi	r23, 0x00	; 0
    5106:	40 ea       	ldi	r20, 0xA0	; 160
    5108:	50 e0       	ldi	r21, 0x00	; 0
    510a:	0e 94 51 2a 	call	0x54a2	; 0x54a2 <memset>
	memset(operations, 0, sizeof(operations));
    510e:	8e ea       	ldi	r24, 0xAE	; 174
    5110:	93 e0       	ldi	r25, 0x03	; 3
    5112:	60 e0       	ldi	r22, 0x00	; 0
    5114:	70 e0       	ldi	r23, 0x00	; 0
    5116:	4a e0       	ldi	r20, 0x0A	; 10
    5118:	50 e0       	ldi	r21, 0x00	; 0
    511a:	0e 94 51 2a 	call	0x54a2	; 0x54a2 <memset>
	whole_numbers_counter = 0;
    511e:	10 92 b9 03 	sts	0x03B9, r1
	operations_counter = 0;
    5122:	10 92 b8 03 	sts	0x03B8, r1
	old_num = 0;
    5126:	10 92 ba 03 	sts	0x03BA, r1
    512a:	10 92 bb 03 	sts	0x03BB, r1
    512e:	10 92 bc 03 	sts	0x03BC, r1
    5132:	10 92 bd 03 	sts	0x03BD, r1
    5136:	10 92 be 03 	sts	0x03BE, r1
    513a:	10 92 bf 03 	sts	0x03BF, r1
    513e:	10 92 c0 03 	sts	0x03C0, r1
    5142:	10 92 c1 03 	sts	0x03C1, r1
}
    5146:	cf 91       	pop	r28
    5148:	df 91       	pop	r29
    514a:	08 95       	ret

0000514c <RunTimeErrorMsg>:

void RunTimeErrorMsg(void)
{
    514c:	df 93       	push	r29
    514e:	cf 93       	push	r28
    5150:	cd b7       	in	r28, 0x3d	; 61
    5152:	de b7       	in	r29, 0x3e	; 62
    5154:	2e 97       	sbiw	r28, 0x0e	; 14
    5156:	0f b6       	in	r0, 0x3f	; 63
    5158:	f8 94       	cli
    515a:	de bf       	out	0x3e, r29	; 62
    515c:	0f be       	out	0x3f, r0	; 63
    515e:	cd bf       	out	0x3d, r28	; 61
	LCD_clearScreen();
    5160:	0e 94 05 16 	call	0x2c0a	; 0x2c0a <LCD_clearScreen>
	LCD_displayString("Error!! Can't");
    5164:	8e e7       	ldi	r24, 0x7E	; 126
    5166:	90 e0       	ldi	r25, 0x00	; 0
    5168:	0e 94 35 15 	call	0x2a6a	; 0x2a6a <LCD_displayString>
	LCD_moveCursor(1,0);
    516c:	81 e0       	ldi	r24, 0x01	; 1
    516e:	60 e0       	ldi	r22, 0x00	; 0
    5170:	0e 94 5e 15 	call	0x2abc	; 0x2abc <LCD_moveCursor>
	LCD_displayString("divide by zero!");
    5174:	8c e8       	ldi	r24, 0x8C	; 140
    5176:	90 e0       	ldi	r25, 0x00	; 0
    5178:	0e 94 35 15 	call	0x2a6a	; 0x2a6a <LCD_displayString>
    517c:	80 e0       	ldi	r24, 0x00	; 0
    517e:	90 e0       	ldi	r25, 0x00	; 0
    5180:	aa ef       	ldi	r26, 0xFA	; 250
    5182:	b4 e4       	ldi	r27, 0x44	; 68
    5184:	8b 87       	std	Y+11, r24	; 0x0b
    5186:	9c 87       	std	Y+12, r25	; 0x0c
    5188:	ad 87       	std	Y+13, r26	; 0x0d
    518a:	be 87       	std	Y+14, r27	; 0x0e
 */
void
_delay_ms(double __ms)
{
	uint16_t __ticks;
	double __tmp = ((F_CPU) / 4e3) * __ms;
    518c:	6b 85       	ldd	r22, Y+11	; 0x0b
    518e:	7c 85       	ldd	r23, Y+12	; 0x0c
    5190:	8d 85       	ldd	r24, Y+13	; 0x0d
    5192:	9e 85       	ldd	r25, Y+14	; 0x0e
    5194:	20 e0       	ldi	r18, 0x00	; 0
    5196:	30 e0       	ldi	r19, 0x00	; 0
    5198:	4a ef       	ldi	r20, 0xFA	; 250
    519a:	54 e4       	ldi	r21, 0x44	; 68
    519c:	0e 94 c1 0b 	call	0x1782	; 0x1782 <__mulsf3>
    51a0:	dc 01       	movw	r26, r24
    51a2:	cb 01       	movw	r24, r22
    51a4:	8f 83       	std	Y+7, r24	; 0x07
    51a6:	98 87       	std	Y+8, r25	; 0x08
    51a8:	a9 87       	std	Y+9, r26	; 0x09
    51aa:	ba 87       	std	Y+10, r27	; 0x0a
	if (__tmp < 1.0)
    51ac:	6f 81       	ldd	r22, Y+7	; 0x07
    51ae:	78 85       	ldd	r23, Y+8	; 0x08
    51b0:	89 85       	ldd	r24, Y+9	; 0x09
    51b2:	9a 85       	ldd	r25, Y+10	; 0x0a
    51b4:	20 e0       	ldi	r18, 0x00	; 0
    51b6:	30 e0       	ldi	r19, 0x00	; 0
    51b8:	40 e8       	ldi	r20, 0x80	; 128
    51ba:	5f e3       	ldi	r21, 0x3F	; 63
    51bc:	0e 94 1b 0d 	call	0x1a36	; 0x1a36 <__ltsf2>
    51c0:	88 23       	and	r24, r24
    51c2:	2c f4       	brge	.+10     	; 0x51ce <RunTimeErrorMsg+0x82>
		__ticks = 1;
    51c4:	81 e0       	ldi	r24, 0x01	; 1
    51c6:	90 e0       	ldi	r25, 0x00	; 0
    51c8:	9e 83       	std	Y+6, r25	; 0x06
    51ca:	8d 83       	std	Y+5, r24	; 0x05
    51cc:	3f c0       	rjmp	.+126    	; 0x524c <RunTimeErrorMsg+0x100>
	else if (__tmp > 65535)
    51ce:	6f 81       	ldd	r22, Y+7	; 0x07
    51d0:	78 85       	ldd	r23, Y+8	; 0x08
    51d2:	89 85       	ldd	r24, Y+9	; 0x09
    51d4:	9a 85       	ldd	r25, Y+10	; 0x0a
    51d6:	20 e0       	ldi	r18, 0x00	; 0
    51d8:	3f ef       	ldi	r19, 0xFF	; 255
    51da:	4f e7       	ldi	r20, 0x7F	; 127
    51dc:	57 e4       	ldi	r21, 0x47	; 71
    51de:	0e 94 bb 0c 	call	0x1976	; 0x1976 <__gtsf2>
    51e2:	18 16       	cp	r1, r24
    51e4:	4c f5       	brge	.+82     	; 0x5238 <RunTimeErrorMsg+0xec>
	{
		//	__ticks = requested delay in 1/10 ms
		__ticks = (uint16_t) (__ms * 10.0);
    51e6:	6b 85       	ldd	r22, Y+11	; 0x0b
    51e8:	7c 85       	ldd	r23, Y+12	; 0x0c
    51ea:	8d 85       	ldd	r24, Y+13	; 0x0d
    51ec:	9e 85       	ldd	r25, Y+14	; 0x0e
    51ee:	20 e0       	ldi	r18, 0x00	; 0
    51f0:	30 e0       	ldi	r19, 0x00	; 0
    51f2:	40 e2       	ldi	r20, 0x20	; 32
    51f4:	51 e4       	ldi	r21, 0x41	; 65
    51f6:	0e 94 c1 0b 	call	0x1782	; 0x1782 <__mulsf3>
    51fa:	dc 01       	movw	r26, r24
    51fc:	cb 01       	movw	r24, r22
    51fe:	bc 01       	movw	r22, r24
    5200:	cd 01       	movw	r24, r26
    5202:	0e 94 c3 01 	call	0x386	; 0x386 <__fixunssfsi>
    5206:	dc 01       	movw	r26, r24
    5208:	cb 01       	movw	r24, r22
    520a:	9e 83       	std	Y+6, r25	; 0x06
    520c:	8d 83       	std	Y+5, r24	; 0x05
    520e:	0f c0       	rjmp	.+30     	; 0x522e <RunTimeErrorMsg+0xe2>
    5210:	88 ec       	ldi	r24, 0xC8	; 200
    5212:	90 e0       	ldi	r25, 0x00	; 0
    5214:	9c 83       	std	Y+4, r25	; 0x04
    5216:	8b 83       	std	Y+3, r24	; 0x03
    5218:	8b 81       	ldd	r24, Y+3	; 0x03
    521a:	9c 81       	ldd	r25, Y+4	; 0x04
    521c:	01 97       	sbiw	r24, 0x01	; 1
    521e:	f1 f7       	brne	.-4      	; 0x521c <RunTimeErrorMsg+0xd0>
    5220:	9c 83       	std	Y+4, r25	; 0x04
    5222:	8b 83       	std	Y+3, r24	; 0x03
		while(__ticks)
		{
			// wait 1/10 ms
			_delay_loop_2(((F_CPU) / 4e3) / 10);
			__ticks --;
    5224:	8d 81       	ldd	r24, Y+5	; 0x05
    5226:	9e 81       	ldd	r25, Y+6	; 0x06
    5228:	01 97       	sbiw	r24, 0x01	; 1
    522a:	9e 83       	std	Y+6, r25	; 0x06
    522c:	8d 83       	std	Y+5, r24	; 0x05
		__ticks = 1;
	else if (__tmp > 65535)
	{
		//	__ticks = requested delay in 1/10 ms
		__ticks = (uint16_t) (__ms * 10.0);
		while(__ticks)
    522e:	8d 81       	ldd	r24, Y+5	; 0x05
    5230:	9e 81       	ldd	r25, Y+6	; 0x06
    5232:	00 97       	sbiw	r24, 0x00	; 0
    5234:	69 f7       	brne	.-38     	; 0x5210 <RunTimeErrorMsg+0xc4>
    5236:	14 c0       	rjmp	.+40     	; 0x5260 <RunTimeErrorMsg+0x114>
			__ticks --;
		}
		return;
	}
	else
		__ticks = (uint16_t)__tmp;
    5238:	6f 81       	ldd	r22, Y+7	; 0x07
    523a:	78 85       	ldd	r23, Y+8	; 0x08
    523c:	89 85       	ldd	r24, Y+9	; 0x09
    523e:	9a 85       	ldd	r25, Y+10	; 0x0a
    5240:	0e 94 c3 01 	call	0x386	; 0x386 <__fixunssfsi>
    5244:	dc 01       	movw	r26, r24
    5246:	cb 01       	movw	r24, r22
    5248:	9e 83       	std	Y+6, r25	; 0x06
    524a:	8d 83       	std	Y+5, r24	; 0x05
    524c:	8d 81       	ldd	r24, Y+5	; 0x05
    524e:	9e 81       	ldd	r25, Y+6	; 0x06
    5250:	9a 83       	std	Y+2, r25	; 0x02
    5252:	89 83       	std	Y+1, r24	; 0x01
    5254:	89 81       	ldd	r24, Y+1	; 0x01
    5256:	9a 81       	ldd	r25, Y+2	; 0x02
    5258:	01 97       	sbiw	r24, 0x01	; 1
    525a:	f1 f7       	brne	.-4      	; 0x5258 <RunTimeErrorMsg+0x10c>
    525c:	9a 83       	std	Y+2, r25	; 0x02
    525e:	89 83       	std	Y+1, r24	; 0x01
	_delay_ms(2000);
	LCD_clearScreen();
    5260:	0e 94 05 16 	call	0x2c0a	; 0x2c0a <LCD_clearScreen>
	Reset_Arrays();
    5264:	0e 94 7b 28 	call	0x50f6	; 0x50f6 <Reset_Arrays>
}
    5268:	2e 96       	adiw	r28, 0x0e	; 14
    526a:	0f b6       	in	r0, 0x3f	; 63
    526c:	f8 94       	cli
    526e:	de bf       	out	0x3e, r29	; 62
    5270:	0f be       	out	0x3f, r0	; 63
    5272:	cd bf       	out	0x3d, r28	; 61
    5274:	cf 91       	pop	r28
    5276:	df 91       	pop	r29
    5278:	08 95       	ret

0000527a <User_Clearing_Screen>:

void User_Clearing_Screen(void)
{
    527a:	df 93       	push	r29
    527c:	cf 93       	push	r28
    527e:	cd b7       	in	r28, 0x3d	; 61
    5280:	de b7       	in	r29, 0x3e	; 62
    5282:	2e 97       	sbiw	r28, 0x0e	; 14
    5284:	0f b6       	in	r0, 0x3f	; 63
    5286:	f8 94       	cli
    5288:	de bf       	out	0x3e, r29	; 62
    528a:	0f be       	out	0x3f, r0	; 63
    528c:	cd bf       	out	0x3d, r28	; 61
	LCD_clearScreen();
    528e:	0e 94 05 16 	call	0x2c0a	; 0x2c0a <LCD_clearScreen>
	Reset_Arrays();
    5292:	0e 94 7b 28 	call	0x50f6	; 0x50f6 <Reset_Arrays>
	LCD_displayString("Clearing Screen..");
    5296:	8c e9       	ldi	r24, 0x9C	; 156
    5298:	90 e0       	ldi	r25, 0x00	; 0
    529a:	0e 94 35 15 	call	0x2a6a	; 0x2a6a <LCD_displayString>
    529e:	80 e0       	ldi	r24, 0x00	; 0
    52a0:	90 e0       	ldi	r25, 0x00	; 0
    52a2:	aa ef       	ldi	r26, 0xFA	; 250
    52a4:	b3 e4       	ldi	r27, 0x43	; 67
    52a6:	8b 87       	std	Y+11, r24	; 0x0b
    52a8:	9c 87       	std	Y+12, r25	; 0x0c
    52aa:	ad 87       	std	Y+13, r26	; 0x0d
    52ac:	be 87       	std	Y+14, r27	; 0x0e
 */
void
_delay_ms(double __ms)
{
	uint16_t __ticks;
	double __tmp = ((F_CPU) / 4e3) * __ms;
    52ae:	6b 85       	ldd	r22, Y+11	; 0x0b
    52b0:	7c 85       	ldd	r23, Y+12	; 0x0c
    52b2:	8d 85       	ldd	r24, Y+13	; 0x0d
    52b4:	9e 85       	ldd	r25, Y+14	; 0x0e
    52b6:	20 e0       	ldi	r18, 0x00	; 0
    52b8:	30 e0       	ldi	r19, 0x00	; 0
    52ba:	4a ef       	ldi	r20, 0xFA	; 250
    52bc:	54 e4       	ldi	r21, 0x44	; 68
    52be:	0e 94 c1 0b 	call	0x1782	; 0x1782 <__mulsf3>
    52c2:	dc 01       	movw	r26, r24
    52c4:	cb 01       	movw	r24, r22
    52c6:	8f 83       	std	Y+7, r24	; 0x07
    52c8:	98 87       	std	Y+8, r25	; 0x08
    52ca:	a9 87       	std	Y+9, r26	; 0x09
    52cc:	ba 87       	std	Y+10, r27	; 0x0a
	if (__tmp < 1.0)
    52ce:	6f 81       	ldd	r22, Y+7	; 0x07
    52d0:	78 85       	ldd	r23, Y+8	; 0x08
    52d2:	89 85       	ldd	r24, Y+9	; 0x09
    52d4:	9a 85       	ldd	r25, Y+10	; 0x0a
    52d6:	20 e0       	ldi	r18, 0x00	; 0
    52d8:	30 e0       	ldi	r19, 0x00	; 0
    52da:	40 e8       	ldi	r20, 0x80	; 128
    52dc:	5f e3       	ldi	r21, 0x3F	; 63
    52de:	0e 94 1b 0d 	call	0x1a36	; 0x1a36 <__ltsf2>
    52e2:	88 23       	and	r24, r24
    52e4:	2c f4       	brge	.+10     	; 0x52f0 <User_Clearing_Screen+0x76>
		__ticks = 1;
    52e6:	81 e0       	ldi	r24, 0x01	; 1
    52e8:	90 e0       	ldi	r25, 0x00	; 0
    52ea:	9e 83       	std	Y+6, r25	; 0x06
    52ec:	8d 83       	std	Y+5, r24	; 0x05
    52ee:	3f c0       	rjmp	.+126    	; 0x536e <User_Clearing_Screen+0xf4>
	else if (__tmp > 65535)
    52f0:	6f 81       	ldd	r22, Y+7	; 0x07
    52f2:	78 85       	ldd	r23, Y+8	; 0x08
    52f4:	89 85       	ldd	r24, Y+9	; 0x09
    52f6:	9a 85       	ldd	r25, Y+10	; 0x0a
    52f8:	20 e0       	ldi	r18, 0x00	; 0
    52fa:	3f ef       	ldi	r19, 0xFF	; 255
    52fc:	4f e7       	ldi	r20, 0x7F	; 127
    52fe:	57 e4       	ldi	r21, 0x47	; 71
    5300:	0e 94 bb 0c 	call	0x1976	; 0x1976 <__gtsf2>
    5304:	18 16       	cp	r1, r24
    5306:	4c f5       	brge	.+82     	; 0x535a <User_Clearing_Screen+0xe0>
	{
		//	__ticks = requested delay in 1/10 ms
		__ticks = (uint16_t) (__ms * 10.0);
    5308:	6b 85       	ldd	r22, Y+11	; 0x0b
    530a:	7c 85       	ldd	r23, Y+12	; 0x0c
    530c:	8d 85       	ldd	r24, Y+13	; 0x0d
    530e:	9e 85       	ldd	r25, Y+14	; 0x0e
    5310:	20 e0       	ldi	r18, 0x00	; 0
    5312:	30 e0       	ldi	r19, 0x00	; 0
    5314:	40 e2       	ldi	r20, 0x20	; 32
    5316:	51 e4       	ldi	r21, 0x41	; 65
    5318:	0e 94 c1 0b 	call	0x1782	; 0x1782 <__mulsf3>
    531c:	dc 01       	movw	r26, r24
    531e:	cb 01       	movw	r24, r22
    5320:	bc 01       	movw	r22, r24
    5322:	cd 01       	movw	r24, r26
    5324:	0e 94 c3 01 	call	0x386	; 0x386 <__fixunssfsi>
    5328:	dc 01       	movw	r26, r24
    532a:	cb 01       	movw	r24, r22
    532c:	9e 83       	std	Y+6, r25	; 0x06
    532e:	8d 83       	std	Y+5, r24	; 0x05
    5330:	0f c0       	rjmp	.+30     	; 0x5350 <User_Clearing_Screen+0xd6>
    5332:	88 ec       	ldi	r24, 0xC8	; 200
    5334:	90 e0       	ldi	r25, 0x00	; 0
    5336:	9c 83       	std	Y+4, r25	; 0x04
    5338:	8b 83       	std	Y+3, r24	; 0x03
    533a:	8b 81       	ldd	r24, Y+3	; 0x03
    533c:	9c 81       	ldd	r25, Y+4	; 0x04
    533e:	01 97       	sbiw	r24, 0x01	; 1
    5340:	f1 f7       	brne	.-4      	; 0x533e <User_Clearing_Screen+0xc4>
    5342:	9c 83       	std	Y+4, r25	; 0x04
    5344:	8b 83       	std	Y+3, r24	; 0x03
		while(__ticks)
		{
			// wait 1/10 ms
			_delay_loop_2(((F_CPU) / 4e3) / 10);
			__ticks --;
    5346:	8d 81       	ldd	r24, Y+5	; 0x05
    5348:	9e 81       	ldd	r25, Y+6	; 0x06
    534a:	01 97       	sbiw	r24, 0x01	; 1
    534c:	9e 83       	std	Y+6, r25	; 0x06
    534e:	8d 83       	std	Y+5, r24	; 0x05
		__ticks = 1;
	else if (__tmp > 65535)
	{
		//	__ticks = requested delay in 1/10 ms
		__ticks = (uint16_t) (__ms * 10.0);
		while(__ticks)
    5350:	8d 81       	ldd	r24, Y+5	; 0x05
    5352:	9e 81       	ldd	r25, Y+6	; 0x06
    5354:	00 97       	sbiw	r24, 0x00	; 0
    5356:	69 f7       	brne	.-38     	; 0x5332 <User_Clearing_Screen+0xb8>
    5358:	14 c0       	rjmp	.+40     	; 0x5382 <User_Clearing_Screen+0x108>
			__ticks --;
		}
		return;
	}
	else
		__ticks = (uint16_t)__tmp;
    535a:	6f 81       	ldd	r22, Y+7	; 0x07
    535c:	78 85       	ldd	r23, Y+8	; 0x08
    535e:	89 85       	ldd	r24, Y+9	; 0x09
    5360:	9a 85       	ldd	r25, Y+10	; 0x0a
    5362:	0e 94 c3 01 	call	0x386	; 0x386 <__fixunssfsi>
    5366:	dc 01       	movw	r26, r24
    5368:	cb 01       	movw	r24, r22
    536a:	9e 83       	std	Y+6, r25	; 0x06
    536c:	8d 83       	std	Y+5, r24	; 0x05
    536e:	8d 81       	ldd	r24, Y+5	; 0x05
    5370:	9e 81       	ldd	r25, Y+6	; 0x06
    5372:	9a 83       	std	Y+2, r25	; 0x02
    5374:	89 83       	std	Y+1, r24	; 0x01
    5376:	89 81       	ldd	r24, Y+1	; 0x01
    5378:	9a 81       	ldd	r25, Y+2	; 0x02
    537a:	01 97       	sbiw	r24, 0x01	; 1
    537c:	f1 f7       	brne	.-4      	; 0x537a <User_Clearing_Screen+0x100>
    537e:	9a 83       	std	Y+2, r25	; 0x02
    5380:	89 83       	std	Y+1, r24	; 0x01
	_delay_ms(500);
	LCD_clearScreen();
    5382:	0e 94 05 16 	call	0x2c0a	; 0x2c0a <LCD_clearScreen>
}
    5386:	2e 96       	adiw	r28, 0x0e	; 14
    5388:	0f b6       	in	r0, 0x3f	; 63
    538a:	f8 94       	cli
    538c:	de bf       	out	0x3e, r29	; 62
    538e:	0f be       	out	0x3f, r0	; 63
    5390:	cd bf       	out	0x3d, r28	; 61
    5392:	cf 91       	pop	r28
    5394:	df 91       	pop	r29
    5396:	08 95       	ret

00005398 <main>:

#include <stdio.h>
#include "APP.h"

int main()
{
    5398:	df 93       	push	r29
    539a:	cf 93       	push	r28
    539c:	cd b7       	in	r28, 0x3d	; 61
    539e:	de b7       	in	r29, 0x3e	; 62
	HAL_Init();
    53a0:	0e 94 06 17 	call	0x2e0c	; 0x2e0c <HAL_Init>
	LCD_init_msg();
    53a4:	0e 94 11 17 	call	0x2e22	; 0x2e22 <LCD_init_msg>
	while(1)
	{
		User_Formula_Input();
    53a8:	0e 94 c7 17 	call	0x2f8e	; 0x2f8e <User_Formula_Input>
		Print_Equation_Result();
    53ac:	0e 94 10 28 	call	0x5020	; 0x5020 <Print_Equation_Result>
    53b0:	fb cf       	rjmp	.-10     	; 0x53a8 <main+0x10>

000053b2 <__mulsi3>:
    53b2:	62 9f       	mul	r22, r18
    53b4:	d0 01       	movw	r26, r0
    53b6:	73 9f       	mul	r23, r19
    53b8:	f0 01       	movw	r30, r0
    53ba:	82 9f       	mul	r24, r18
    53bc:	e0 0d       	add	r30, r0
    53be:	f1 1d       	adc	r31, r1
    53c0:	64 9f       	mul	r22, r20
    53c2:	e0 0d       	add	r30, r0
    53c4:	f1 1d       	adc	r31, r1
    53c6:	92 9f       	mul	r25, r18
    53c8:	f0 0d       	add	r31, r0
    53ca:	83 9f       	mul	r24, r19
    53cc:	f0 0d       	add	r31, r0
    53ce:	74 9f       	mul	r23, r20
    53d0:	f0 0d       	add	r31, r0
    53d2:	65 9f       	mul	r22, r21
    53d4:	f0 0d       	add	r31, r0
    53d6:	99 27       	eor	r25, r25
    53d8:	72 9f       	mul	r23, r18
    53da:	b0 0d       	add	r27, r0
    53dc:	e1 1d       	adc	r30, r1
    53de:	f9 1f       	adc	r31, r25
    53e0:	63 9f       	mul	r22, r19
    53e2:	b0 0d       	add	r27, r0
    53e4:	e1 1d       	adc	r30, r1
    53e6:	f9 1f       	adc	r31, r25
    53e8:	bd 01       	movw	r22, r26
    53ea:	cf 01       	movw	r24, r30
    53ec:	11 24       	eor	r1, r1
    53ee:	08 95       	ret

000053f0 <__udivmodsi4>:
    53f0:	a1 e2       	ldi	r26, 0x21	; 33
    53f2:	1a 2e       	mov	r1, r26
    53f4:	aa 1b       	sub	r26, r26
    53f6:	bb 1b       	sub	r27, r27
    53f8:	fd 01       	movw	r30, r26
    53fa:	0d c0       	rjmp	.+26     	; 0x5416 <__udivmodsi4_ep>

000053fc <__udivmodsi4_loop>:
    53fc:	aa 1f       	adc	r26, r26
    53fe:	bb 1f       	adc	r27, r27
    5400:	ee 1f       	adc	r30, r30
    5402:	ff 1f       	adc	r31, r31
    5404:	a2 17       	cp	r26, r18
    5406:	b3 07       	cpc	r27, r19
    5408:	e4 07       	cpc	r30, r20
    540a:	f5 07       	cpc	r31, r21
    540c:	20 f0       	brcs	.+8      	; 0x5416 <__udivmodsi4_ep>
    540e:	a2 1b       	sub	r26, r18
    5410:	b3 0b       	sbc	r27, r19
    5412:	e4 0b       	sbc	r30, r20
    5414:	f5 0b       	sbc	r31, r21

00005416 <__udivmodsi4_ep>:
    5416:	66 1f       	adc	r22, r22
    5418:	77 1f       	adc	r23, r23
    541a:	88 1f       	adc	r24, r24
    541c:	99 1f       	adc	r25, r25
    541e:	1a 94       	dec	r1
    5420:	69 f7       	brne	.-38     	; 0x53fc <__udivmodsi4_loop>
    5422:	60 95       	com	r22
    5424:	70 95       	com	r23
    5426:	80 95       	com	r24
    5428:	90 95       	com	r25
    542a:	9b 01       	movw	r18, r22
    542c:	ac 01       	movw	r20, r24
    542e:	bd 01       	movw	r22, r26
    5430:	cf 01       	movw	r24, r30
    5432:	08 95       	ret

00005434 <__prologue_saves__>:
    5434:	2f 92       	push	r2
    5436:	3f 92       	push	r3
    5438:	4f 92       	push	r4
    543a:	5f 92       	push	r5
    543c:	6f 92       	push	r6
    543e:	7f 92       	push	r7
    5440:	8f 92       	push	r8
    5442:	9f 92       	push	r9
    5444:	af 92       	push	r10
    5446:	bf 92       	push	r11
    5448:	cf 92       	push	r12
    544a:	df 92       	push	r13
    544c:	ef 92       	push	r14
    544e:	ff 92       	push	r15
    5450:	0f 93       	push	r16
    5452:	1f 93       	push	r17
    5454:	cf 93       	push	r28
    5456:	df 93       	push	r29
    5458:	cd b7       	in	r28, 0x3d	; 61
    545a:	de b7       	in	r29, 0x3e	; 62
    545c:	ca 1b       	sub	r28, r26
    545e:	db 0b       	sbc	r29, r27
    5460:	0f b6       	in	r0, 0x3f	; 63
    5462:	f8 94       	cli
    5464:	de bf       	out	0x3e, r29	; 62
    5466:	0f be       	out	0x3f, r0	; 63
    5468:	cd bf       	out	0x3d, r28	; 61
    546a:	09 94       	ijmp

0000546c <__epilogue_restores__>:
    546c:	2a 88       	ldd	r2, Y+18	; 0x12
    546e:	39 88       	ldd	r3, Y+17	; 0x11
    5470:	48 88       	ldd	r4, Y+16	; 0x10
    5472:	5f 84       	ldd	r5, Y+15	; 0x0f
    5474:	6e 84       	ldd	r6, Y+14	; 0x0e
    5476:	7d 84       	ldd	r7, Y+13	; 0x0d
    5478:	8c 84       	ldd	r8, Y+12	; 0x0c
    547a:	9b 84       	ldd	r9, Y+11	; 0x0b
    547c:	aa 84       	ldd	r10, Y+10	; 0x0a
    547e:	b9 84       	ldd	r11, Y+9	; 0x09
    5480:	c8 84       	ldd	r12, Y+8	; 0x08
    5482:	df 80       	ldd	r13, Y+7	; 0x07
    5484:	ee 80       	ldd	r14, Y+6	; 0x06
    5486:	fd 80       	ldd	r15, Y+5	; 0x05
    5488:	0c 81       	ldd	r16, Y+4	; 0x04
    548a:	1b 81       	ldd	r17, Y+3	; 0x03
    548c:	aa 81       	ldd	r26, Y+2	; 0x02
    548e:	b9 81       	ldd	r27, Y+1	; 0x01
    5490:	ce 0f       	add	r28, r30
    5492:	d1 1d       	adc	r29, r1
    5494:	0f b6       	in	r0, 0x3f	; 63
    5496:	f8 94       	cli
    5498:	de bf       	out	0x3e, r29	; 62
    549a:	0f be       	out	0x3f, r0	; 63
    549c:	cd bf       	out	0x3d, r28	; 61
    549e:	ed 01       	movw	r28, r26
    54a0:	08 95       	ret

000054a2 <memset>:
    54a2:	dc 01       	movw	r26, r24
    54a4:	01 c0       	rjmp	.+2      	; 0x54a8 <memset+0x6>
    54a6:	6d 93       	st	X+, r22
    54a8:	41 50       	subi	r20, 0x01	; 1
    54aa:	50 40       	sbci	r21, 0x00	; 0
    54ac:	e0 f7       	brcc	.-8      	; 0x54a6 <memset+0x4>
    54ae:	08 95       	ret

000054b0 <sprintf>:
    54b0:	ae e0       	ldi	r26, 0x0E	; 14
    54b2:	b0 e0       	ldi	r27, 0x00	; 0
    54b4:	ee e5       	ldi	r30, 0x5E	; 94
    54b6:	fa e2       	ldi	r31, 0x2A	; 42
    54b8:	0c 94 28 2a 	jmp	0x5450	; 0x5450 <__prologue_saves__+0x1c>
    54bc:	0d 89       	ldd	r16, Y+21	; 0x15
    54be:	1e 89       	ldd	r17, Y+22	; 0x16
    54c0:	86 e0       	ldi	r24, 0x06	; 6
    54c2:	8c 83       	std	Y+4, r24	; 0x04
    54c4:	1a 83       	std	Y+2, r17	; 0x02
    54c6:	09 83       	std	Y+1, r16	; 0x01
    54c8:	8f ef       	ldi	r24, 0xFF	; 255
    54ca:	9f e7       	ldi	r25, 0x7F	; 127
    54cc:	9e 83       	std	Y+6, r25	; 0x06
    54ce:	8d 83       	std	Y+5, r24	; 0x05
    54d0:	9e 01       	movw	r18, r28
    54d2:	27 5e       	subi	r18, 0xE7	; 231
    54d4:	3f 4f       	sbci	r19, 0xFF	; 255
    54d6:	ce 01       	movw	r24, r28
    54d8:	01 96       	adiw	r24, 0x01	; 1
    54da:	6f 89       	ldd	r22, Y+23	; 0x17
    54dc:	78 8d       	ldd	r23, Y+24	; 0x18
    54de:	a9 01       	movw	r20, r18
    54e0:	0e 94 7c 2a 	call	0x54f8	; 0x54f8 <vfprintf>
    54e4:	2f 81       	ldd	r18, Y+7	; 0x07
    54e6:	38 85       	ldd	r19, Y+8	; 0x08
    54e8:	02 0f       	add	r16, r18
    54ea:	13 1f       	adc	r17, r19
    54ec:	f8 01       	movw	r30, r16
    54ee:	10 82       	st	Z, r1
    54f0:	2e 96       	adiw	r28, 0x0e	; 14
    54f2:	e4 e0       	ldi	r30, 0x04	; 4
    54f4:	0c 94 44 2a 	jmp	0x5488	; 0x5488 <__epilogue_restores__+0x1c>

000054f8 <vfprintf>:
    54f8:	ab e0       	ldi	r26, 0x0B	; 11
    54fa:	b0 e0       	ldi	r27, 0x00	; 0
    54fc:	e2 e8       	ldi	r30, 0x82	; 130
    54fe:	fa e2       	ldi	r31, 0x2A	; 42
    5500:	0c 94 1a 2a 	jmp	0x5434	; 0x5434 <__prologue_saves__>
    5504:	3c 01       	movw	r6, r24
    5506:	2b 01       	movw	r4, r22
    5508:	5a 01       	movw	r10, r20
    550a:	fc 01       	movw	r30, r24
    550c:	17 82       	std	Z+7, r1	; 0x07
    550e:	16 82       	std	Z+6, r1	; 0x06
    5510:	83 81       	ldd	r24, Z+3	; 0x03
    5512:	81 fd       	sbrc	r24, 1
    5514:	03 c0       	rjmp	.+6      	; 0x551c <vfprintf+0x24>
    5516:	6f ef       	ldi	r22, 0xFF	; 255
    5518:	7f ef       	ldi	r23, 0xFF	; 255
    551a:	c6 c1       	rjmp	.+908    	; 0x58a8 <vfprintf+0x3b0>
    551c:	9a e0       	ldi	r25, 0x0A	; 10
    551e:	89 2e       	mov	r8, r25
    5520:	1e 01       	movw	r2, r28
    5522:	08 94       	sec
    5524:	21 1c       	adc	r2, r1
    5526:	31 1c       	adc	r3, r1
    5528:	f3 01       	movw	r30, r6
    552a:	23 81       	ldd	r18, Z+3	; 0x03
    552c:	f2 01       	movw	r30, r4
    552e:	23 fd       	sbrc	r18, 3
    5530:	85 91       	lpm	r24, Z+
    5532:	23 ff       	sbrs	r18, 3
    5534:	81 91       	ld	r24, Z+
    5536:	2f 01       	movw	r4, r30
    5538:	88 23       	and	r24, r24
    553a:	09 f4       	brne	.+2      	; 0x553e <vfprintf+0x46>
    553c:	b2 c1       	rjmp	.+868    	; 0x58a2 <vfprintf+0x3aa>
    553e:	85 32       	cpi	r24, 0x25	; 37
    5540:	39 f4       	brne	.+14     	; 0x5550 <vfprintf+0x58>
    5542:	23 fd       	sbrc	r18, 3
    5544:	85 91       	lpm	r24, Z+
    5546:	23 ff       	sbrs	r18, 3
    5548:	81 91       	ld	r24, Z+
    554a:	2f 01       	movw	r4, r30
    554c:	85 32       	cpi	r24, 0x25	; 37
    554e:	29 f4       	brne	.+10     	; 0x555a <vfprintf+0x62>
    5550:	90 e0       	ldi	r25, 0x00	; 0
    5552:	b3 01       	movw	r22, r6
    5554:	0e 94 6f 2c 	call	0x58de	; 0x58de <fputc>
    5558:	e7 cf       	rjmp	.-50     	; 0x5528 <vfprintf+0x30>
    555a:	98 2f       	mov	r25, r24
    555c:	ff 24       	eor	r15, r15
    555e:	ee 24       	eor	r14, r14
    5560:	99 24       	eor	r9, r9
    5562:	ff e1       	ldi	r31, 0x1F	; 31
    5564:	ff 15       	cp	r31, r15
    5566:	d0 f0       	brcs	.+52     	; 0x559c <vfprintf+0xa4>
    5568:	9b 32       	cpi	r25, 0x2B	; 43
    556a:	69 f0       	breq	.+26     	; 0x5586 <vfprintf+0x8e>
    556c:	9c 32       	cpi	r25, 0x2C	; 44
    556e:	28 f4       	brcc	.+10     	; 0x557a <vfprintf+0x82>
    5570:	90 32       	cpi	r25, 0x20	; 32
    5572:	59 f0       	breq	.+22     	; 0x558a <vfprintf+0x92>
    5574:	93 32       	cpi	r25, 0x23	; 35
    5576:	91 f4       	brne	.+36     	; 0x559c <vfprintf+0xa4>
    5578:	0e c0       	rjmp	.+28     	; 0x5596 <vfprintf+0x9e>
    557a:	9d 32       	cpi	r25, 0x2D	; 45
    557c:	49 f0       	breq	.+18     	; 0x5590 <vfprintf+0x98>
    557e:	90 33       	cpi	r25, 0x30	; 48
    5580:	69 f4       	brne	.+26     	; 0x559c <vfprintf+0xa4>
    5582:	41 e0       	ldi	r20, 0x01	; 1
    5584:	24 c0       	rjmp	.+72     	; 0x55ce <vfprintf+0xd6>
    5586:	52 e0       	ldi	r21, 0x02	; 2
    5588:	f5 2a       	or	r15, r21
    558a:	84 e0       	ldi	r24, 0x04	; 4
    558c:	f8 2a       	or	r15, r24
    558e:	28 c0       	rjmp	.+80     	; 0x55e0 <vfprintf+0xe8>
    5590:	98 e0       	ldi	r25, 0x08	; 8
    5592:	f9 2a       	or	r15, r25
    5594:	25 c0       	rjmp	.+74     	; 0x55e0 <vfprintf+0xe8>
    5596:	e0 e1       	ldi	r30, 0x10	; 16
    5598:	fe 2a       	or	r15, r30
    559a:	22 c0       	rjmp	.+68     	; 0x55e0 <vfprintf+0xe8>
    559c:	f7 fc       	sbrc	r15, 7
    559e:	29 c0       	rjmp	.+82     	; 0x55f2 <vfprintf+0xfa>
    55a0:	89 2f       	mov	r24, r25
    55a2:	80 53       	subi	r24, 0x30	; 48
    55a4:	8a 30       	cpi	r24, 0x0A	; 10
    55a6:	70 f4       	brcc	.+28     	; 0x55c4 <vfprintf+0xcc>
    55a8:	f6 fe       	sbrs	r15, 6
    55aa:	05 c0       	rjmp	.+10     	; 0x55b6 <vfprintf+0xbe>
    55ac:	98 9c       	mul	r9, r8
    55ae:	90 2c       	mov	r9, r0
    55b0:	11 24       	eor	r1, r1
    55b2:	98 0e       	add	r9, r24
    55b4:	15 c0       	rjmp	.+42     	; 0x55e0 <vfprintf+0xe8>
    55b6:	e8 9c       	mul	r14, r8
    55b8:	e0 2c       	mov	r14, r0
    55ba:	11 24       	eor	r1, r1
    55bc:	e8 0e       	add	r14, r24
    55be:	f0 e2       	ldi	r31, 0x20	; 32
    55c0:	ff 2a       	or	r15, r31
    55c2:	0e c0       	rjmp	.+28     	; 0x55e0 <vfprintf+0xe8>
    55c4:	9e 32       	cpi	r25, 0x2E	; 46
    55c6:	29 f4       	brne	.+10     	; 0x55d2 <vfprintf+0xda>
    55c8:	f6 fc       	sbrc	r15, 6
    55ca:	6b c1       	rjmp	.+726    	; 0x58a2 <vfprintf+0x3aa>
    55cc:	40 e4       	ldi	r20, 0x40	; 64
    55ce:	f4 2a       	or	r15, r20
    55d0:	07 c0       	rjmp	.+14     	; 0x55e0 <vfprintf+0xe8>
    55d2:	9c 36       	cpi	r25, 0x6C	; 108
    55d4:	19 f4       	brne	.+6      	; 0x55dc <vfprintf+0xe4>
    55d6:	50 e8       	ldi	r21, 0x80	; 128
    55d8:	f5 2a       	or	r15, r21
    55da:	02 c0       	rjmp	.+4      	; 0x55e0 <vfprintf+0xe8>
    55dc:	98 36       	cpi	r25, 0x68	; 104
    55de:	49 f4       	brne	.+18     	; 0x55f2 <vfprintf+0xfa>
    55e0:	f2 01       	movw	r30, r4
    55e2:	23 fd       	sbrc	r18, 3
    55e4:	95 91       	lpm	r25, Z+
    55e6:	23 ff       	sbrs	r18, 3
    55e8:	91 91       	ld	r25, Z+
    55ea:	2f 01       	movw	r4, r30
    55ec:	99 23       	and	r25, r25
    55ee:	09 f0       	breq	.+2      	; 0x55f2 <vfprintf+0xfa>
    55f0:	b8 cf       	rjmp	.-144    	; 0x5562 <vfprintf+0x6a>
    55f2:	89 2f       	mov	r24, r25
    55f4:	85 54       	subi	r24, 0x45	; 69
    55f6:	83 30       	cpi	r24, 0x03	; 3
    55f8:	18 f0       	brcs	.+6      	; 0x5600 <vfprintf+0x108>
    55fa:	80 52       	subi	r24, 0x20	; 32
    55fc:	83 30       	cpi	r24, 0x03	; 3
    55fe:	38 f4       	brcc	.+14     	; 0x560e <vfprintf+0x116>
    5600:	44 e0       	ldi	r20, 0x04	; 4
    5602:	50 e0       	ldi	r21, 0x00	; 0
    5604:	a4 0e       	add	r10, r20
    5606:	b5 1e       	adc	r11, r21
    5608:	5f e3       	ldi	r21, 0x3F	; 63
    560a:	59 83       	std	Y+1, r21	; 0x01
    560c:	0f c0       	rjmp	.+30     	; 0x562c <vfprintf+0x134>
    560e:	93 36       	cpi	r25, 0x63	; 99
    5610:	31 f0       	breq	.+12     	; 0x561e <vfprintf+0x126>
    5612:	93 37       	cpi	r25, 0x73	; 115
    5614:	79 f0       	breq	.+30     	; 0x5634 <vfprintf+0x13c>
    5616:	93 35       	cpi	r25, 0x53	; 83
    5618:	09 f0       	breq	.+2      	; 0x561c <vfprintf+0x124>
    561a:	56 c0       	rjmp	.+172    	; 0x56c8 <vfprintf+0x1d0>
    561c:	20 c0       	rjmp	.+64     	; 0x565e <vfprintf+0x166>
    561e:	f5 01       	movw	r30, r10
    5620:	80 81       	ld	r24, Z
    5622:	89 83       	std	Y+1, r24	; 0x01
    5624:	42 e0       	ldi	r20, 0x02	; 2
    5626:	50 e0       	ldi	r21, 0x00	; 0
    5628:	a4 0e       	add	r10, r20
    562a:	b5 1e       	adc	r11, r21
    562c:	61 01       	movw	r12, r2
    562e:	01 e0       	ldi	r16, 0x01	; 1
    5630:	10 e0       	ldi	r17, 0x00	; 0
    5632:	12 c0       	rjmp	.+36     	; 0x5658 <vfprintf+0x160>
    5634:	f5 01       	movw	r30, r10
    5636:	c0 80       	ld	r12, Z
    5638:	d1 80       	ldd	r13, Z+1	; 0x01
    563a:	f6 fc       	sbrc	r15, 6
    563c:	03 c0       	rjmp	.+6      	; 0x5644 <vfprintf+0x14c>
    563e:	6f ef       	ldi	r22, 0xFF	; 255
    5640:	7f ef       	ldi	r23, 0xFF	; 255
    5642:	02 c0       	rjmp	.+4      	; 0x5648 <vfprintf+0x150>
    5644:	69 2d       	mov	r22, r9
    5646:	70 e0       	ldi	r23, 0x00	; 0
    5648:	42 e0       	ldi	r20, 0x02	; 2
    564a:	50 e0       	ldi	r21, 0x00	; 0
    564c:	a4 0e       	add	r10, r20
    564e:	b5 1e       	adc	r11, r21
    5650:	c6 01       	movw	r24, r12
    5652:	0e 94 64 2c 	call	0x58c8	; 0x58c8 <strnlen>
    5656:	8c 01       	movw	r16, r24
    5658:	5f e7       	ldi	r21, 0x7F	; 127
    565a:	f5 22       	and	r15, r21
    565c:	14 c0       	rjmp	.+40     	; 0x5686 <vfprintf+0x18e>
    565e:	f5 01       	movw	r30, r10
    5660:	c0 80       	ld	r12, Z
    5662:	d1 80       	ldd	r13, Z+1	; 0x01
    5664:	f6 fc       	sbrc	r15, 6
    5666:	03 c0       	rjmp	.+6      	; 0x566e <vfprintf+0x176>
    5668:	6f ef       	ldi	r22, 0xFF	; 255
    566a:	7f ef       	ldi	r23, 0xFF	; 255
    566c:	02 c0       	rjmp	.+4      	; 0x5672 <vfprintf+0x17a>
    566e:	69 2d       	mov	r22, r9
    5670:	70 e0       	ldi	r23, 0x00	; 0
    5672:	42 e0       	ldi	r20, 0x02	; 2
    5674:	50 e0       	ldi	r21, 0x00	; 0
    5676:	a4 0e       	add	r10, r20
    5678:	b5 1e       	adc	r11, r21
    567a:	c6 01       	movw	r24, r12
    567c:	0e 94 59 2c 	call	0x58b2	; 0x58b2 <strnlen_P>
    5680:	8c 01       	movw	r16, r24
    5682:	50 e8       	ldi	r21, 0x80	; 128
    5684:	f5 2a       	or	r15, r21
    5686:	f3 fe       	sbrs	r15, 3
    5688:	07 c0       	rjmp	.+14     	; 0x5698 <vfprintf+0x1a0>
    568a:	1a c0       	rjmp	.+52     	; 0x56c0 <vfprintf+0x1c8>
    568c:	80 e2       	ldi	r24, 0x20	; 32
    568e:	90 e0       	ldi	r25, 0x00	; 0
    5690:	b3 01       	movw	r22, r6
    5692:	0e 94 6f 2c 	call	0x58de	; 0x58de <fputc>
    5696:	ea 94       	dec	r14
    5698:	8e 2d       	mov	r24, r14
    569a:	90 e0       	ldi	r25, 0x00	; 0
    569c:	08 17       	cp	r16, r24
    569e:	19 07       	cpc	r17, r25
    56a0:	a8 f3       	brcs	.-22     	; 0x568c <vfprintf+0x194>
    56a2:	0e c0       	rjmp	.+28     	; 0x56c0 <vfprintf+0x1c8>
    56a4:	f6 01       	movw	r30, r12
    56a6:	f7 fc       	sbrc	r15, 7
    56a8:	85 91       	lpm	r24, Z+
    56aa:	f7 fe       	sbrs	r15, 7
    56ac:	81 91       	ld	r24, Z+
    56ae:	6f 01       	movw	r12, r30
    56b0:	90 e0       	ldi	r25, 0x00	; 0
    56b2:	b3 01       	movw	r22, r6
    56b4:	0e 94 6f 2c 	call	0x58de	; 0x58de <fputc>
    56b8:	e1 10       	cpse	r14, r1
    56ba:	ea 94       	dec	r14
    56bc:	01 50       	subi	r16, 0x01	; 1
    56be:	10 40       	sbci	r17, 0x00	; 0
    56c0:	01 15       	cp	r16, r1
    56c2:	11 05       	cpc	r17, r1
    56c4:	79 f7       	brne	.-34     	; 0x56a4 <vfprintf+0x1ac>
    56c6:	ea c0       	rjmp	.+468    	; 0x589c <vfprintf+0x3a4>
    56c8:	94 36       	cpi	r25, 0x64	; 100
    56ca:	11 f0       	breq	.+4      	; 0x56d0 <vfprintf+0x1d8>
    56cc:	99 36       	cpi	r25, 0x69	; 105
    56ce:	69 f5       	brne	.+90     	; 0x572a <vfprintf+0x232>
    56d0:	f7 fe       	sbrs	r15, 7
    56d2:	08 c0       	rjmp	.+16     	; 0x56e4 <vfprintf+0x1ec>
    56d4:	f5 01       	movw	r30, r10
    56d6:	20 81       	ld	r18, Z
    56d8:	31 81       	ldd	r19, Z+1	; 0x01
    56da:	42 81       	ldd	r20, Z+2	; 0x02
    56dc:	53 81       	ldd	r21, Z+3	; 0x03
    56de:	84 e0       	ldi	r24, 0x04	; 4
    56e0:	90 e0       	ldi	r25, 0x00	; 0
    56e2:	0a c0       	rjmp	.+20     	; 0x56f8 <vfprintf+0x200>
    56e4:	f5 01       	movw	r30, r10
    56e6:	80 81       	ld	r24, Z
    56e8:	91 81       	ldd	r25, Z+1	; 0x01
    56ea:	9c 01       	movw	r18, r24
    56ec:	44 27       	eor	r20, r20
    56ee:	37 fd       	sbrc	r19, 7
    56f0:	40 95       	com	r20
    56f2:	54 2f       	mov	r21, r20
    56f4:	82 e0       	ldi	r24, 0x02	; 2
    56f6:	90 e0       	ldi	r25, 0x00	; 0
    56f8:	a8 0e       	add	r10, r24
    56fa:	b9 1e       	adc	r11, r25
    56fc:	9f e6       	ldi	r25, 0x6F	; 111
    56fe:	f9 22       	and	r15, r25
    5700:	57 ff       	sbrs	r21, 7
    5702:	09 c0       	rjmp	.+18     	; 0x5716 <vfprintf+0x21e>
    5704:	50 95       	com	r21
    5706:	40 95       	com	r20
    5708:	30 95       	com	r19
    570a:	21 95       	neg	r18
    570c:	3f 4f       	sbci	r19, 0xFF	; 255
    570e:	4f 4f       	sbci	r20, 0xFF	; 255
    5710:	5f 4f       	sbci	r21, 0xFF	; 255
    5712:	e0 e8       	ldi	r30, 0x80	; 128
    5714:	fe 2a       	or	r15, r30
    5716:	ca 01       	movw	r24, r20
    5718:	b9 01       	movw	r22, r18
    571a:	a1 01       	movw	r20, r2
    571c:	2a e0       	ldi	r18, 0x0A	; 10
    571e:	30 e0       	ldi	r19, 0x00	; 0
    5720:	0e 94 9b 2c 	call	0x5936	; 0x5936 <__ultoa_invert>
    5724:	d8 2e       	mov	r13, r24
    5726:	d2 18       	sub	r13, r2
    5728:	40 c0       	rjmp	.+128    	; 0x57aa <vfprintf+0x2b2>
    572a:	95 37       	cpi	r25, 0x75	; 117
    572c:	29 f4       	brne	.+10     	; 0x5738 <vfprintf+0x240>
    572e:	1f 2d       	mov	r17, r15
    5730:	1f 7e       	andi	r17, 0xEF	; 239
    5732:	2a e0       	ldi	r18, 0x0A	; 10
    5734:	30 e0       	ldi	r19, 0x00	; 0
    5736:	1d c0       	rjmp	.+58     	; 0x5772 <vfprintf+0x27a>
    5738:	1f 2d       	mov	r17, r15
    573a:	19 7f       	andi	r17, 0xF9	; 249
    573c:	9f 36       	cpi	r25, 0x6F	; 111
    573e:	61 f0       	breq	.+24     	; 0x5758 <vfprintf+0x260>
    5740:	90 37       	cpi	r25, 0x70	; 112
    5742:	20 f4       	brcc	.+8      	; 0x574c <vfprintf+0x254>
    5744:	98 35       	cpi	r25, 0x58	; 88
    5746:	09 f0       	breq	.+2      	; 0x574a <vfprintf+0x252>
    5748:	ac c0       	rjmp	.+344    	; 0x58a2 <vfprintf+0x3aa>
    574a:	0f c0       	rjmp	.+30     	; 0x576a <vfprintf+0x272>
    574c:	90 37       	cpi	r25, 0x70	; 112
    574e:	39 f0       	breq	.+14     	; 0x575e <vfprintf+0x266>
    5750:	98 37       	cpi	r25, 0x78	; 120
    5752:	09 f0       	breq	.+2      	; 0x5756 <vfprintf+0x25e>
    5754:	a6 c0       	rjmp	.+332    	; 0x58a2 <vfprintf+0x3aa>
    5756:	04 c0       	rjmp	.+8      	; 0x5760 <vfprintf+0x268>
    5758:	28 e0       	ldi	r18, 0x08	; 8
    575a:	30 e0       	ldi	r19, 0x00	; 0
    575c:	0a c0       	rjmp	.+20     	; 0x5772 <vfprintf+0x27a>
    575e:	10 61       	ori	r17, 0x10	; 16
    5760:	14 fd       	sbrc	r17, 4
    5762:	14 60       	ori	r17, 0x04	; 4
    5764:	20 e1       	ldi	r18, 0x10	; 16
    5766:	30 e0       	ldi	r19, 0x00	; 0
    5768:	04 c0       	rjmp	.+8      	; 0x5772 <vfprintf+0x27a>
    576a:	14 fd       	sbrc	r17, 4
    576c:	16 60       	ori	r17, 0x06	; 6
    576e:	20 e1       	ldi	r18, 0x10	; 16
    5770:	32 e0       	ldi	r19, 0x02	; 2
    5772:	17 ff       	sbrs	r17, 7
    5774:	08 c0       	rjmp	.+16     	; 0x5786 <vfprintf+0x28e>
    5776:	f5 01       	movw	r30, r10
    5778:	60 81       	ld	r22, Z
    577a:	71 81       	ldd	r23, Z+1	; 0x01
    577c:	82 81       	ldd	r24, Z+2	; 0x02
    577e:	93 81       	ldd	r25, Z+3	; 0x03
    5780:	44 e0       	ldi	r20, 0x04	; 4
    5782:	50 e0       	ldi	r21, 0x00	; 0
    5784:	08 c0       	rjmp	.+16     	; 0x5796 <vfprintf+0x29e>
    5786:	f5 01       	movw	r30, r10
    5788:	80 81       	ld	r24, Z
    578a:	91 81       	ldd	r25, Z+1	; 0x01
    578c:	bc 01       	movw	r22, r24
    578e:	80 e0       	ldi	r24, 0x00	; 0
    5790:	90 e0       	ldi	r25, 0x00	; 0
    5792:	42 e0       	ldi	r20, 0x02	; 2
    5794:	50 e0       	ldi	r21, 0x00	; 0
    5796:	a4 0e       	add	r10, r20
    5798:	b5 1e       	adc	r11, r21
    579a:	a1 01       	movw	r20, r2
    579c:	0e 94 9b 2c 	call	0x5936	; 0x5936 <__ultoa_invert>
    57a0:	d8 2e       	mov	r13, r24
    57a2:	d2 18       	sub	r13, r2
    57a4:	8f e7       	ldi	r24, 0x7F	; 127
    57a6:	f8 2e       	mov	r15, r24
    57a8:	f1 22       	and	r15, r17
    57aa:	f6 fe       	sbrs	r15, 6
    57ac:	0b c0       	rjmp	.+22     	; 0x57c4 <vfprintf+0x2cc>
    57ae:	5e ef       	ldi	r21, 0xFE	; 254
    57b0:	f5 22       	and	r15, r21
    57b2:	d9 14       	cp	r13, r9
    57b4:	38 f4       	brcc	.+14     	; 0x57c4 <vfprintf+0x2cc>
    57b6:	f4 fe       	sbrs	r15, 4
    57b8:	07 c0       	rjmp	.+14     	; 0x57c8 <vfprintf+0x2d0>
    57ba:	f2 fc       	sbrc	r15, 2
    57bc:	05 c0       	rjmp	.+10     	; 0x57c8 <vfprintf+0x2d0>
    57be:	8f ee       	ldi	r24, 0xEF	; 239
    57c0:	f8 22       	and	r15, r24
    57c2:	02 c0       	rjmp	.+4      	; 0x57c8 <vfprintf+0x2d0>
    57c4:	1d 2d       	mov	r17, r13
    57c6:	01 c0       	rjmp	.+2      	; 0x57ca <vfprintf+0x2d2>
    57c8:	19 2d       	mov	r17, r9
    57ca:	f4 fe       	sbrs	r15, 4
    57cc:	0d c0       	rjmp	.+26     	; 0x57e8 <vfprintf+0x2f0>
    57ce:	fe 01       	movw	r30, r28
    57d0:	ed 0d       	add	r30, r13
    57d2:	f1 1d       	adc	r31, r1
    57d4:	80 81       	ld	r24, Z
    57d6:	80 33       	cpi	r24, 0x30	; 48
    57d8:	19 f4       	brne	.+6      	; 0x57e0 <vfprintf+0x2e8>
    57da:	99 ee       	ldi	r25, 0xE9	; 233
    57dc:	f9 22       	and	r15, r25
    57de:	08 c0       	rjmp	.+16     	; 0x57f0 <vfprintf+0x2f8>
    57e0:	1f 5f       	subi	r17, 0xFF	; 255
    57e2:	f2 fe       	sbrs	r15, 2
    57e4:	05 c0       	rjmp	.+10     	; 0x57f0 <vfprintf+0x2f8>
    57e6:	03 c0       	rjmp	.+6      	; 0x57ee <vfprintf+0x2f6>
    57e8:	8f 2d       	mov	r24, r15
    57ea:	86 78       	andi	r24, 0x86	; 134
    57ec:	09 f0       	breq	.+2      	; 0x57f0 <vfprintf+0x2f8>
    57ee:	1f 5f       	subi	r17, 0xFF	; 255
    57f0:	0f 2d       	mov	r16, r15
    57f2:	f3 fc       	sbrc	r15, 3
    57f4:	14 c0       	rjmp	.+40     	; 0x581e <vfprintf+0x326>
    57f6:	f0 fe       	sbrs	r15, 0
    57f8:	0f c0       	rjmp	.+30     	; 0x5818 <vfprintf+0x320>
    57fa:	1e 15       	cp	r17, r14
    57fc:	10 f0       	brcs	.+4      	; 0x5802 <vfprintf+0x30a>
    57fe:	9d 2c       	mov	r9, r13
    5800:	0b c0       	rjmp	.+22     	; 0x5818 <vfprintf+0x320>
    5802:	9d 2c       	mov	r9, r13
    5804:	9e 0c       	add	r9, r14
    5806:	91 1a       	sub	r9, r17
    5808:	1e 2d       	mov	r17, r14
    580a:	06 c0       	rjmp	.+12     	; 0x5818 <vfprintf+0x320>
    580c:	80 e2       	ldi	r24, 0x20	; 32
    580e:	90 e0       	ldi	r25, 0x00	; 0
    5810:	b3 01       	movw	r22, r6
    5812:	0e 94 6f 2c 	call	0x58de	; 0x58de <fputc>
    5816:	1f 5f       	subi	r17, 0xFF	; 255
    5818:	1e 15       	cp	r17, r14
    581a:	c0 f3       	brcs	.-16     	; 0x580c <vfprintf+0x314>
    581c:	04 c0       	rjmp	.+8      	; 0x5826 <vfprintf+0x32e>
    581e:	1e 15       	cp	r17, r14
    5820:	10 f4       	brcc	.+4      	; 0x5826 <vfprintf+0x32e>
    5822:	e1 1a       	sub	r14, r17
    5824:	01 c0       	rjmp	.+2      	; 0x5828 <vfprintf+0x330>
    5826:	ee 24       	eor	r14, r14
    5828:	04 ff       	sbrs	r16, 4
    582a:	0f c0       	rjmp	.+30     	; 0x584a <vfprintf+0x352>
    582c:	80 e3       	ldi	r24, 0x30	; 48
    582e:	90 e0       	ldi	r25, 0x00	; 0
    5830:	b3 01       	movw	r22, r6
    5832:	0e 94 6f 2c 	call	0x58de	; 0x58de <fputc>
    5836:	02 ff       	sbrs	r16, 2
    5838:	1d c0       	rjmp	.+58     	; 0x5874 <vfprintf+0x37c>
    583a:	01 fd       	sbrc	r16, 1
    583c:	03 c0       	rjmp	.+6      	; 0x5844 <vfprintf+0x34c>
    583e:	88 e7       	ldi	r24, 0x78	; 120
    5840:	90 e0       	ldi	r25, 0x00	; 0
    5842:	0e c0       	rjmp	.+28     	; 0x5860 <vfprintf+0x368>
    5844:	88 e5       	ldi	r24, 0x58	; 88
    5846:	90 e0       	ldi	r25, 0x00	; 0
    5848:	0b c0       	rjmp	.+22     	; 0x5860 <vfprintf+0x368>
    584a:	80 2f       	mov	r24, r16
    584c:	86 78       	andi	r24, 0x86	; 134
    584e:	91 f0       	breq	.+36     	; 0x5874 <vfprintf+0x37c>
    5850:	01 ff       	sbrs	r16, 1
    5852:	02 c0       	rjmp	.+4      	; 0x5858 <vfprintf+0x360>
    5854:	8b e2       	ldi	r24, 0x2B	; 43
    5856:	01 c0       	rjmp	.+2      	; 0x585a <vfprintf+0x362>
    5858:	80 e2       	ldi	r24, 0x20	; 32
    585a:	f7 fc       	sbrc	r15, 7
    585c:	8d e2       	ldi	r24, 0x2D	; 45
    585e:	90 e0       	ldi	r25, 0x00	; 0
    5860:	b3 01       	movw	r22, r6
    5862:	0e 94 6f 2c 	call	0x58de	; 0x58de <fputc>
    5866:	06 c0       	rjmp	.+12     	; 0x5874 <vfprintf+0x37c>
    5868:	80 e3       	ldi	r24, 0x30	; 48
    586a:	90 e0       	ldi	r25, 0x00	; 0
    586c:	b3 01       	movw	r22, r6
    586e:	0e 94 6f 2c 	call	0x58de	; 0x58de <fputc>
    5872:	9a 94       	dec	r9
    5874:	d9 14       	cp	r13, r9
    5876:	c0 f3       	brcs	.-16     	; 0x5868 <vfprintf+0x370>
    5878:	da 94       	dec	r13
    587a:	f1 01       	movw	r30, r2
    587c:	ed 0d       	add	r30, r13
    587e:	f1 1d       	adc	r31, r1
    5880:	80 81       	ld	r24, Z
    5882:	90 e0       	ldi	r25, 0x00	; 0
    5884:	b3 01       	movw	r22, r6
    5886:	0e 94 6f 2c 	call	0x58de	; 0x58de <fputc>
    588a:	dd 20       	and	r13, r13
    588c:	a9 f7       	brne	.-22     	; 0x5878 <vfprintf+0x380>
    588e:	06 c0       	rjmp	.+12     	; 0x589c <vfprintf+0x3a4>
    5890:	80 e2       	ldi	r24, 0x20	; 32
    5892:	90 e0       	ldi	r25, 0x00	; 0
    5894:	b3 01       	movw	r22, r6
    5896:	0e 94 6f 2c 	call	0x58de	; 0x58de <fputc>
    589a:	ea 94       	dec	r14
    589c:	ee 20       	and	r14, r14
    589e:	c1 f7       	brne	.-16     	; 0x5890 <vfprintf+0x398>
    58a0:	43 ce       	rjmp	.-890    	; 0x5528 <vfprintf+0x30>
    58a2:	f3 01       	movw	r30, r6
    58a4:	66 81       	ldd	r22, Z+6	; 0x06
    58a6:	77 81       	ldd	r23, Z+7	; 0x07
    58a8:	cb 01       	movw	r24, r22
    58aa:	2b 96       	adiw	r28, 0x0b	; 11
    58ac:	e2 e1       	ldi	r30, 0x12	; 18
    58ae:	0c 94 36 2a 	jmp	0x546c	; 0x546c <__epilogue_restores__>

000058b2 <strnlen_P>:
    58b2:	fc 01       	movw	r30, r24
    58b4:	05 90       	lpm	r0, Z+
    58b6:	61 50       	subi	r22, 0x01	; 1
    58b8:	70 40       	sbci	r23, 0x00	; 0
    58ba:	01 10       	cpse	r0, r1
    58bc:	d8 f7       	brcc	.-10     	; 0x58b4 <strnlen_P+0x2>
    58be:	80 95       	com	r24
    58c0:	90 95       	com	r25
    58c2:	8e 0f       	add	r24, r30
    58c4:	9f 1f       	adc	r25, r31
    58c6:	08 95       	ret

000058c8 <strnlen>:
    58c8:	fc 01       	movw	r30, r24
    58ca:	61 50       	subi	r22, 0x01	; 1
    58cc:	70 40       	sbci	r23, 0x00	; 0
    58ce:	01 90       	ld	r0, Z+
    58d0:	01 10       	cpse	r0, r1
    58d2:	d8 f7       	brcc	.-10     	; 0x58ca <strnlen+0x2>
    58d4:	80 95       	com	r24
    58d6:	90 95       	com	r25
    58d8:	8e 0f       	add	r24, r30
    58da:	9f 1f       	adc	r25, r31
    58dc:	08 95       	ret

000058de <fputc>:
    58de:	0f 93       	push	r16
    58e0:	1f 93       	push	r17
    58e2:	cf 93       	push	r28
    58e4:	df 93       	push	r29
    58e6:	8c 01       	movw	r16, r24
    58e8:	eb 01       	movw	r28, r22
    58ea:	8b 81       	ldd	r24, Y+3	; 0x03
    58ec:	81 ff       	sbrs	r24, 1
    58ee:	1b c0       	rjmp	.+54     	; 0x5926 <fputc+0x48>
    58f0:	82 ff       	sbrs	r24, 2
    58f2:	0d c0       	rjmp	.+26     	; 0x590e <fputc+0x30>
    58f4:	2e 81       	ldd	r18, Y+6	; 0x06
    58f6:	3f 81       	ldd	r19, Y+7	; 0x07
    58f8:	8c 81       	ldd	r24, Y+4	; 0x04
    58fa:	9d 81       	ldd	r25, Y+5	; 0x05
    58fc:	28 17       	cp	r18, r24
    58fe:	39 07       	cpc	r19, r25
    5900:	64 f4       	brge	.+24     	; 0x591a <fputc+0x3c>
    5902:	e8 81       	ld	r30, Y
    5904:	f9 81       	ldd	r31, Y+1	; 0x01
    5906:	01 93       	st	Z+, r16
    5908:	f9 83       	std	Y+1, r31	; 0x01
    590a:	e8 83       	st	Y, r30
    590c:	06 c0       	rjmp	.+12     	; 0x591a <fputc+0x3c>
    590e:	e8 85       	ldd	r30, Y+8	; 0x08
    5910:	f9 85       	ldd	r31, Y+9	; 0x09
    5912:	80 2f       	mov	r24, r16
    5914:	09 95       	icall
    5916:	89 2b       	or	r24, r25
    5918:	31 f4       	brne	.+12     	; 0x5926 <fputc+0x48>
    591a:	8e 81       	ldd	r24, Y+6	; 0x06
    591c:	9f 81       	ldd	r25, Y+7	; 0x07
    591e:	01 96       	adiw	r24, 0x01	; 1
    5920:	9f 83       	std	Y+7, r25	; 0x07
    5922:	8e 83       	std	Y+6, r24	; 0x06
    5924:	02 c0       	rjmp	.+4      	; 0x592a <fputc+0x4c>
    5926:	0f ef       	ldi	r16, 0xFF	; 255
    5928:	1f ef       	ldi	r17, 0xFF	; 255
    592a:	c8 01       	movw	r24, r16
    592c:	df 91       	pop	r29
    592e:	cf 91       	pop	r28
    5930:	1f 91       	pop	r17
    5932:	0f 91       	pop	r16
    5934:	08 95       	ret

00005936 <__ultoa_invert>:
    5936:	fa 01       	movw	r30, r20
    5938:	aa 27       	eor	r26, r26
    593a:	28 30       	cpi	r18, 0x08	; 8
    593c:	51 f1       	breq	.+84     	; 0x5992 <__ultoa_invert+0x5c>
    593e:	20 31       	cpi	r18, 0x10	; 16
    5940:	81 f1       	breq	.+96     	; 0x59a2 <__ultoa_invert+0x6c>
    5942:	e8 94       	clt
    5944:	6f 93       	push	r22
    5946:	6e 7f       	andi	r22, 0xFE	; 254
    5948:	6e 5f       	subi	r22, 0xFE	; 254
    594a:	7f 4f       	sbci	r23, 0xFF	; 255
    594c:	8f 4f       	sbci	r24, 0xFF	; 255
    594e:	9f 4f       	sbci	r25, 0xFF	; 255
    5950:	af 4f       	sbci	r26, 0xFF	; 255
    5952:	b1 e0       	ldi	r27, 0x01	; 1
    5954:	3e d0       	rcall	.+124    	; 0x59d2 <__ultoa_invert+0x9c>
    5956:	b4 e0       	ldi	r27, 0x04	; 4
    5958:	3c d0       	rcall	.+120    	; 0x59d2 <__ultoa_invert+0x9c>
    595a:	67 0f       	add	r22, r23
    595c:	78 1f       	adc	r23, r24
    595e:	89 1f       	adc	r24, r25
    5960:	9a 1f       	adc	r25, r26
    5962:	a1 1d       	adc	r26, r1
    5964:	68 0f       	add	r22, r24
    5966:	79 1f       	adc	r23, r25
    5968:	8a 1f       	adc	r24, r26
    596a:	91 1d       	adc	r25, r1
    596c:	a1 1d       	adc	r26, r1
    596e:	6a 0f       	add	r22, r26
    5970:	71 1d       	adc	r23, r1
    5972:	81 1d       	adc	r24, r1
    5974:	91 1d       	adc	r25, r1
    5976:	a1 1d       	adc	r26, r1
    5978:	20 d0       	rcall	.+64     	; 0x59ba <__ultoa_invert+0x84>
    597a:	09 f4       	brne	.+2      	; 0x597e <__ultoa_invert+0x48>
    597c:	68 94       	set
    597e:	3f 91       	pop	r19
    5980:	2a e0       	ldi	r18, 0x0A	; 10
    5982:	26 9f       	mul	r18, r22
    5984:	11 24       	eor	r1, r1
    5986:	30 19       	sub	r19, r0
    5988:	30 5d       	subi	r19, 0xD0	; 208
    598a:	31 93       	st	Z+, r19
    598c:	de f6       	brtc	.-74     	; 0x5944 <__ultoa_invert+0xe>
    598e:	cf 01       	movw	r24, r30
    5990:	08 95       	ret
    5992:	46 2f       	mov	r20, r22
    5994:	47 70       	andi	r20, 0x07	; 7
    5996:	40 5d       	subi	r20, 0xD0	; 208
    5998:	41 93       	st	Z+, r20
    599a:	b3 e0       	ldi	r27, 0x03	; 3
    599c:	0f d0       	rcall	.+30     	; 0x59bc <__ultoa_invert+0x86>
    599e:	c9 f7       	brne	.-14     	; 0x5992 <__ultoa_invert+0x5c>
    59a0:	f6 cf       	rjmp	.-20     	; 0x598e <__ultoa_invert+0x58>
    59a2:	46 2f       	mov	r20, r22
    59a4:	4f 70       	andi	r20, 0x0F	; 15
    59a6:	40 5d       	subi	r20, 0xD0	; 208
    59a8:	4a 33       	cpi	r20, 0x3A	; 58
    59aa:	18 f0       	brcs	.+6      	; 0x59b2 <__ultoa_invert+0x7c>
    59ac:	49 5d       	subi	r20, 0xD9	; 217
    59ae:	31 fd       	sbrc	r19, 1
    59b0:	40 52       	subi	r20, 0x20	; 32
    59b2:	41 93       	st	Z+, r20
    59b4:	02 d0       	rcall	.+4      	; 0x59ba <__ultoa_invert+0x84>
    59b6:	a9 f7       	brne	.-22     	; 0x59a2 <__ultoa_invert+0x6c>
    59b8:	ea cf       	rjmp	.-44     	; 0x598e <__ultoa_invert+0x58>
    59ba:	b4 e0       	ldi	r27, 0x04	; 4
    59bc:	a6 95       	lsr	r26
    59be:	97 95       	ror	r25
    59c0:	87 95       	ror	r24
    59c2:	77 95       	ror	r23
    59c4:	67 95       	ror	r22
    59c6:	ba 95       	dec	r27
    59c8:	c9 f7       	brne	.-14     	; 0x59bc <__ultoa_invert+0x86>
    59ca:	00 97       	sbiw	r24, 0x00	; 0
    59cc:	61 05       	cpc	r22, r1
    59ce:	71 05       	cpc	r23, r1
    59d0:	08 95       	ret
    59d2:	9b 01       	movw	r18, r22
    59d4:	ac 01       	movw	r20, r24
    59d6:	0a 2e       	mov	r0, r26
    59d8:	06 94       	lsr	r0
    59da:	57 95       	ror	r21
    59dc:	47 95       	ror	r20
    59de:	37 95       	ror	r19
    59e0:	27 95       	ror	r18
    59e2:	ba 95       	dec	r27
    59e4:	c9 f7       	brne	.-14     	; 0x59d8 <__ultoa_invert+0xa2>
    59e6:	62 0f       	add	r22, r18
    59e8:	73 1f       	adc	r23, r19
    59ea:	84 1f       	adc	r24, r20
    59ec:	95 1f       	adc	r25, r21
    59ee:	a0 1d       	adc	r26, r0
    59f0:	08 95       	ret

000059f2 <_exit>:
    59f2:	f8 94       	cli

000059f4 <__stop_program>:
    59f4:	ff cf       	rjmp	.-2      	; 0x59f4 <__stop_program>
